
/home/pc/EFDA-MARTE-old/branches/MARTe2/Source/Core/L0Portability/OperatingSystem/STM/STM32Cube_FW_F4_V1.5.0/MyProjects/gpioSrc/Build/output.elf:     file format elf32-littlearm


Disassembly of section .text:

08000188 <HAL_GPIO_EXTI_Callback>:
 8000188:	2801      	cmp	r0, #1
 800018a:	b508      	push	{r3, lr}
 800018c:	d10c      	bne.n	80001a8 <HAL_GPIO_EXTI_Callback+0x20>
 800018e:	f005 faed 	bl	800576c <BSP_LED_Toggle>
 8000192:	2000      	movs	r0, #0
 8000194:	f005 faea 	bl	800576c <BSP_LED_Toggle>
 8000198:	2002      	movs	r0, #2
 800019a:	f005 fae7 	bl	800576c <BSP_LED_Toggle>
 800019e:	2003      	movs	r0, #3
 80001a0:	e8bd 4008 	ldmia.w	sp!, {r3, lr}
 80001a4:	f005 bae2 	b.w	800576c <BSP_LED_Toggle>
 80001a8:	bd08      	pop	{r3, pc}

080001aa <NMI_Handler>:
 80001aa:	4770      	bx	lr

080001ac <HardFault_Handler>:
 80001ac:	e7fe      	b.n	80001ac <HardFault_Handler>

080001ae <MemManage_Handler>:
 80001ae:	e7fe      	b.n	80001ae <MemManage_Handler>

080001b0 <BusFault_Handler>:
 80001b0:	e7fe      	b.n	80001b0 <BusFault_Handler>

080001b2 <UsageFault_Handler>:
 80001b2:	e7fe      	b.n	80001b2 <UsageFault_Handler>

080001b4 <SVC_Handler>:
 80001b4:	4770      	bx	lr

080001b6 <DebugMon_Handler>:
 80001b6:	4770      	bx	lr

080001b8 <PendSV_Handler>:
 80001b8:	4770      	bx	lr

080001ba <SysTick_Handler>:
 80001ba:	f000 b89b 	b.w	80002f4 <HAL_IncTick>

080001be <EXTI0_IRQHandler>:
 80001be:	2001      	movs	r0, #1
 80001c0:	f001 bfb6 	b.w	8002130 <HAL_GPIO_EXTI_IRQHandler>

080001c4 <SystemInit>:
 80001c4:	4b0c      	ldr	r3, [pc, #48]	; (80001f8 <SystemInit+0x34>)
 80001c6:	681a      	ldr	r2, [r3, #0]
 80001c8:	f042 0201 	orr.w	r2, r2, #1
 80001cc:	601a      	str	r2, [r3, #0]
 80001ce:	2200      	movs	r2, #0
 80001d0:	609a      	str	r2, [r3, #8]
 80001d2:	6819      	ldr	r1, [r3, #0]
 80001d4:	f021 7184 	bic.w	r1, r1, #17301504	; 0x1080000
 80001d8:	f421 3180 	bic.w	r1, r1, #65536	; 0x10000
 80001dc:	6019      	str	r1, [r3, #0]
 80001de:	4907      	ldr	r1, [pc, #28]	; (80001fc <SystemInit+0x38>)
 80001e0:	6059      	str	r1, [r3, #4]
 80001e2:	6819      	ldr	r1, [r3, #0]
 80001e4:	f421 2180 	bic.w	r1, r1, #262144	; 0x40000
 80001e8:	6019      	str	r1, [r3, #0]
 80001ea:	60da      	str	r2, [r3, #12]
 80001ec:	4b04      	ldr	r3, [pc, #16]	; (8000200 <SystemInit+0x3c>)
 80001ee:	f04f 6200 	mov.w	r2, #134217728	; 0x8000000
 80001f2:	609a      	str	r2, [r3, #8]
 80001f4:	4770      	bx	lr
 80001f6:	bf00      	nop
 80001f8:	40023800 	.word	0x40023800
 80001fc:	24003010 	.word	0x24003010
 8000200:	e000ed00 	.word	0xe000ed00

08000204 <SystemCoreClockUpdate>:
 8000204:	4a17      	ldr	r2, [pc, #92]	; (8000264 <SystemCoreClockUpdate+0x60>)
 8000206:	4b18      	ldr	r3, [pc, #96]	; (8000268 <SystemCoreClockUpdate+0x64>)
 8000208:	6891      	ldr	r1, [r2, #8]
 800020a:	f001 010c 	and.w	r1, r1, #12
 800020e:	2904      	cmp	r1, #4
 8000210:	d003      	beq.n	800021a <SystemCoreClockUpdate+0x16>
 8000212:	2908      	cmp	r1, #8
 8000214:	d003      	beq.n	800021e <SystemCoreClockUpdate+0x1a>
 8000216:	4a15      	ldr	r2, [pc, #84]	; (800026c <SystemCoreClockUpdate+0x68>)
 8000218:	e018      	b.n	800024c <SystemCoreClockUpdate+0x48>
 800021a:	4a15      	ldr	r2, [pc, #84]	; (8000270 <SystemCoreClockUpdate+0x6c>)
 800021c:	e016      	b.n	800024c <SystemCoreClockUpdate+0x48>
 800021e:	6850      	ldr	r0, [r2, #4]
 8000220:	6851      	ldr	r1, [r2, #4]
 8000222:	f410 0f80 	tst.w	r0, #4194304	; 0x400000
 8000226:	6850      	ldr	r0, [r2, #4]
 8000228:	bf14      	ite	ne
 800022a:	4a11      	ldrne	r2, [pc, #68]	; (8000270 <SystemCoreClockUpdate+0x6c>)
 800022c:	4a0f      	ldreq	r2, [pc, #60]	; (800026c <SystemCoreClockUpdate+0x68>)
 800022e:	f001 013f 	and.w	r1, r1, #63	; 0x3f
 8000232:	fbb2 f2f1 	udiv	r2, r2, r1
 8000236:	490b      	ldr	r1, [pc, #44]	; (8000264 <SystemCoreClockUpdate+0x60>)
 8000238:	6849      	ldr	r1, [r1, #4]
 800023a:	f3c1 4101 	ubfx	r1, r1, #16, #2
 800023e:	f3c0 1088 	ubfx	r0, r0, #6, #9
 8000242:	3101      	adds	r1, #1
 8000244:	4342      	muls	r2, r0
 8000246:	0049      	lsls	r1, r1, #1
 8000248:	fbb2 f2f1 	udiv	r2, r2, r1
 800024c:	601a      	str	r2, [r3, #0]
 800024e:	4a05      	ldr	r2, [pc, #20]	; (8000264 <SystemCoreClockUpdate+0x60>)
 8000250:	6892      	ldr	r2, [r2, #8]
 8000252:	f3c2 1203 	ubfx	r2, r2, #4, #4
 8000256:	441a      	add	r2, r3
 8000258:	7911      	ldrb	r1, [r2, #4]
 800025a:	681a      	ldr	r2, [r3, #0]
 800025c:	40ca      	lsrs	r2, r1
 800025e:	601a      	str	r2, [r3, #0]
 8000260:	4770      	bx	lr
 8000262:	bf00      	nop
 8000264:	40023800 	.word	0x40023800
 8000268:	20000000 	.word	0x20000000
 800026c:	00f42400 	.word	0x00f42400
 8000270:	007a1200 	.word	0x007a1200
 8000274:	4770      	bx	lr
 8000276:	4770      	bx	lr

08000278 <HAL_DeInit>:
 8000278:	b510      	push	{r4, lr}
 800027a:	4b09      	ldr	r3, [pc, #36]	; (80002a0 <HAL_DeInit+0x28>)
 800027c:	f04f 32ff 	mov.w	r2, #4294967295	; 0xffffffff
 8000280:	2400      	movs	r4, #0
 8000282:	621a      	str	r2, [r3, #32]
 8000284:	621c      	str	r4, [r3, #32]
 8000286:	625a      	str	r2, [r3, #36]	; 0x24
 8000288:	625c      	str	r4, [r3, #36]	; 0x24
 800028a:	611a      	str	r2, [r3, #16]
 800028c:	611c      	str	r4, [r3, #16]
 800028e:	615a      	str	r2, [r3, #20]
 8000290:	615c      	str	r4, [r3, #20]
 8000292:	619a      	str	r2, [r3, #24]
 8000294:	619c      	str	r4, [r3, #24]
 8000296:	f003 fc6c 	bl	8003b72 <HAL_MspDeInit>
 800029a:	4620      	mov	r0, r4
 800029c:	bd10      	pop	{r4, pc}
 800029e:	bf00      	nop
 80002a0:	40023800 	.word	0x40023800

080002a4 <HAL_InitTick>:
 80002a4:	b510      	push	{r4, lr}
 80002a6:	4604      	mov	r4, r0
 80002a8:	f003 ffc0 	bl	800422c <HAL_RCC_GetHCLKFreq>
 80002ac:	f44f 737a 	mov.w	r3, #1000	; 0x3e8
 80002b0:	fbb0 f0f3 	udiv	r0, r0, r3
 80002b4:	f000 f916 	bl	80004e4 <HAL_SYSTICK_Config>
 80002b8:	f04f 30ff 	mov.w	r0, #4294967295	; 0xffffffff
 80002bc:	4621      	mov	r1, r4
 80002be:	2200      	movs	r2, #0
 80002c0:	f000 f8b4 	bl	800042c <HAL_NVIC_SetPriority>
 80002c4:	2000      	movs	r0, #0
 80002c6:	bd10      	pop	{r4, pc}

080002c8 <HAL_Init>:
 80002c8:	b508      	push	{r3, lr}
 80002ca:	4b09      	ldr	r3, [pc, #36]	; (80002f0 <HAL_Init+0x28>)
 80002cc:	681a      	ldr	r2, [r3, #0]
 80002ce:	f442 7200 	orr.w	r2, r2, #512	; 0x200
 80002d2:	601a      	str	r2, [r3, #0]
 80002d4:	681a      	ldr	r2, [r3, #0]
 80002d6:	f442 6280 	orr.w	r2, r2, #1024	; 0x400
 80002da:	601a      	str	r2, [r3, #0]
 80002dc:	2003      	movs	r0, #3
 80002de:	f000 f893 	bl	8000408 <HAL_NVIC_SetPriorityGrouping>
 80002e2:	200f      	movs	r0, #15
 80002e4:	f7ff ffde 	bl	80002a4 <HAL_InitTick>
 80002e8:	f003 fc42 	bl	8003b70 <HAL_MspInit>
 80002ec:	2000      	movs	r0, #0
 80002ee:	bd08      	pop	{r3, pc}
 80002f0:	40023c00 	.word	0x40023c00

080002f4 <HAL_IncTick>:
 80002f4:	4b02      	ldr	r3, [pc, #8]	; (8000300 <HAL_IncTick+0xc>)
 80002f6:	681a      	ldr	r2, [r3, #0]
 80002f8:	3201      	adds	r2, #1
 80002fa:	601a      	str	r2, [r3, #0]
 80002fc:	4770      	bx	lr
 80002fe:	bf00      	nop
 8000300:	20000460 	.word	0x20000460

08000304 <HAL_GetTick>:
 8000304:	4b01      	ldr	r3, [pc, #4]	; (800030c <HAL_GetTick+0x8>)
 8000306:	6818      	ldr	r0, [r3, #0]
 8000308:	4770      	bx	lr
 800030a:	bf00      	nop
 800030c:	20000460 	.word	0x20000460

08000310 <HAL_Delay>:
 8000310:	b513      	push	{r0, r1, r4, lr}
 8000312:	9001      	str	r0, [sp, #4]
 8000314:	f7ff fff6 	bl	8000304 <HAL_GetTick>
 8000318:	4604      	mov	r4, r0
 800031a:	f7ff fff3 	bl	8000304 <HAL_GetTick>
 800031e:	9b01      	ldr	r3, [sp, #4]
 8000320:	1b00      	subs	r0, r0, r4
 8000322:	4298      	cmp	r0, r3
 8000324:	d3f9      	bcc.n	800031a <HAL_Delay+0xa>
 8000326:	b002      	add	sp, #8
 8000328:	bd10      	pop	{r4, pc}

0800032a <HAL_SuspendTick>:
 800032a:	4b03      	ldr	r3, [pc, #12]	; (8000338 <HAL_SuspendTick+0xe>)
 800032c:	681a      	ldr	r2, [r3, #0]
 800032e:	f022 0202 	bic.w	r2, r2, #2
 8000332:	601a      	str	r2, [r3, #0]
 8000334:	4770      	bx	lr
 8000336:	bf00      	nop
 8000338:	e000e010 	.word	0xe000e010

0800033c <HAL_ResumeTick>:
 800033c:	4b02      	ldr	r3, [pc, #8]	; (8000348 <HAL_ResumeTick+0xc>)
 800033e:	681a      	ldr	r2, [r3, #0]
 8000340:	f042 0202 	orr.w	r2, r2, #2
 8000344:	601a      	str	r2, [r3, #0]
 8000346:	4770      	bx	lr
 8000348:	e000e010 	.word	0xe000e010

0800034c <HAL_GetHalVersion>:
 800034c:	4800      	ldr	r0, [pc, #0]	; (8000350 <HAL_GetHalVersion+0x4>)
 800034e:	4770      	bx	lr
 8000350:	01030000 	.word	0x01030000

08000354 <HAL_GetREVID>:
 8000354:	4b01      	ldr	r3, [pc, #4]	; (800035c <HAL_GetREVID+0x8>)
 8000356:	6818      	ldr	r0, [r3, #0]
 8000358:	0c00      	lsrs	r0, r0, #16
 800035a:	4770      	bx	lr
 800035c:	e0042000 	.word	0xe0042000

08000360 <HAL_GetDEVID>:
 8000360:	4b02      	ldr	r3, [pc, #8]	; (800036c <HAL_GetDEVID+0xc>)
 8000362:	6818      	ldr	r0, [r3, #0]
 8000364:	f3c0 000b 	ubfx	r0, r0, #0, #12
 8000368:	4770      	bx	lr
 800036a:	bf00      	nop
 800036c:	e0042000 	.word	0xe0042000

08000370 <HAL_DBGMCU_EnableDBGSleepMode>:
 8000370:	4b02      	ldr	r3, [pc, #8]	; (800037c <HAL_DBGMCU_EnableDBGSleepMode+0xc>)
 8000372:	685a      	ldr	r2, [r3, #4]
 8000374:	f042 0201 	orr.w	r2, r2, #1
 8000378:	605a      	str	r2, [r3, #4]
 800037a:	4770      	bx	lr
 800037c:	e0042000 	.word	0xe0042000

08000380 <HAL_DBGMCU_DisableDBGSleepMode>:
 8000380:	4b02      	ldr	r3, [pc, #8]	; (800038c <HAL_DBGMCU_DisableDBGSleepMode+0xc>)
 8000382:	685a      	ldr	r2, [r3, #4]
 8000384:	f022 0201 	bic.w	r2, r2, #1
 8000388:	605a      	str	r2, [r3, #4]
 800038a:	4770      	bx	lr
 800038c:	e0042000 	.word	0xe0042000

08000390 <HAL_DBGMCU_EnableDBGStopMode>:
 8000390:	4b02      	ldr	r3, [pc, #8]	; (800039c <HAL_DBGMCU_EnableDBGStopMode+0xc>)
 8000392:	685a      	ldr	r2, [r3, #4]
 8000394:	f042 0202 	orr.w	r2, r2, #2
 8000398:	605a      	str	r2, [r3, #4]
 800039a:	4770      	bx	lr
 800039c:	e0042000 	.word	0xe0042000

080003a0 <HAL_DBGMCU_DisableDBGStopMode>:
 80003a0:	4b02      	ldr	r3, [pc, #8]	; (80003ac <HAL_DBGMCU_DisableDBGStopMode+0xc>)
 80003a2:	685a      	ldr	r2, [r3, #4]
 80003a4:	f022 0202 	bic.w	r2, r2, #2
 80003a8:	605a      	str	r2, [r3, #4]
 80003aa:	4770      	bx	lr
 80003ac:	e0042000 	.word	0xe0042000

080003b0 <HAL_DBGMCU_EnableDBGStandbyMode>:
 80003b0:	4b02      	ldr	r3, [pc, #8]	; (80003bc <HAL_DBGMCU_EnableDBGStandbyMode+0xc>)
 80003b2:	685a      	ldr	r2, [r3, #4]
 80003b4:	f042 0204 	orr.w	r2, r2, #4
 80003b8:	605a      	str	r2, [r3, #4]
 80003ba:	4770      	bx	lr
 80003bc:	e0042000 	.word	0xe0042000

080003c0 <HAL_DBGMCU_DisableDBGStandbyMode>:
 80003c0:	4b02      	ldr	r3, [pc, #8]	; (80003cc <HAL_DBGMCU_DisableDBGStandbyMode+0xc>)
 80003c2:	685a      	ldr	r2, [r3, #4]
 80003c4:	f022 0204 	bic.w	r2, r2, #4
 80003c8:	605a      	str	r2, [r3, #4]
 80003ca:	4770      	bx	lr
 80003cc:	e0042000 	.word	0xe0042000

080003d0 <HAL_EnableCompensationCell>:
 80003d0:	2201      	movs	r2, #1
 80003d2:	fa92 f2a2 	rbit	r2, r2
 80003d6:	fab2 f282 	clz	r2, r2
 80003da:	4b03      	ldr	r3, [pc, #12]	; (80003e8 <HAL_EnableCompensationCell+0x18>)
 80003dc:	b2d2      	uxtb	r2, r2
 80003de:	2101      	movs	r1, #1
 80003e0:	f843 1022 	str.w	r1, [r3, r2, lsl #2]
 80003e4:	4770      	bx	lr
 80003e6:	bf00      	nop
 80003e8:	42270400 	.word	0x42270400

080003ec <HAL_DisableCompensationCell>:
 80003ec:	2201      	movs	r2, #1
 80003ee:	fa92 f2a2 	rbit	r2, r2
 80003f2:	fab2 f282 	clz	r2, r2
 80003f6:	4b03      	ldr	r3, [pc, #12]	; (8000404 <HAL_DisableCompensationCell+0x18>)
 80003f8:	b2d2      	uxtb	r2, r2
 80003fa:	2100      	movs	r1, #0
 80003fc:	f843 1022 	str.w	r1, [r3, r2, lsl #2]
 8000400:	4770      	bx	lr
 8000402:	bf00      	nop
 8000404:	42270400 	.word	0x42270400

08000408 <HAL_NVIC_SetPriorityGrouping>:
 8000408:	4a07      	ldr	r2, [pc, #28]	; (8000428 <HAL_NVIC_SetPriorityGrouping+0x20>)
 800040a:	68d1      	ldr	r1, [r2, #12]
 800040c:	f64f 03ff 	movw	r3, #63743	; 0xf8ff
 8000410:	400b      	ands	r3, r1
 8000412:	f043 63bf 	orr.w	r3, r3, #100139008	; 0x5f80000
 8000416:	f443 3300 	orr.w	r3, r3, #131072	; 0x20000
 800041a:	f000 0007 	and.w	r0, r0, #7
 800041e:	ea43 2300 	orr.w	r3, r3, r0, lsl #8
 8000422:	60d3      	str	r3, [r2, #12]
 8000424:	4770      	bx	lr
 8000426:	bf00      	nop
 8000428:	e000ed00 	.word	0xe000ed00

0800042c <HAL_NVIC_SetPriority>:
 800042c:	4b16      	ldr	r3, [pc, #88]	; (8000488 <HAL_NVIC_SetPriority+0x5c>)
 800042e:	68db      	ldr	r3, [r3, #12]
 8000430:	f3c3 2302 	ubfx	r3, r3, #8, #3
 8000434:	b570      	push	{r4, r5, r6, lr}
 8000436:	1d1d      	adds	r5, r3, #4
 8000438:	f1c3 0407 	rsb	r4, r3, #7
 800043c:	2c04      	cmp	r4, #4
 800043e:	bf28      	it	cs
 8000440:	2404      	movcs	r4, #4
 8000442:	2d06      	cmp	r5, #6
 8000444:	f04f 0501 	mov.w	r5, #1
 8000448:	bf8c      	ite	hi
 800044a:	3b03      	subhi	r3, #3
 800044c:	2300      	movls	r3, #0
 800044e:	fa05 f404 	lsl.w	r4, r5, r4
 8000452:	fa05 f603 	lsl.w	r6, r5, r3
 8000456:	3c01      	subs	r4, #1
 8000458:	3e01      	subs	r6, #1
 800045a:	4021      	ands	r1, r4
 800045c:	4032      	ands	r2, r6
 800045e:	fa01 f303 	lsl.w	r3, r1, r3
 8000462:	4313      	orrs	r3, r2
 8000464:	2800      	cmp	r0, #0
 8000466:	ea4f 1303 	mov.w	r3, r3, lsl #4
 800046a:	da05      	bge.n	8000478 <HAL_NVIC_SetPriority+0x4c>
 800046c:	b2da      	uxtb	r2, r3
 800046e:	f000 000f 	and.w	r0, r0, #15
 8000472:	4b06      	ldr	r3, [pc, #24]	; (800048c <HAL_NVIC_SetPriority+0x60>)
 8000474:	541a      	strb	r2, [r3, r0]
 8000476:	bd70      	pop	{r4, r5, r6, pc}
 8000478:	f100 4060 	add.w	r0, r0, #3758096384	; 0xe0000000
 800047c:	f500 4061 	add.w	r0, r0, #57600	; 0xe100
 8000480:	b2db      	uxtb	r3, r3
 8000482:	f880 3300 	strb.w	r3, [r0, #768]	; 0x300
 8000486:	bd70      	pop	{r4, r5, r6, pc}
 8000488:	e000ed00 	.word	0xe000ed00
 800048c:	e000ed14 	.word	0xe000ed14

08000490 <HAL_NVIC_EnableIRQ>:
 8000490:	0942      	lsrs	r2, r0, #5
 8000492:	2301      	movs	r3, #1
 8000494:	f000 001f 	and.w	r0, r0, #31
 8000498:	fa03 f000 	lsl.w	r0, r3, r0
 800049c:	4b01      	ldr	r3, [pc, #4]	; (80004a4 <HAL_NVIC_EnableIRQ+0x14>)
 800049e:	f843 0022 	str.w	r0, [r3, r2, lsl #2]
 80004a2:	4770      	bx	lr
 80004a4:	e000e100 	.word	0xe000e100

080004a8 <HAL_NVIC_DisableIRQ>:
 80004a8:	0942      	lsrs	r2, r0, #5
 80004aa:	2301      	movs	r3, #1
 80004ac:	f000 001f 	and.w	r0, r0, #31
 80004b0:	fa03 f000 	lsl.w	r0, r3, r0
 80004b4:	3220      	adds	r2, #32
 80004b6:	4b02      	ldr	r3, [pc, #8]	; (80004c0 <HAL_NVIC_DisableIRQ+0x18>)
 80004b8:	f843 0022 	str.w	r0, [r3, r2, lsl #2]
 80004bc:	4770      	bx	lr
 80004be:	bf00      	nop
 80004c0:	e000e100 	.word	0xe000e100

080004c4 <HAL_NVIC_SystemReset>:
 80004c4:	f3bf 8f4f 	dsb	sy
 80004c8:	4a04      	ldr	r2, [pc, #16]	; (80004dc <HAL_NVIC_SystemReset+0x18>)
 80004ca:	4b05      	ldr	r3, [pc, #20]	; (80004e0 <HAL_NVIC_SystemReset+0x1c>)
 80004cc:	68d1      	ldr	r1, [r2, #12]
 80004ce:	f401 61e0 	and.w	r1, r1, #1792	; 0x700
 80004d2:	430b      	orrs	r3, r1
 80004d4:	60d3      	str	r3, [r2, #12]
 80004d6:	f3bf 8f4f 	dsb	sy
 80004da:	e7fe      	b.n	80004da <HAL_NVIC_SystemReset+0x16>
 80004dc:	e000ed00 	.word	0xe000ed00
 80004e0:	05fa0004 	.word	0x05fa0004

080004e4 <HAL_SYSTICK_Config>:
 80004e4:	3801      	subs	r0, #1
 80004e6:	f1b0 7f80 	cmp.w	r0, #16777216	; 0x1000000
 80004ea:	d20a      	bcs.n	8000502 <HAL_SYSTICK_Config+0x1e>
 80004ec:	4b06      	ldr	r3, [pc, #24]	; (8000508 <HAL_SYSTICK_Config+0x24>)
 80004ee:	4a07      	ldr	r2, [pc, #28]	; (800050c <HAL_SYSTICK_Config+0x28>)
 80004f0:	6058      	str	r0, [r3, #4]
 80004f2:	21f0      	movs	r1, #240	; 0xf0
 80004f4:	f882 1023 	strb.w	r1, [r2, #35]	; 0x23
 80004f8:	2000      	movs	r0, #0
 80004fa:	2207      	movs	r2, #7
 80004fc:	6098      	str	r0, [r3, #8]
 80004fe:	601a      	str	r2, [r3, #0]
 8000500:	4770      	bx	lr
 8000502:	2001      	movs	r0, #1
 8000504:	4770      	bx	lr
 8000506:	bf00      	nop
 8000508:	e000e010 	.word	0xe000e010
 800050c:	e000ed00 	.word	0xe000ed00

08000510 <HAL_NVIC_GetPriorityGrouping>:
 8000510:	4b02      	ldr	r3, [pc, #8]	; (800051c <HAL_NVIC_GetPriorityGrouping+0xc>)
 8000512:	68d8      	ldr	r0, [r3, #12]
 8000514:	f3c0 2002 	ubfx	r0, r0, #8, #3
 8000518:	4770      	bx	lr
 800051a:	bf00      	nop
 800051c:	e000ed00 	.word	0xe000ed00

08000520 <HAL_NVIC_GetPriority>:
 8000520:	2800      	cmp	r0, #0
 8000522:	b570      	push	{r4, r5, r6, lr}
 8000524:	da04      	bge.n	8000530 <HAL_NVIC_GetPriority+0x10>
 8000526:	f000 000f 	and.w	r0, r0, #15
 800052a:	4c12      	ldr	r4, [pc, #72]	; (8000574 <HAL_NVIC_GetPriority+0x54>)
 800052c:	5c20      	ldrb	r0, [r4, r0]
 800052e:	e005      	b.n	800053c <HAL_NVIC_GetPriority+0x1c>
 8000530:	f100 4060 	add.w	r0, r0, #3758096384	; 0xe0000000
 8000534:	f500 4061 	add.w	r0, r0, #57600	; 0xe100
 8000538:	f890 0300 	ldrb.w	r0, [r0, #768]	; 0x300
 800053c:	f001 0107 	and.w	r1, r1, #7
 8000540:	1d0d      	adds	r5, r1, #4
 8000542:	f1c1 0407 	rsb	r4, r1, #7
 8000546:	2c04      	cmp	r4, #4
 8000548:	bf28      	it	cs
 800054a:	2404      	movcs	r4, #4
 800054c:	2d06      	cmp	r5, #6
 800054e:	ea4f 1010 	mov.w	r0, r0, lsr #4
 8000552:	bf8c      	ite	hi
 8000554:	3903      	subhi	r1, #3
 8000556:	2100      	movls	r1, #0
 8000558:	2501      	movs	r5, #1
 800055a:	fa20 f601 	lsr.w	r6, r0, r1
 800055e:	fa05 f404 	lsl.w	r4, r5, r4
 8000562:	fa05 f101 	lsl.w	r1, r5, r1
 8000566:	3c01      	subs	r4, #1
 8000568:	3901      	subs	r1, #1
 800056a:	4034      	ands	r4, r6
 800056c:	4008      	ands	r0, r1
 800056e:	6014      	str	r4, [r2, #0]
 8000570:	6018      	str	r0, [r3, #0]
 8000572:	bd70      	pop	{r4, r5, r6, pc}
 8000574:	e000ed14 	.word	0xe000ed14

08000578 <HAL_NVIC_SetPendingIRQ>:
 8000578:	0942      	lsrs	r2, r0, #5
 800057a:	2301      	movs	r3, #1
 800057c:	f000 001f 	and.w	r0, r0, #31
 8000580:	fa03 f000 	lsl.w	r0, r3, r0
 8000584:	3240      	adds	r2, #64	; 0x40
 8000586:	4b02      	ldr	r3, [pc, #8]	; (8000590 <HAL_NVIC_SetPendingIRQ+0x18>)
 8000588:	f843 0022 	str.w	r0, [r3, r2, lsl #2]
 800058c:	4770      	bx	lr
 800058e:	bf00      	nop
 8000590:	e000e100 	.word	0xe000e100

08000594 <HAL_NVIC_GetPendingIRQ>:
 8000594:	0942      	lsrs	r2, r0, #5
 8000596:	3240      	adds	r2, #64	; 0x40
 8000598:	4b06      	ldr	r3, [pc, #24]	; (80005b4 <HAL_NVIC_GetPendingIRQ+0x20>)
 800059a:	f000 001f 	and.w	r0, r0, #31
 800059e:	f853 3022 	ldr.w	r3, [r3, r2, lsl #2]
 80005a2:	2201      	movs	r2, #1
 80005a4:	fa02 f000 	lsl.w	r0, r2, r0
 80005a8:	4218      	tst	r0, r3
 80005aa:	bf0c      	ite	eq
 80005ac:	2000      	moveq	r0, #0
 80005ae:	2001      	movne	r0, #1
 80005b0:	4770      	bx	lr
 80005b2:	bf00      	nop
 80005b4:	e000e100 	.word	0xe000e100

080005b8 <HAL_NVIC_ClearPendingIRQ>:
 80005b8:	0942      	lsrs	r2, r0, #5
 80005ba:	2301      	movs	r3, #1
 80005bc:	f000 001f 	and.w	r0, r0, #31
 80005c0:	fa03 f000 	lsl.w	r0, r3, r0
 80005c4:	3260      	adds	r2, #96	; 0x60
 80005c6:	4b02      	ldr	r3, [pc, #8]	; (80005d0 <HAL_NVIC_ClearPendingIRQ+0x18>)
 80005c8:	f843 0022 	str.w	r0, [r3, r2, lsl #2]
 80005cc:	4770      	bx	lr
 80005ce:	bf00      	nop
 80005d0:	e000e100 	.word	0xe000e100

080005d4 <HAL_NVIC_GetActive>:
 80005d4:	0942      	lsrs	r2, r0, #5
 80005d6:	3280      	adds	r2, #128	; 0x80
 80005d8:	4b06      	ldr	r3, [pc, #24]	; (80005f4 <HAL_NVIC_GetActive+0x20>)
 80005da:	f000 001f 	and.w	r0, r0, #31
 80005de:	f853 3022 	ldr.w	r3, [r3, r2, lsl #2]
 80005e2:	2201      	movs	r2, #1
 80005e4:	fa02 f000 	lsl.w	r0, r2, r0
 80005e8:	4218      	tst	r0, r3
 80005ea:	bf0c      	ite	eq
 80005ec:	2000      	moveq	r0, #0
 80005ee:	2001      	movne	r0, #1
 80005f0:	4770      	bx	lr
 80005f2:	bf00      	nop
 80005f4:	e000e100 	.word	0xe000e100

080005f8 <HAL_SYSTICK_CLKSourceConfig>:
 80005f8:	4b04      	ldr	r3, [pc, #16]	; (800060c <HAL_SYSTICK_CLKSourceConfig+0x14>)
 80005fa:	681a      	ldr	r2, [r3, #0]
 80005fc:	2804      	cmp	r0, #4
 80005fe:	bf0c      	ite	eq
 8000600:	f042 0204 	orreq.w	r2, r2, #4
 8000604:	f022 0204 	bicne.w	r2, r2, #4
 8000608:	601a      	str	r2, [r3, #0]
 800060a:	4770      	bx	lr
 800060c:	e000e010 	.word	0xe000e010

08000610 <HAL_SYSTICK_Callback>:
 8000610:	4770      	bx	lr

08000612 <HAL_SYSTICK_IRQHandler>:
 8000612:	b508      	push	{r3, lr}
 8000614:	f7ff fffc 	bl	8000610 <HAL_SYSTICK_Callback>
 8000618:	bd08      	pop	{r3, pc}
 800061a:	bf00      	nop

0800061c <HAL_DMA_Init>:
 800061c:	b530      	push	{r4, r5, lr}
 800061e:	2800      	cmp	r0, #0
 8000620:	d02f      	beq.n	8000682 <HAL_DMA_Init+0x66>
 8000622:	2302      	movs	r3, #2
 8000624:	f880 3035 	strb.w	r3, [r0, #53]	; 0x35
 8000628:	6803      	ldr	r3, [r0, #0]
 800062a:	4917      	ldr	r1, [pc, #92]	; (8000688 <HAL_DMA_Init+0x6c>)
 800062c:	681a      	ldr	r2, [r3, #0]
 800062e:	6884      	ldr	r4, [r0, #8]
 8000630:	4011      	ands	r1, r2
 8000632:	6842      	ldr	r2, [r0, #4]
 8000634:	4314      	orrs	r4, r2
 8000636:	68c2      	ldr	r2, [r0, #12]
 8000638:	4314      	orrs	r4, r2
 800063a:	6902      	ldr	r2, [r0, #16]
 800063c:	4314      	orrs	r4, r2
 800063e:	6942      	ldr	r2, [r0, #20]
 8000640:	4314      	orrs	r4, r2
 8000642:	6982      	ldr	r2, [r0, #24]
 8000644:	4314      	orrs	r4, r2
 8000646:	69c2      	ldr	r2, [r0, #28]
 8000648:	4322      	orrs	r2, r4
 800064a:	6a04      	ldr	r4, [r0, #32]
 800064c:	4322      	orrs	r2, r4
 800064e:	430a      	orrs	r2, r1
 8000650:	6a41      	ldr	r1, [r0, #36]	; 0x24
 8000652:	2904      	cmp	r1, #4
 8000654:	d103      	bne.n	800065e <HAL_DMA_Init+0x42>
 8000656:	6b05      	ldr	r5, [r0, #48]	; 0x30
 8000658:	6ac4      	ldr	r4, [r0, #44]	; 0x2c
 800065a:	432c      	orrs	r4, r5
 800065c:	4322      	orrs	r2, r4
 800065e:	601a      	str	r2, [r3, #0]
 8000660:	695a      	ldr	r2, [r3, #20]
 8000662:	2904      	cmp	r1, #4
 8000664:	f022 0207 	bic.w	r2, r2, #7
 8000668:	ea42 0201 	orr.w	r2, r2, r1
 800066c:	bf04      	itt	eq
 800066e:	6a81      	ldreq	r1, [r0, #40]	; 0x28
 8000670:	430a      	orreq	r2, r1
 8000672:	615a      	str	r2, [r3, #20]
 8000674:	2300      	movs	r3, #0
 8000676:	2201      	movs	r2, #1
 8000678:	64c3      	str	r3, [r0, #76]	; 0x4c
 800067a:	f880 2035 	strb.w	r2, [r0, #53]	; 0x35
 800067e:	4618      	mov	r0, r3
 8000680:	bd30      	pop	{r4, r5, pc}
 8000682:	2001      	movs	r0, #1
 8000684:	bd30      	pop	{r4, r5, pc}
 8000686:	bf00      	nop
 8000688:	f010803f 	.word	0xf010803f

0800068c <HAL_DMA_DeInit>:
 800068c:	2800      	cmp	r0, #0
 800068e:	f000 81c7 	beq.w	8000a20 <HAL_DMA_DeInit+0x394>
 8000692:	f890 3035 	ldrb.w	r3, [r0, #53]	; 0x35
 8000696:	2b02      	cmp	r3, #2
 8000698:	f000 81c2 	beq.w	8000a20 <HAL_DMA_DeInit+0x394>
 800069c:	6803      	ldr	r3, [r0, #0]
 800069e:	681a      	ldr	r2, [r3, #0]
 80006a0:	f022 0201 	bic.w	r2, r2, #1
 80006a4:	601a      	str	r2, [r3, #0]
 80006a6:	2200      	movs	r2, #0
 80006a8:	601a      	str	r2, [r3, #0]
 80006aa:	605a      	str	r2, [r3, #4]
 80006ac:	609a      	str	r2, [r3, #8]
 80006ae:	60da      	str	r2, [r3, #12]
 80006b0:	611a      	str	r2, [r3, #16]
 80006b2:	2221      	movs	r2, #33	; 0x21
 80006b4:	615a      	str	r2, [r3, #20]
 80006b6:	4aae      	ldr	r2, [pc, #696]	; (8000970 <HAL_DMA_DeInit+0x2e4>)
 80006b8:	4293      	cmp	r3, r2
 80006ba:	d918      	bls.n	80006ee <HAL_DMA_DeInit+0x62>
 80006bc:	3218      	adds	r2, #24
 80006be:	4293      	cmp	r3, r2
 80006c0:	d00a      	beq.n	80006d8 <HAL_DMA_DeInit+0x4c>
 80006c2:	3218      	adds	r2, #24
 80006c4:	4293      	cmp	r3, r2
 80006c6:	d009      	beq.n	80006dc <HAL_DMA_DeInit+0x50>
 80006c8:	3218      	adds	r2, #24
 80006ca:	4293      	cmp	r3, r2
 80006cc:	bf14      	ite	ne
 80006ce:	f04f 7280 	movne.w	r2, #16777216	; 0x1000000
 80006d2:	f44f 2280 	moveq.w	r2, #262144	; 0x40000
 80006d6:	e003      	b.n	80006e0 <HAL_DMA_DeInit+0x54>
 80006d8:	4aa6      	ldr	r2, [pc, #664]	; (8000974 <HAL_DMA_DeInit+0x2e8>)
 80006da:	e001      	b.n	80006e0 <HAL_DMA_DeInit+0x54>
 80006dc:	f44f 7280 	mov.w	r2, #256	; 0x100
 80006e0:	49a5      	ldr	r1, [pc, #660]	; (8000978 <HAL_DMA_DeInit+0x2ec>)
 80006e2:	60ca      	str	r2, [r1, #12]
 80006e4:	4aa5      	ldr	r2, [pc, #660]	; (800097c <HAL_DMA_DeInit+0x2f0>)
 80006e6:	4293      	cmp	r3, r2
 80006e8:	d153      	bne.n	8000792 <HAL_DMA_DeInit+0x106>
 80006ea:	2220      	movs	r2, #32
 80006ec:	e05e      	b.n	80007ac <HAL_DMA_DeInit+0x120>
 80006ee:	4aa4      	ldr	r2, [pc, #656]	; (8000980 <HAL_DMA_DeInit+0x2f4>)
 80006f0:	4293      	cmp	r3, r2
 80006f2:	d919      	bls.n	8000728 <HAL_DMA_DeInit+0x9c>
 80006f4:	f502 7256 	add.w	r2, r2, #856	; 0x358
 80006f8:	4293      	cmp	r3, r2
 80006fa:	d00a      	beq.n	8000712 <HAL_DMA_DeInit+0x86>
 80006fc:	3218      	adds	r2, #24
 80006fe:	4293      	cmp	r3, r2
 8000700:	d009      	beq.n	8000716 <HAL_DMA_DeInit+0x8a>
 8000702:	3218      	adds	r2, #24
 8000704:	4293      	cmp	r3, r2
 8000706:	bf14      	ite	ne
 8000708:	f04f 7280 	movne.w	r2, #16777216	; 0x1000000
 800070c:	f44f 2280 	moveq.w	r2, #262144	; 0x40000
 8000710:	e003      	b.n	800071a <HAL_DMA_DeInit+0x8e>
 8000712:	4a98      	ldr	r2, [pc, #608]	; (8000974 <HAL_DMA_DeInit+0x2e8>)
 8000714:	e001      	b.n	800071a <HAL_DMA_DeInit+0x8e>
 8000716:	f44f 7280 	mov.w	r2, #256	; 0x100
 800071a:	4997      	ldr	r1, [pc, #604]	; (8000978 <HAL_DMA_DeInit+0x2ec>)
 800071c:	608a      	str	r2, [r1, #8]
 800071e:	4a99      	ldr	r2, [pc, #612]	; (8000984 <HAL_DMA_DeInit+0x2f8>)
 8000720:	4293      	cmp	r3, r2
 8000722:	d149      	bne.n	80007b8 <HAL_DMA_DeInit+0x12c>
 8000724:	2220      	movs	r2, #32
 8000726:	e054      	b.n	80007d2 <HAL_DMA_DeInit+0x146>
 8000728:	4a97      	ldr	r2, [pc, #604]	; (8000988 <HAL_DMA_DeInit+0x2fc>)
 800072a:	4293      	cmp	r3, r2
 800072c:	d918      	bls.n	8000760 <HAL_DMA_DeInit+0xd4>
 800072e:	3218      	adds	r2, #24
 8000730:	4293      	cmp	r3, r2
 8000732:	d00a      	beq.n	800074a <HAL_DMA_DeInit+0xbe>
 8000734:	3218      	adds	r2, #24
 8000736:	4293      	cmp	r3, r2
 8000738:	d009      	beq.n	800074e <HAL_DMA_DeInit+0xc2>
 800073a:	3218      	adds	r2, #24
 800073c:	4293      	cmp	r3, r2
 800073e:	bf14      	ite	ne
 8000740:	f04f 7280 	movne.w	r2, #16777216	; 0x1000000
 8000744:	f44f 2280 	moveq.w	r2, #262144	; 0x40000
 8000748:	e003      	b.n	8000752 <HAL_DMA_DeInit+0xc6>
 800074a:	4a8a      	ldr	r2, [pc, #552]	; (8000974 <HAL_DMA_DeInit+0x2e8>)
 800074c:	e001      	b.n	8000752 <HAL_DMA_DeInit+0xc6>
 800074e:	f44f 7280 	mov.w	r2, #256	; 0x100
 8000752:	498e      	ldr	r1, [pc, #568]	; (800098c <HAL_DMA_DeInit+0x300>)
 8000754:	60ca      	str	r2, [r1, #12]
 8000756:	4a8e      	ldr	r2, [pc, #568]	; (8000990 <HAL_DMA_DeInit+0x304>)
 8000758:	4293      	cmp	r3, r2
 800075a:	d140      	bne.n	80007de <HAL_DMA_DeInit+0x152>
 800075c:	2220      	movs	r2, #32
 800075e:	e04b      	b.n	80007f8 <HAL_DMA_DeInit+0x16c>
 8000760:	4a8c      	ldr	r2, [pc, #560]	; (8000994 <HAL_DMA_DeInit+0x308>)
 8000762:	4293      	cmp	r3, r2
 8000764:	d00a      	beq.n	800077c <HAL_DMA_DeInit+0xf0>
 8000766:	3218      	adds	r2, #24
 8000768:	4293      	cmp	r3, r2
 800076a:	d009      	beq.n	8000780 <HAL_DMA_DeInit+0xf4>
 800076c:	3218      	adds	r2, #24
 800076e:	4293      	cmp	r3, r2
 8000770:	bf14      	ite	ne
 8000772:	f04f 7280 	movne.w	r2, #16777216	; 0x1000000
 8000776:	f44f 2280 	moveq.w	r2, #262144	; 0x40000
 800077a:	e003      	b.n	8000784 <HAL_DMA_DeInit+0xf8>
 800077c:	4a7d      	ldr	r2, [pc, #500]	; (8000974 <HAL_DMA_DeInit+0x2e8>)
 800077e:	e001      	b.n	8000784 <HAL_DMA_DeInit+0xf8>
 8000780:	f44f 7280 	mov.w	r2, #256	; 0x100
 8000784:	4981      	ldr	r1, [pc, #516]	; (800098c <HAL_DMA_DeInit+0x300>)
 8000786:	608a      	str	r2, [r1, #8]
 8000788:	4a82      	ldr	r2, [pc, #520]	; (8000994 <HAL_DMA_DeInit+0x308>)
 800078a:	4293      	cmp	r3, r2
 800078c:	d13a      	bne.n	8000804 <HAL_DMA_DeInit+0x178>
 800078e:	2220      	movs	r2, #32
 8000790:	e045      	b.n	800081e <HAL_DMA_DeInit+0x192>
 8000792:	4a81      	ldr	r2, [pc, #516]	; (8000998 <HAL_DMA_DeInit+0x30c>)
 8000794:	4293      	cmp	r3, r2
 8000796:	d007      	beq.n	80007a8 <HAL_DMA_DeInit+0x11c>
 8000798:	3218      	adds	r2, #24
 800079a:	4293      	cmp	r3, r2
 800079c:	bf14      	ite	ne
 800079e:	f04f 6200 	movne.w	r2, #134217728	; 0x8000000
 80007a2:	f44f 1200 	moveq.w	r2, #2097152	; 0x200000
 80007a6:	e001      	b.n	80007ac <HAL_DMA_DeInit+0x120>
 80007a8:	f44f 6200 	mov.w	r2, #2048	; 0x800
 80007ac:	60ca      	str	r2, [r1, #12]
 80007ae:	4a73      	ldr	r2, [pc, #460]	; (800097c <HAL_DMA_DeInit+0x2f0>)
 80007b0:	4293      	cmp	r3, r2
 80007b2:	d13a      	bne.n	800082a <HAL_DMA_DeInit+0x19e>
 80007b4:	2208      	movs	r2, #8
 80007b6:	e045      	b.n	8000844 <HAL_DMA_DeInit+0x1b8>
 80007b8:	4a78      	ldr	r2, [pc, #480]	; (800099c <HAL_DMA_DeInit+0x310>)
 80007ba:	4293      	cmp	r3, r2
 80007bc:	d007      	beq.n	80007ce <HAL_DMA_DeInit+0x142>
 80007be:	3218      	adds	r2, #24
 80007c0:	4293      	cmp	r3, r2
 80007c2:	bf14      	ite	ne
 80007c4:	f04f 6200 	movne.w	r2, #134217728	; 0x8000000
 80007c8:	f44f 1200 	moveq.w	r2, #2097152	; 0x200000
 80007cc:	e001      	b.n	80007d2 <HAL_DMA_DeInit+0x146>
 80007ce:	f44f 6200 	mov.w	r2, #2048	; 0x800
 80007d2:	608a      	str	r2, [r1, #8]
 80007d4:	4a6b      	ldr	r2, [pc, #428]	; (8000984 <HAL_DMA_DeInit+0x2f8>)
 80007d6:	4293      	cmp	r3, r2
 80007d8:	d13b      	bne.n	8000852 <HAL_DMA_DeInit+0x1c6>
 80007da:	2208      	movs	r2, #8
 80007dc:	e046      	b.n	800086c <HAL_DMA_DeInit+0x1e0>
 80007de:	4a70      	ldr	r2, [pc, #448]	; (80009a0 <HAL_DMA_DeInit+0x314>)
 80007e0:	4293      	cmp	r3, r2
 80007e2:	d007      	beq.n	80007f4 <HAL_DMA_DeInit+0x168>
 80007e4:	3218      	adds	r2, #24
 80007e6:	4293      	cmp	r3, r2
 80007e8:	bf14      	ite	ne
 80007ea:	f04f 6200 	movne.w	r2, #134217728	; 0x8000000
 80007ee:	f44f 1200 	moveq.w	r2, #2097152	; 0x200000
 80007f2:	e001      	b.n	80007f8 <HAL_DMA_DeInit+0x16c>
 80007f4:	f44f 6200 	mov.w	r2, #2048	; 0x800
 80007f8:	60ca      	str	r2, [r1, #12]
 80007fa:	4a65      	ldr	r2, [pc, #404]	; (8000990 <HAL_DMA_DeInit+0x304>)
 80007fc:	4293      	cmp	r3, r2
 80007fe:	d13c      	bne.n	800087a <HAL_DMA_DeInit+0x1ee>
 8000800:	2208      	movs	r2, #8
 8000802:	e047      	b.n	8000894 <HAL_DMA_DeInit+0x208>
 8000804:	4a67      	ldr	r2, [pc, #412]	; (80009a4 <HAL_DMA_DeInit+0x318>)
 8000806:	4293      	cmp	r3, r2
 8000808:	d007      	beq.n	800081a <HAL_DMA_DeInit+0x18e>
 800080a:	3218      	adds	r2, #24
 800080c:	4293      	cmp	r3, r2
 800080e:	bf14      	ite	ne
 8000810:	f04f 6200 	movne.w	r2, #134217728	; 0x8000000
 8000814:	f44f 1200 	moveq.w	r2, #2097152	; 0x200000
 8000818:	e001      	b.n	800081e <HAL_DMA_DeInit+0x192>
 800081a:	f44f 6200 	mov.w	r2, #2048	; 0x800
 800081e:	608a      	str	r2, [r1, #8]
 8000820:	4a5c      	ldr	r2, [pc, #368]	; (8000994 <HAL_DMA_DeInit+0x308>)
 8000822:	4293      	cmp	r3, r2
 8000824:	d13d      	bne.n	80008a2 <HAL_DMA_DeInit+0x216>
 8000826:	2208      	movs	r2, #8
 8000828:	e048      	b.n	80008bc <HAL_DMA_DeInit+0x230>
 800082a:	4a5b      	ldr	r2, [pc, #364]	; (8000998 <HAL_DMA_DeInit+0x30c>)
 800082c:	4293      	cmp	r3, r2
 800082e:	d007      	beq.n	8000840 <HAL_DMA_DeInit+0x1b4>
 8000830:	3218      	adds	r2, #24
 8000832:	4293      	cmp	r3, r2
 8000834:	bf14      	ite	ne
 8000836:	f04f 7200 	movne.w	r2, #33554432	; 0x2000000
 800083a:	f44f 2200 	moveq.w	r2, #524288	; 0x80000
 800083e:	e001      	b.n	8000844 <HAL_DMA_DeInit+0x1b8>
 8000840:	f44f 7200 	mov.w	r2, #512	; 0x200
 8000844:	494c      	ldr	r1, [pc, #304]	; (8000978 <HAL_DMA_DeInit+0x2ec>)
 8000846:	60ca      	str	r2, [r1, #12]
 8000848:	4a4c      	ldr	r2, [pc, #304]	; (800097c <HAL_DMA_DeInit+0x2f0>)
 800084a:	4293      	cmp	r3, r2
 800084c:	d13d      	bne.n	80008ca <HAL_DMA_DeInit+0x23e>
 800084e:	4a56      	ldr	r2, [pc, #344]	; (80009a8 <HAL_DMA_DeInit+0x31c>)
 8000850:	e047      	b.n	80008e2 <HAL_DMA_DeInit+0x256>
 8000852:	4a52      	ldr	r2, [pc, #328]	; (800099c <HAL_DMA_DeInit+0x310>)
 8000854:	4293      	cmp	r3, r2
 8000856:	d007      	beq.n	8000868 <HAL_DMA_DeInit+0x1dc>
 8000858:	3218      	adds	r2, #24
 800085a:	4293      	cmp	r3, r2
 800085c:	bf14      	ite	ne
 800085e:	f04f 7200 	movne.w	r2, #33554432	; 0x2000000
 8000862:	f44f 2200 	moveq.w	r2, #524288	; 0x80000
 8000866:	e001      	b.n	800086c <HAL_DMA_DeInit+0x1e0>
 8000868:	f44f 7200 	mov.w	r2, #512	; 0x200
 800086c:	4942      	ldr	r1, [pc, #264]	; (8000978 <HAL_DMA_DeInit+0x2ec>)
 800086e:	608a      	str	r2, [r1, #8]
 8000870:	4a44      	ldr	r2, [pc, #272]	; (8000984 <HAL_DMA_DeInit+0x2f8>)
 8000872:	4293      	cmp	r3, r2
 8000874:	d13b      	bne.n	80008ee <HAL_DMA_DeInit+0x262>
 8000876:	4a4c      	ldr	r2, [pc, #304]	; (80009a8 <HAL_DMA_DeInit+0x31c>)
 8000878:	e045      	b.n	8000906 <HAL_DMA_DeInit+0x27a>
 800087a:	4a49      	ldr	r2, [pc, #292]	; (80009a0 <HAL_DMA_DeInit+0x314>)
 800087c:	4293      	cmp	r3, r2
 800087e:	d007      	beq.n	8000890 <HAL_DMA_DeInit+0x204>
 8000880:	3218      	adds	r2, #24
 8000882:	4293      	cmp	r3, r2
 8000884:	bf14      	ite	ne
 8000886:	f04f 7200 	movne.w	r2, #33554432	; 0x2000000
 800088a:	f44f 2200 	moveq.w	r2, #524288	; 0x80000
 800088e:	e001      	b.n	8000894 <HAL_DMA_DeInit+0x208>
 8000890:	f44f 7200 	mov.w	r2, #512	; 0x200
 8000894:	493d      	ldr	r1, [pc, #244]	; (800098c <HAL_DMA_DeInit+0x300>)
 8000896:	60ca      	str	r2, [r1, #12]
 8000898:	4a3d      	ldr	r2, [pc, #244]	; (8000990 <HAL_DMA_DeInit+0x304>)
 800089a:	4293      	cmp	r3, r2
 800089c:	d139      	bne.n	8000912 <HAL_DMA_DeInit+0x286>
 800089e:	4a42      	ldr	r2, [pc, #264]	; (80009a8 <HAL_DMA_DeInit+0x31c>)
 80008a0:	e043      	b.n	800092a <HAL_DMA_DeInit+0x29e>
 80008a2:	4a40      	ldr	r2, [pc, #256]	; (80009a4 <HAL_DMA_DeInit+0x318>)
 80008a4:	4293      	cmp	r3, r2
 80008a6:	d007      	beq.n	80008b8 <HAL_DMA_DeInit+0x22c>
 80008a8:	3218      	adds	r2, #24
 80008aa:	4293      	cmp	r3, r2
 80008ac:	bf14      	ite	ne
 80008ae:	f04f 7200 	movne.w	r2, #33554432	; 0x2000000
 80008b2:	f44f 2200 	moveq.w	r2, #524288	; 0x80000
 80008b6:	e001      	b.n	80008bc <HAL_DMA_DeInit+0x230>
 80008b8:	f44f 7200 	mov.w	r2, #512	; 0x200
 80008bc:	4933      	ldr	r1, [pc, #204]	; (800098c <HAL_DMA_DeInit+0x300>)
 80008be:	608a      	str	r2, [r1, #8]
 80008c0:	4a34      	ldr	r2, [pc, #208]	; (8000994 <HAL_DMA_DeInit+0x308>)
 80008c2:	4293      	cmp	r3, r2
 80008c4:	d137      	bne.n	8000936 <HAL_DMA_DeInit+0x2aa>
 80008c6:	4a38      	ldr	r2, [pc, #224]	; (80009a8 <HAL_DMA_DeInit+0x31c>)
 80008c8:	e041      	b.n	800094e <HAL_DMA_DeInit+0x2c2>
 80008ca:	4a33      	ldr	r2, [pc, #204]	; (8000998 <HAL_DMA_DeInit+0x30c>)
 80008cc:	4293      	cmp	r3, r2
 80008ce:	d007      	beq.n	80008e0 <HAL_DMA_DeInit+0x254>
 80008d0:	3218      	adds	r2, #24
 80008d2:	4293      	cmp	r3, r2
 80008d4:	bf14      	ite	ne
 80008d6:	f44f 0280 	movne.w	r2, #4194304	; 0x400000
 80008da:	f44f 3280 	moveq.w	r2, #65536	; 0x10000
 80008de:	e000      	b.n	80008e2 <HAL_DMA_DeInit+0x256>
 80008e0:	2240      	movs	r2, #64	; 0x40
 80008e2:	60ca      	str	r2, [r1, #12]
 80008e4:	4a25      	ldr	r2, [pc, #148]	; (800097c <HAL_DMA_DeInit+0x2f0>)
 80008e6:	4293      	cmp	r3, r2
 80008e8:	d137      	bne.n	800095a <HAL_DMA_DeInit+0x2ce>
 80008ea:	2310      	movs	r3, #16
 80008ec:	e060      	b.n	80009b0 <HAL_DMA_DeInit+0x324>
 80008ee:	4a2b      	ldr	r2, [pc, #172]	; (800099c <HAL_DMA_DeInit+0x310>)
 80008f0:	4293      	cmp	r3, r2
 80008f2:	d007      	beq.n	8000904 <HAL_DMA_DeInit+0x278>
 80008f4:	3218      	adds	r2, #24
 80008f6:	4293      	cmp	r3, r2
 80008f8:	bf14      	ite	ne
 80008fa:	f44f 0280 	movne.w	r2, #4194304	; 0x400000
 80008fe:	f44f 3280 	moveq.w	r2, #65536	; 0x10000
 8000902:	e000      	b.n	8000906 <HAL_DMA_DeInit+0x27a>
 8000904:	2240      	movs	r2, #64	; 0x40
 8000906:	608a      	str	r2, [r1, #8]
 8000908:	4a1e      	ldr	r2, [pc, #120]	; (8000984 <HAL_DMA_DeInit+0x2f8>)
 800090a:	4293      	cmp	r3, r2
 800090c:	d152      	bne.n	80009b4 <HAL_DMA_DeInit+0x328>
 800090e:	2310      	movs	r3, #16
 8000910:	e05d      	b.n	80009ce <HAL_DMA_DeInit+0x342>
 8000912:	4a23      	ldr	r2, [pc, #140]	; (80009a0 <HAL_DMA_DeInit+0x314>)
 8000914:	4293      	cmp	r3, r2
 8000916:	d007      	beq.n	8000928 <HAL_DMA_DeInit+0x29c>
 8000918:	3218      	adds	r2, #24
 800091a:	4293      	cmp	r3, r2
 800091c:	bf14      	ite	ne
 800091e:	f44f 0280 	movne.w	r2, #4194304	; 0x400000
 8000922:	f44f 3280 	moveq.w	r2, #65536	; 0x10000
 8000926:	e000      	b.n	800092a <HAL_DMA_DeInit+0x29e>
 8000928:	2240      	movs	r2, #64	; 0x40
 800092a:	60ca      	str	r2, [r1, #12]
 800092c:	4a18      	ldr	r2, [pc, #96]	; (8000990 <HAL_DMA_DeInit+0x304>)
 800092e:	4293      	cmp	r3, r2
 8000930:	d14f      	bne.n	80009d2 <HAL_DMA_DeInit+0x346>
 8000932:	2310      	movs	r3, #16
 8000934:	e05a      	b.n	80009ec <HAL_DMA_DeInit+0x360>
 8000936:	4a1b      	ldr	r2, [pc, #108]	; (80009a4 <HAL_DMA_DeInit+0x318>)
 8000938:	4293      	cmp	r3, r2
 800093a:	d007      	beq.n	800094c <HAL_DMA_DeInit+0x2c0>
 800093c:	3218      	adds	r2, #24
 800093e:	4293      	cmp	r3, r2
 8000940:	bf14      	ite	ne
 8000942:	f44f 0280 	movne.w	r2, #4194304	; 0x400000
 8000946:	f44f 3280 	moveq.w	r2, #65536	; 0x10000
 800094a:	e000      	b.n	800094e <HAL_DMA_DeInit+0x2c2>
 800094c:	2240      	movs	r2, #64	; 0x40
 800094e:	608a      	str	r2, [r1, #8]
 8000950:	4a10      	ldr	r2, [pc, #64]	; (8000994 <HAL_DMA_DeInit+0x308>)
 8000952:	4293      	cmp	r3, r2
 8000954:	d14d      	bne.n	80009f2 <HAL_DMA_DeInit+0x366>
 8000956:	2310      	movs	r3, #16
 8000958:	e058      	b.n	8000a0c <HAL_DMA_DeInit+0x380>
 800095a:	4a0f      	ldr	r2, [pc, #60]	; (8000998 <HAL_DMA_DeInit+0x30c>)
 800095c:	4293      	cmp	r3, r2
 800095e:	d025      	beq.n	80009ac <HAL_DMA_DeInit+0x320>
 8000960:	3218      	adds	r2, #24
 8000962:	4293      	cmp	r3, r2
 8000964:	bf14      	ite	ne
 8000966:	f04f 6380 	movne.w	r3, #67108864	; 0x4000000
 800096a:	f44f 1380 	moveq.w	r3, #1048576	; 0x100000
 800096e:	e01f      	b.n	80009b0 <HAL_DMA_DeInit+0x324>
 8000970:	40026458 	.word	0x40026458
 8000974:	00800004 	.word	0x00800004
 8000978:	40026400 	.word	0x40026400
 800097c:	40026470 	.word	0x40026470
 8000980:	400260b8 	.word	0x400260b8
 8000984:	40026410 	.word	0x40026410
 8000988:	40026058 	.word	0x40026058
 800098c:	40026000 	.word	0x40026000
 8000990:	40026070 	.word	0x40026070
 8000994:	40026010 	.word	0x40026010
 8000998:	40026488 	.word	0x40026488
 800099c:	40026428 	.word	0x40026428
 80009a0:	40026088 	.word	0x40026088
 80009a4:	40026028 	.word	0x40026028
 80009a8:	00800001 	.word	0x00800001
 80009ac:	f44f 6380 	mov.w	r3, #1024	; 0x400
 80009b0:	4a1c      	ldr	r2, [pc, #112]	; (8000a24 <HAL_DMA_DeInit+0x398>)
 80009b2:	e01c      	b.n	80009ee <HAL_DMA_DeInit+0x362>
 80009b4:	4a1c      	ldr	r2, [pc, #112]	; (8000a28 <HAL_DMA_DeInit+0x39c>)
 80009b6:	4293      	cmp	r3, r2
 80009b8:	d007      	beq.n	80009ca <HAL_DMA_DeInit+0x33e>
 80009ba:	3218      	adds	r2, #24
 80009bc:	4293      	cmp	r3, r2
 80009be:	bf14      	ite	ne
 80009c0:	f04f 6380 	movne.w	r3, #67108864	; 0x4000000
 80009c4:	f44f 1380 	moveq.w	r3, #1048576	; 0x100000
 80009c8:	e001      	b.n	80009ce <HAL_DMA_DeInit+0x342>
 80009ca:	f44f 6380 	mov.w	r3, #1024	; 0x400
 80009ce:	4a15      	ldr	r2, [pc, #84]	; (8000a24 <HAL_DMA_DeInit+0x398>)
 80009d0:	e01d      	b.n	8000a0e <HAL_DMA_DeInit+0x382>
 80009d2:	4a16      	ldr	r2, [pc, #88]	; (8000a2c <HAL_DMA_DeInit+0x3a0>)
 80009d4:	4293      	cmp	r3, r2
 80009d6:	d007      	beq.n	80009e8 <HAL_DMA_DeInit+0x35c>
 80009d8:	3218      	adds	r2, #24
 80009da:	4293      	cmp	r3, r2
 80009dc:	bf14      	ite	ne
 80009de:	f04f 6380 	movne.w	r3, #67108864	; 0x4000000
 80009e2:	f44f 1380 	moveq.w	r3, #1048576	; 0x100000
 80009e6:	e001      	b.n	80009ec <HAL_DMA_DeInit+0x360>
 80009e8:	f44f 6380 	mov.w	r3, #1024	; 0x400
 80009ec:	4a10      	ldr	r2, [pc, #64]	; (8000a30 <HAL_DMA_DeInit+0x3a4>)
 80009ee:	60d3      	str	r3, [r2, #12]
 80009f0:	e00e      	b.n	8000a10 <HAL_DMA_DeInit+0x384>
 80009f2:	4a10      	ldr	r2, [pc, #64]	; (8000a34 <HAL_DMA_DeInit+0x3a8>)
 80009f4:	4293      	cmp	r3, r2
 80009f6:	d007      	beq.n	8000a08 <HAL_DMA_DeInit+0x37c>
 80009f8:	3218      	adds	r2, #24
 80009fa:	4293      	cmp	r3, r2
 80009fc:	bf14      	ite	ne
 80009fe:	f04f 6380 	movne.w	r3, #67108864	; 0x4000000
 8000a02:	f44f 1380 	moveq.w	r3, #1048576	; 0x100000
 8000a06:	e001      	b.n	8000a0c <HAL_DMA_DeInit+0x380>
 8000a08:	f44f 6380 	mov.w	r3, #1024	; 0x400
 8000a0c:	4a08      	ldr	r2, [pc, #32]	; (8000a30 <HAL_DMA_DeInit+0x3a4>)
 8000a0e:	6093      	str	r3, [r2, #8]
 8000a10:	2300      	movs	r3, #0
 8000a12:	64c3      	str	r3, [r0, #76]	; 0x4c
 8000a14:	f880 3034 	strb.w	r3, [r0, #52]	; 0x34
 8000a18:	f880 3035 	strb.w	r3, [r0, #53]	; 0x35
 8000a1c:	4618      	mov	r0, r3
 8000a1e:	4770      	bx	lr
 8000a20:	2001      	movs	r0, #1
 8000a22:	4770      	bx	lr
 8000a24:	40026400 	.word	0x40026400
 8000a28:	40026428 	.word	0x40026428
 8000a2c:	40026088 	.word	0x40026088
 8000a30:	40026000 	.word	0x40026000
 8000a34:	40026028 	.word	0x40026028

08000a38 <HAL_DMA_Start>:
 8000a38:	b530      	push	{r4, r5, lr}
 8000a3a:	f890 4034 	ldrb.w	r4, [r0, #52]	; 0x34
 8000a3e:	2c01      	cmp	r4, #1
 8000a40:	f04f 0402 	mov.w	r4, #2
 8000a44:	d01b      	beq.n	8000a7e <HAL_DMA_Start+0x46>
 8000a46:	f880 4035 	strb.w	r4, [r0, #53]	; 0x35
 8000a4a:	6804      	ldr	r4, [r0, #0]
 8000a4c:	2501      	movs	r5, #1
 8000a4e:	f880 5034 	strb.w	r5, [r0, #52]	; 0x34
 8000a52:	6825      	ldr	r5, [r4, #0]
 8000a54:	f025 0501 	bic.w	r5, r5, #1
 8000a58:	6025      	str	r5, [r4, #0]
 8000a5a:	6825      	ldr	r5, [r4, #0]
 8000a5c:	f425 2580 	bic.w	r5, r5, #262144	; 0x40000
 8000a60:	6025      	str	r5, [r4, #0]
 8000a62:	6063      	str	r3, [r4, #4]
 8000a64:	6883      	ldr	r3, [r0, #8]
 8000a66:	2b40      	cmp	r3, #64	; 0x40
 8000a68:	bf0b      	itete	eq
 8000a6a:	60a2      	streq	r2, [r4, #8]
 8000a6c:	60a1      	strne	r1, [r4, #8]
 8000a6e:	60e1      	streq	r1, [r4, #12]
 8000a70:	60e2      	strne	r2, [r4, #12]
 8000a72:	6823      	ldr	r3, [r4, #0]
 8000a74:	f043 0301 	orr.w	r3, r3, #1
 8000a78:	6023      	str	r3, [r4, #0]
 8000a7a:	2000      	movs	r0, #0
 8000a7c:	bd30      	pop	{r4, r5, pc}
 8000a7e:	4620      	mov	r0, r4
 8000a80:	bd30      	pop	{r4, r5, pc}

08000a82 <HAL_DMA_Start_IT>:
 8000a82:	b530      	push	{r4, r5, lr}
 8000a84:	f890 4034 	ldrb.w	r4, [r0, #52]	; 0x34
 8000a88:	2c01      	cmp	r4, #1
 8000a8a:	f04f 0402 	mov.w	r4, #2
 8000a8e:	d02f      	beq.n	8000af0 <HAL_DMA_Start_IT+0x6e>
 8000a90:	f880 4035 	strb.w	r4, [r0, #53]	; 0x35
 8000a94:	6804      	ldr	r4, [r0, #0]
 8000a96:	2501      	movs	r5, #1
 8000a98:	f880 5034 	strb.w	r5, [r0, #52]	; 0x34
 8000a9c:	6825      	ldr	r5, [r4, #0]
 8000a9e:	f025 0501 	bic.w	r5, r5, #1
 8000aa2:	6025      	str	r5, [r4, #0]
 8000aa4:	6825      	ldr	r5, [r4, #0]
 8000aa6:	f425 2580 	bic.w	r5, r5, #262144	; 0x40000
 8000aaa:	6025      	str	r5, [r4, #0]
 8000aac:	6063      	str	r3, [r4, #4]
 8000aae:	6883      	ldr	r3, [r0, #8]
 8000ab0:	2b40      	cmp	r3, #64	; 0x40
 8000ab2:	bf0b      	itete	eq
 8000ab4:	60a2      	streq	r2, [r4, #8]
 8000ab6:	60a1      	strne	r1, [r4, #8]
 8000ab8:	60e1      	streq	r1, [r4, #12]
 8000aba:	60e2      	strne	r2, [r4, #12]
 8000abc:	6823      	ldr	r3, [r4, #0]
 8000abe:	f043 0310 	orr.w	r3, r3, #16
 8000ac2:	6023      	str	r3, [r4, #0]
 8000ac4:	6823      	ldr	r3, [r4, #0]
 8000ac6:	f043 0308 	orr.w	r3, r3, #8
 8000aca:	6023      	str	r3, [r4, #0]
 8000acc:	6823      	ldr	r3, [r4, #0]
 8000ace:	f043 0304 	orr.w	r3, r3, #4
 8000ad2:	6023      	str	r3, [r4, #0]
 8000ad4:	6963      	ldr	r3, [r4, #20]
 8000ad6:	f043 0380 	orr.w	r3, r3, #128	; 0x80
 8000ada:	6163      	str	r3, [r4, #20]
 8000adc:	6823      	ldr	r3, [r4, #0]
 8000ade:	f043 0302 	orr.w	r3, r3, #2
 8000ae2:	6023      	str	r3, [r4, #0]
 8000ae4:	6823      	ldr	r3, [r4, #0]
 8000ae6:	f043 0301 	orr.w	r3, r3, #1
 8000aea:	6023      	str	r3, [r4, #0]
 8000aec:	2000      	movs	r0, #0
 8000aee:	bd30      	pop	{r4, r5, pc}
 8000af0:	4620      	mov	r0, r4
 8000af2:	bd30      	pop	{r4, r5, pc}

08000af4 <HAL_DMA_Abort>:
 8000af4:	b538      	push	{r3, r4, r5, lr}
 8000af6:	6803      	ldr	r3, [r0, #0]
 8000af8:	681a      	ldr	r2, [r3, #0]
 8000afa:	f022 0201 	bic.w	r2, r2, #1
 8000afe:	601a      	str	r2, [r3, #0]
 8000b00:	4604      	mov	r4, r0
 8000b02:	f7ff fbff 	bl	8000304 <HAL_GetTick>
 8000b06:	4605      	mov	r5, r0
 8000b08:	6823      	ldr	r3, [r4, #0]
 8000b0a:	681b      	ldr	r3, [r3, #0]
 8000b0c:	f013 0301 	ands.w	r3, r3, #1
 8000b10:	d010      	beq.n	8000b34 <HAL_DMA_Abort+0x40>
 8000b12:	f7ff fbf7 	bl	8000304 <HAL_GetTick>
 8000b16:	1b40      	subs	r0, r0, r5
 8000b18:	f5b0 7f7a 	cmp.w	r0, #1000	; 0x3e8
 8000b1c:	d9f4      	bls.n	8000b08 <HAL_DMA_Abort+0x14>
 8000b1e:	6ce3      	ldr	r3, [r4, #76]	; 0x4c
 8000b20:	f043 0320 	orr.w	r3, r3, #32
 8000b24:	64e3      	str	r3, [r4, #76]	; 0x4c
 8000b26:	2003      	movs	r0, #3
 8000b28:	2300      	movs	r3, #0
 8000b2a:	f884 3034 	strb.w	r3, [r4, #52]	; 0x34
 8000b2e:	f884 0035 	strb.w	r0, [r4, #53]	; 0x35
 8000b32:	bd38      	pop	{r3, r4, r5, pc}
 8000b34:	2201      	movs	r2, #1
 8000b36:	f884 3034 	strb.w	r3, [r4, #52]	; 0x34
 8000b3a:	f884 2035 	strb.w	r2, [r4, #53]	; 0x35
 8000b3e:	4618      	mov	r0, r3
 8000b40:	bd38      	pop	{r3, r4, r5, pc}

08000b42 <HAL_DMA_PollForTransfer>:
 8000b42:	6803      	ldr	r3, [r0, #0]
 8000b44:	e92d 47f0 	stmdb	sp!, {r4, r5, r6, r7, r8, r9, sl, lr}
 8000b48:	f423 6380 	bic.w	r3, r3, #1024	; 0x400
 8000b4c:	4691      	mov	r9, r2
 8000b4e:	4604      	mov	r4, r0
 8000b50:	4688      	mov	r8, r1
 8000b52:	4aad      	ldr	r2, [pc, #692]	; (8000e08 <HAL_DMA_PollForTransfer+0x2c6>)
 8000b54:	b9b1      	cbnz	r1, 8000b84 <HAL_DMA_PollForTransfer+0x42>
 8000b56:	4293      	cmp	r3, r2
 8000b58:	d02b      	beq.n	8000bb2 <HAL_DMA_PollForTransfer+0x70>
 8000b5a:	3260      	adds	r2, #96	; 0x60
 8000b5c:	4293      	cmp	r3, r2
 8000b5e:	d028      	beq.n	8000bb2 <HAL_DMA_PollForTransfer+0x70>
 8000b60:	3a48      	subs	r2, #72	; 0x48
 8000b62:	4293      	cmp	r3, r2
 8000b64:	d027      	beq.n	8000bb6 <HAL_DMA_PollForTransfer+0x74>
 8000b66:	3260      	adds	r2, #96	; 0x60
 8000b68:	4293      	cmp	r3, r2
 8000b6a:	d024      	beq.n	8000bb6 <HAL_DMA_PollForTransfer+0x74>
 8000b6c:	3a48      	subs	r2, #72	; 0x48
 8000b6e:	4293      	cmp	r3, r2
 8000b70:	d102      	bne.n	8000b78 <HAL_DMA_PollForTransfer+0x36>
 8000b72:	f44f 1500 	mov.w	r5, #2097152	; 0x200000
 8000b76:	e025      	b.n	8000bc4 <HAL_DMA_PollForTransfer+0x82>
 8000b78:	4aa4      	ldr	r2, [pc, #656]	; (8000e0c <HAL_DMA_PollForTransfer+0x2ca>)
 8000b7a:	4293      	cmp	r3, r2
 8000b7c:	d0f9      	beq.n	8000b72 <HAL_DMA_PollForTransfer+0x30>
 8000b7e:	f04f 6500 	mov.w	r5, #134217728	; 0x8000000
 8000b82:	e01f      	b.n	8000bc4 <HAL_DMA_PollForTransfer+0x82>
 8000b84:	4293      	cmp	r3, r2
 8000b86:	d019      	beq.n	8000bbc <HAL_DMA_PollForTransfer+0x7a>
 8000b88:	4aa1      	ldr	r2, [pc, #644]	; (8000e10 <HAL_DMA_PollForTransfer+0x2ce>)
 8000b8a:	4293      	cmp	r3, r2
 8000b8c:	d016      	beq.n	8000bbc <HAL_DMA_PollForTransfer+0x7a>
 8000b8e:	3a48      	subs	r2, #72	; 0x48
 8000b90:	4293      	cmp	r3, r2
 8000b92:	d015      	beq.n	8000bc0 <HAL_DMA_PollForTransfer+0x7e>
 8000b94:	3260      	adds	r2, #96	; 0x60
 8000b96:	4293      	cmp	r3, r2
 8000b98:	d012      	beq.n	8000bc0 <HAL_DMA_PollForTransfer+0x7e>
 8000b9a:	3a48      	subs	r2, #72	; 0x48
 8000b9c:	4293      	cmp	r3, r2
 8000b9e:	d102      	bne.n	8000ba6 <HAL_DMA_PollForTransfer+0x64>
 8000ba0:	f44f 1580 	mov.w	r5, #1048576	; 0x100000
 8000ba4:	e00e      	b.n	8000bc4 <HAL_DMA_PollForTransfer+0x82>
 8000ba6:	4a99      	ldr	r2, [pc, #612]	; (8000e0c <HAL_DMA_PollForTransfer+0x2ca>)
 8000ba8:	4293      	cmp	r3, r2
 8000baa:	d0f9      	beq.n	8000ba0 <HAL_DMA_PollForTransfer+0x5e>
 8000bac:	f04f 6580 	mov.w	r5, #67108864	; 0x4000000
 8000bb0:	e008      	b.n	8000bc4 <HAL_DMA_PollForTransfer+0x82>
 8000bb2:	2520      	movs	r5, #32
 8000bb4:	e006      	b.n	8000bc4 <HAL_DMA_PollForTransfer+0x82>
 8000bb6:	f44f 6500 	mov.w	r5, #2048	; 0x800
 8000bba:	e003      	b.n	8000bc4 <HAL_DMA_PollForTransfer+0x82>
 8000bbc:	2510      	movs	r5, #16
 8000bbe:	e001      	b.n	8000bc4 <HAL_DMA_PollForTransfer+0x82>
 8000bc0:	f44f 6580 	mov.w	r5, #1024	; 0x400
 8000bc4:	f7ff fb9e 	bl	8000304 <HAL_GetTick>
 8000bc8:	4682      	mov	sl, r0
 8000bca:	6823      	ldr	r3, [r4, #0]
 8000bcc:	4a91      	ldr	r2, [pc, #580]	; (8000e14 <HAL_DMA_PollForTransfer+0x2d2>)
 8000bce:	4293      	cmp	r3, r2
 8000bd0:	d932      	bls.n	8000c38 <HAL_DMA_PollForTransfer+0xf6>
 8000bd2:	3a58      	subs	r2, #88	; 0x58
 8000bd4:	6851      	ldr	r1, [r2, #4]
 8000bd6:	420d      	tst	r5, r1
 8000bd8:	f040 8188 	bne.w	8000eec <HAL_DMA_PollForTransfer+0x3aa>
 8000bdc:	6851      	ldr	r1, [r2, #4]
 8000bde:	4a8e      	ldr	r2, [pc, #568]	; (8000e18 <HAL_DMA_PollForTransfer+0x2d6>)
 8000be0:	4293      	cmp	r3, r2
 8000be2:	d00a      	beq.n	8000bfa <HAL_DMA_PollForTransfer+0xb8>
 8000be4:	3218      	adds	r2, #24
 8000be6:	4293      	cmp	r3, r2
 8000be8:	d009      	beq.n	8000bfe <HAL_DMA_PollForTransfer+0xbc>
 8000bea:	3218      	adds	r2, #24
 8000bec:	4293      	cmp	r3, r2
 8000bee:	bf14      	ite	ne
 8000bf0:	f04f 7200 	movne.w	r2, #33554432	; 0x2000000
 8000bf4:	f44f 2200 	moveq.w	r2, #524288	; 0x80000
 8000bf8:	e003      	b.n	8000c02 <HAL_DMA_PollForTransfer+0xc0>
 8000bfa:	2208      	movs	r2, #8
 8000bfc:	e001      	b.n	8000c02 <HAL_DMA_PollForTransfer+0xc0>
 8000bfe:	f44f 7200 	mov.w	r2, #512	; 0x200
 8000c02:	4885      	ldr	r0, [pc, #532]	; (8000e18 <HAL_DMA_PollForTransfer+0x2d6>)
 8000c04:	400a      	ands	r2, r1
 8000c06:	4985      	ldr	r1, [pc, #532]	; (8000e1c <HAL_DMA_PollForTransfer+0x2da>)
 8000c08:	4283      	cmp	r3, r0
 8000c0a:	6849      	ldr	r1, [r1, #4]
 8000c0c:	d101      	bne.n	8000c12 <HAL_DMA_PollForTransfer+0xd0>
 8000c0e:	4f84      	ldr	r7, [pc, #528]	; (8000e20 <HAL_DMA_PollForTransfer+0x2de>)
 8000c10:	e00b      	b.n	8000c2a <HAL_DMA_PollForTransfer+0xe8>
 8000c12:	4884      	ldr	r0, [pc, #528]	; (8000e24 <HAL_DMA_PollForTransfer+0x2e2>)
 8000c14:	4283      	cmp	r3, r0
 8000c16:	d007      	beq.n	8000c28 <HAL_DMA_PollForTransfer+0xe6>
 8000c18:	4f83      	ldr	r7, [pc, #524]	; (8000e28 <HAL_DMA_PollForTransfer+0x2e6>)
 8000c1a:	42bb      	cmp	r3, r7
 8000c1c:	bf14      	ite	ne
 8000c1e:	f44f 0780 	movne.w	r7, #4194304	; 0x400000
 8000c22:	f44f 3780 	moveq.w	r7, #65536	; 0x10000
 8000c26:	e000      	b.n	8000c2a <HAL_DMA_PollForTransfer+0xe8>
 8000c28:	2740      	movs	r7, #64	; 0x40
 8000c2a:	487b      	ldr	r0, [pc, #492]	; (8000e18 <HAL_DMA_PollForTransfer+0x2d6>)
 8000c2c:	400f      	ands	r7, r1
 8000c2e:	497b      	ldr	r1, [pc, #492]	; (8000e1c <HAL_DMA_PollForTransfer+0x2da>)
 8000c30:	4283      	cmp	r3, r0
 8000c32:	6849      	ldr	r1, [r1, #4]
 8000c34:	d12a      	bne.n	8000c8c <HAL_DMA_PollForTransfer+0x14a>
 8000c36:	e027      	b.n	8000c88 <HAL_DMA_PollForTransfer+0x146>
 8000c38:	4a7c      	ldr	r2, [pc, #496]	; (8000e2c <HAL_DMA_PollForTransfer+0x2ea>)
 8000c3a:	4293      	cmp	r3, r2
 8000c3c:	f240 814f 	bls.w	8000ede <HAL_DMA_PollForTransfer+0x39c>
 8000c40:	f502 7252 	add.w	r2, r2, #840	; 0x348
 8000c44:	6811      	ldr	r1, [r2, #0]
 8000c46:	420d      	tst	r5, r1
 8000c48:	f040 8150 	bne.w	8000eec <HAL_DMA_PollForTransfer+0x3aa>
 8000c4c:	6811      	ldr	r1, [r2, #0]
 8000c4e:	4a78      	ldr	r2, [pc, #480]	; (8000e30 <HAL_DMA_PollForTransfer+0x2ee>)
 8000c50:	4293      	cmp	r3, r2
 8000c52:	f000 8150 	beq.w	8000ef6 <HAL_DMA_PollForTransfer+0x3b4>
 8000c56:	3218      	adds	r2, #24
 8000c58:	4293      	cmp	r3, r2
 8000c5a:	f000 814e 	beq.w	8000efa <HAL_DMA_PollForTransfer+0x3b8>
 8000c5e:	3218      	adds	r2, #24
 8000c60:	4293      	cmp	r3, r2
 8000c62:	bf14      	ite	ne
 8000c64:	f04f 7200 	movne.w	r2, #33554432	; 0x2000000
 8000c68:	f44f 2200 	moveq.w	r2, #524288	; 0x80000
 8000c6c:	4870      	ldr	r0, [pc, #448]	; (8000e30 <HAL_DMA_PollForTransfer+0x2ee>)
 8000c6e:	400a      	ands	r2, r1
 8000c70:	496a      	ldr	r1, [pc, #424]	; (8000e1c <HAL_DMA_PollForTransfer+0x2da>)
 8000c72:	4283      	cmp	r3, r0
 8000c74:	6809      	ldr	r1, [r1, #0]
 8000c76:	f040 8143 	bne.w	8000f00 <HAL_DMA_PollForTransfer+0x3be>
 8000c7a:	4f69      	ldr	r7, [pc, #420]	; (8000e20 <HAL_DMA_PollForTransfer+0x2de>)
 8000c7c:	486c      	ldr	r0, [pc, #432]	; (8000e30 <HAL_DMA_PollForTransfer+0x2ee>)
 8000c7e:	400f      	ands	r7, r1
 8000c80:	4966      	ldr	r1, [pc, #408]	; (8000e1c <HAL_DMA_PollForTransfer+0x2da>)
 8000c82:	4283      	cmp	r3, r0
 8000c84:	6809      	ldr	r1, [r1, #0]
 8000c86:	d106      	bne.n	8000c96 <HAL_DMA_PollForTransfer+0x154>
 8000c88:	4e6a      	ldr	r6, [pc, #424]	; (8000e34 <HAL_DMA_PollForTransfer+0x2f2>)
 8000c8a:	e011      	b.n	8000cb0 <HAL_DMA_PollForTransfer+0x16e>
 8000c8c:	4865      	ldr	r0, [pc, #404]	; (8000e24 <HAL_DMA_PollForTransfer+0x2e2>)
 8000c8e:	4283      	cmp	r3, r0
 8000c90:	d00c      	beq.n	8000cac <HAL_DMA_PollForTransfer+0x16a>
 8000c92:	4e65      	ldr	r6, [pc, #404]	; (8000e28 <HAL_DMA_PollForTransfer+0x2e6>)
 8000c94:	e003      	b.n	8000c9e <HAL_DMA_PollForTransfer+0x15c>
 8000c96:	4868      	ldr	r0, [pc, #416]	; (8000e38 <HAL_DMA_PollForTransfer+0x2f6>)
 8000c98:	4283      	cmp	r3, r0
 8000c9a:	d007      	beq.n	8000cac <HAL_DMA_PollForTransfer+0x16a>
 8000c9c:	4e67      	ldr	r6, [pc, #412]	; (8000e3c <HAL_DMA_PollForTransfer+0x2fa>)
 8000c9e:	42b3      	cmp	r3, r6
 8000ca0:	bf14      	ite	ne
 8000ca2:	f04f 7680 	movne.w	r6, #16777216	; 0x1000000
 8000ca6:	f44f 2680 	moveq.w	r6, #262144	; 0x40000
 8000caa:	e001      	b.n	8000cb0 <HAL_DMA_PollForTransfer+0x16e>
 8000cac:	f44f 7680 	mov.w	r6, #256	; 0x100
 8000cb0:	400e      	ands	r6, r1
 8000cb2:	b922      	cbnz	r2, 8000cbe <HAL_DMA_PollForTransfer+0x17c>
 8000cb4:	b9f7      	cbnz	r7, 8000cf4 <HAL_DMA_PollForTransfer+0x1b2>
 8000cb6:	2e00      	cmp	r6, #0
 8000cb8:	f000 8101 	beq.w	8000ebe <HAL_DMA_PollForTransfer+0x37c>
 8000cbc:	e075      	b.n	8000daa <HAL_DMA_PollForTransfer+0x268>
 8000cbe:	6ce2      	ldr	r2, [r4, #76]	; 0x4c
 8000cc0:	f042 0201 	orr.w	r2, r2, #1
 8000cc4:	64e2      	str	r2, [r4, #76]	; 0x4c
 8000cc6:	4a53      	ldr	r2, [pc, #332]	; (8000e14 <HAL_DMA_PollForTransfer+0x2d2>)
 8000cc8:	4293      	cmp	r3, r2
 8000cca:	f240 83f2 	bls.w	80014b2 <HAL_DMA_PollForTransfer+0x970>
 8000cce:	4a52      	ldr	r2, [pc, #328]	; (8000e18 <HAL_DMA_PollForTransfer+0x2d6>)
 8000cd0:	4293      	cmp	r3, r2
 8000cd2:	f000 83e9 	beq.w	80014a8 <HAL_DMA_PollForTransfer+0x966>
 8000cd6:	3218      	adds	r2, #24
 8000cd8:	4293      	cmp	r3, r2
 8000cda:	f000 83e7 	beq.w	80014ac <HAL_DMA_PollForTransfer+0x96a>
 8000cde:	3218      	adds	r2, #24
 8000ce0:	4293      	cmp	r3, r2
 8000ce2:	bf14      	ite	ne
 8000ce4:	f04f 7200 	movne.w	r2, #33554432	; 0x2000000
 8000ce8:	f44f 2200 	moveq.w	r2, #524288	; 0x80000
 8000cec:	494b      	ldr	r1, [pc, #300]	; (8000e1c <HAL_DMA_PollForTransfer+0x2da>)
 8000cee:	60ca      	str	r2, [r1, #12]
 8000cf0:	2f00      	cmp	r7, #0
 8000cf2:	d05a      	beq.n	8000daa <HAL_DMA_PollForTransfer+0x268>
 8000cf4:	6ce2      	ldr	r2, [r4, #76]	; 0x4c
 8000cf6:	f042 0202 	orr.w	r2, r2, #2
 8000cfa:	64e2      	str	r2, [r4, #76]	; 0x4c
 8000cfc:	4a45      	ldr	r2, [pc, #276]	; (8000e14 <HAL_DMA_PollForTransfer+0x2d2>)
 8000cfe:	4293      	cmp	r3, r2
 8000d00:	d912      	bls.n	8000d28 <HAL_DMA_PollForTransfer+0x1e6>
 8000d02:	3218      	adds	r2, #24
 8000d04:	4293      	cmp	r3, r2
 8000d06:	d00a      	beq.n	8000d1e <HAL_DMA_PollForTransfer+0x1dc>
 8000d08:	3218      	adds	r2, #24
 8000d0a:	4293      	cmp	r3, r2
 8000d0c:	d009      	beq.n	8000d22 <HAL_DMA_PollForTransfer+0x1e0>
 8000d0e:	3218      	adds	r2, #24
 8000d10:	4293      	cmp	r3, r2
 8000d12:	bf14      	ite	ne
 8000d14:	f44f 0280 	movne.w	r2, #4194304	; 0x400000
 8000d18:	f44f 3280 	moveq.w	r2, #65536	; 0x10000
 8000d1c:	e002      	b.n	8000d24 <HAL_DMA_PollForTransfer+0x1e2>
 8000d1e:	4a40      	ldr	r2, [pc, #256]	; (8000e20 <HAL_DMA_PollForTransfer+0x2de>)
 8000d20:	e000      	b.n	8000d24 <HAL_DMA_PollForTransfer+0x1e2>
 8000d22:	2240      	movs	r2, #64	; 0x40
 8000d24:	493d      	ldr	r1, [pc, #244]	; (8000e1c <HAL_DMA_PollForTransfer+0x2da>)
 8000d26:	e02b      	b.n	8000d80 <HAL_DMA_PollForTransfer+0x23e>
 8000d28:	4a40      	ldr	r2, [pc, #256]	; (8000e2c <HAL_DMA_PollForTransfer+0x2ea>)
 8000d2a:	4293      	cmp	r3, r2
 8000d2c:	d913      	bls.n	8000d56 <HAL_DMA_PollForTransfer+0x214>
 8000d2e:	f502 7256 	add.w	r2, r2, #856	; 0x358
 8000d32:	4293      	cmp	r3, r2
 8000d34:	d00a      	beq.n	8000d4c <HAL_DMA_PollForTransfer+0x20a>
 8000d36:	3218      	adds	r2, #24
 8000d38:	4293      	cmp	r3, r2
 8000d3a:	d009      	beq.n	8000d50 <HAL_DMA_PollForTransfer+0x20e>
 8000d3c:	3218      	adds	r2, #24
 8000d3e:	4293      	cmp	r3, r2
 8000d40:	bf14      	ite	ne
 8000d42:	f44f 0280 	movne.w	r2, #4194304	; 0x400000
 8000d46:	f44f 3280 	moveq.w	r2, #65536	; 0x10000
 8000d4a:	e002      	b.n	8000d52 <HAL_DMA_PollForTransfer+0x210>
 8000d4c:	4a34      	ldr	r2, [pc, #208]	; (8000e20 <HAL_DMA_PollForTransfer+0x2de>)
 8000d4e:	e000      	b.n	8000d52 <HAL_DMA_PollForTransfer+0x210>
 8000d50:	2240      	movs	r2, #64	; 0x40
 8000d52:	4932      	ldr	r1, [pc, #200]	; (8000e1c <HAL_DMA_PollForTransfer+0x2da>)
 8000d54:	e028      	b.n	8000da8 <HAL_DMA_PollForTransfer+0x266>
 8000d56:	4a3a      	ldr	r2, [pc, #232]	; (8000e40 <HAL_DMA_PollForTransfer+0x2fe>)
 8000d58:	4293      	cmp	r3, r2
 8000d5a:	d913      	bls.n	8000d84 <HAL_DMA_PollForTransfer+0x242>
 8000d5c:	3218      	adds	r2, #24
 8000d5e:	4293      	cmp	r3, r2
 8000d60:	d00a      	beq.n	8000d78 <HAL_DMA_PollForTransfer+0x236>
 8000d62:	3218      	adds	r2, #24
 8000d64:	4293      	cmp	r3, r2
 8000d66:	d009      	beq.n	8000d7c <HAL_DMA_PollForTransfer+0x23a>
 8000d68:	3218      	adds	r2, #24
 8000d6a:	4293      	cmp	r3, r2
 8000d6c:	bf14      	ite	ne
 8000d6e:	f44f 0280 	movne.w	r2, #4194304	; 0x400000
 8000d72:	f44f 3280 	moveq.w	r2, #65536	; 0x10000
 8000d76:	e002      	b.n	8000d7e <HAL_DMA_PollForTransfer+0x23c>
 8000d78:	4a29      	ldr	r2, [pc, #164]	; (8000e20 <HAL_DMA_PollForTransfer+0x2de>)
 8000d7a:	e000      	b.n	8000d7e <HAL_DMA_PollForTransfer+0x23c>
 8000d7c:	2240      	movs	r2, #64	; 0x40
 8000d7e:	4931      	ldr	r1, [pc, #196]	; (8000e44 <HAL_DMA_PollForTransfer+0x302>)
 8000d80:	60ca      	str	r2, [r1, #12]
 8000d82:	e012      	b.n	8000daa <HAL_DMA_PollForTransfer+0x268>
 8000d84:	4a20      	ldr	r2, [pc, #128]	; (8000e08 <HAL_DMA_PollForTransfer+0x2c6>)
 8000d86:	4293      	cmp	r3, r2
 8000d88:	d00a      	beq.n	8000da0 <HAL_DMA_PollForTransfer+0x25e>
 8000d8a:	3218      	adds	r2, #24
 8000d8c:	4293      	cmp	r3, r2
 8000d8e:	d009      	beq.n	8000da4 <HAL_DMA_PollForTransfer+0x262>
 8000d90:	3218      	adds	r2, #24
 8000d92:	4293      	cmp	r3, r2
 8000d94:	bf14      	ite	ne
 8000d96:	f44f 0280 	movne.w	r2, #4194304	; 0x400000
 8000d9a:	f44f 3280 	moveq.w	r2, #65536	; 0x10000
 8000d9e:	e002      	b.n	8000da6 <HAL_DMA_PollForTransfer+0x264>
 8000da0:	4a1f      	ldr	r2, [pc, #124]	; (8000e20 <HAL_DMA_PollForTransfer+0x2de>)
 8000da2:	e000      	b.n	8000da6 <HAL_DMA_PollForTransfer+0x264>
 8000da4:	2240      	movs	r2, #64	; 0x40
 8000da6:	4927      	ldr	r1, [pc, #156]	; (8000e44 <HAL_DMA_PollForTransfer+0x302>)
 8000da8:	608a      	str	r2, [r1, #8]
 8000daa:	2e00      	cmp	r6, #0
 8000dac:	d07e      	beq.n	8000eac <HAL_DMA_PollForTransfer+0x36a>
 8000dae:	6ce2      	ldr	r2, [r4, #76]	; 0x4c
 8000db0:	f042 0204 	orr.w	r2, r2, #4
 8000db4:	64e2      	str	r2, [r4, #76]	; 0x4c
 8000db6:	4a17      	ldr	r2, [pc, #92]	; (8000e14 <HAL_DMA_PollForTransfer+0x2d2>)
 8000db8:	4293      	cmp	r3, r2
 8000dba:	d913      	bls.n	8000de4 <HAL_DMA_PollForTransfer+0x2a2>
 8000dbc:	3218      	adds	r2, #24
 8000dbe:	4293      	cmp	r3, r2
 8000dc0:	d00a      	beq.n	8000dd8 <HAL_DMA_PollForTransfer+0x296>
 8000dc2:	3218      	adds	r2, #24
 8000dc4:	4293      	cmp	r3, r2
 8000dc6:	d009      	beq.n	8000ddc <HAL_DMA_PollForTransfer+0x29a>
 8000dc8:	3218      	adds	r2, #24
 8000dca:	4293      	cmp	r3, r2
 8000dcc:	bf14      	ite	ne
 8000dce:	f04f 7380 	movne.w	r3, #16777216	; 0x1000000
 8000dd2:	f44f 2380 	moveq.w	r3, #262144	; 0x40000
 8000dd6:	e003      	b.n	8000de0 <HAL_DMA_PollForTransfer+0x29e>
 8000dd8:	4b16      	ldr	r3, [pc, #88]	; (8000e34 <HAL_DMA_PollForTransfer+0x2f2>)
 8000dda:	e001      	b.n	8000de0 <HAL_DMA_PollForTransfer+0x29e>
 8000ddc:	f44f 7380 	mov.w	r3, #256	; 0x100
 8000de0:	4a0e      	ldr	r2, [pc, #56]	; (8000e1c <HAL_DMA_PollForTransfer+0x2da>)
 8000de2:	e04d      	b.n	8000e80 <HAL_DMA_PollForTransfer+0x33e>
 8000de4:	4a11      	ldr	r2, [pc, #68]	; (8000e2c <HAL_DMA_PollForTransfer+0x2ea>)
 8000de6:	4293      	cmp	r3, r2
 8000de8:	d934      	bls.n	8000e54 <HAL_DMA_PollForTransfer+0x312>
 8000dea:	f502 7256 	add.w	r2, r2, #856	; 0x358
 8000dee:	4293      	cmp	r3, r2
 8000df0:	d02a      	beq.n	8000e48 <HAL_DMA_PollForTransfer+0x306>
 8000df2:	3218      	adds	r2, #24
 8000df4:	4293      	cmp	r3, r2
 8000df6:	d029      	beq.n	8000e4c <HAL_DMA_PollForTransfer+0x30a>
 8000df8:	3218      	adds	r2, #24
 8000dfa:	4293      	cmp	r3, r2
 8000dfc:	bf14      	ite	ne
 8000dfe:	f04f 7380 	movne.w	r3, #16777216	; 0x1000000
 8000e02:	f44f 2380 	moveq.w	r3, #262144	; 0x40000
 8000e06:	e023      	b.n	8000e50 <HAL_DMA_PollForTransfer+0x30e>
 8000e08:	40026010 	.word	0x40026010
 8000e0c:	400260a0 	.word	0x400260a0
 8000e10:	40026070 	.word	0x40026070
 8000e14:	40026458 	.word	0x40026458
 8000e18:	40026470 	.word	0x40026470
 8000e1c:	40026400 	.word	0x40026400
 8000e20:	00800001 	.word	0x00800001
 8000e24:	40026488 	.word	0x40026488
 8000e28:	400264a0 	.word	0x400264a0
 8000e2c:	400260b8 	.word	0x400260b8
 8000e30:	40026410 	.word	0x40026410
 8000e34:	00800004 	.word	0x00800004
 8000e38:	40026428 	.word	0x40026428
 8000e3c:	40026440 	.word	0x40026440
 8000e40:	40026058 	.word	0x40026058
 8000e44:	40026000 	.word	0x40026000
 8000e48:	4bac      	ldr	r3, [pc, #688]	; (80010fc <HAL_DMA_PollForTransfer+0x5ba>)
 8000e4a:	e001      	b.n	8000e50 <HAL_DMA_PollForTransfer+0x30e>
 8000e4c:	f44f 7380 	mov.w	r3, #256	; 0x100
 8000e50:	4aab      	ldr	r2, [pc, #684]	; (8001100 <HAL_DMA_PollForTransfer+0x5be>)
 8000e52:	e02a      	b.n	8000eaa <HAL_DMA_PollForTransfer+0x368>
 8000e54:	4aab      	ldr	r2, [pc, #684]	; (8001104 <HAL_DMA_PollForTransfer+0x5c2>)
 8000e56:	4293      	cmp	r3, r2
 8000e58:	d914      	bls.n	8000e84 <HAL_DMA_PollForTransfer+0x342>
 8000e5a:	3218      	adds	r2, #24
 8000e5c:	4293      	cmp	r3, r2
 8000e5e:	d00a      	beq.n	8000e76 <HAL_DMA_PollForTransfer+0x334>
 8000e60:	3218      	adds	r2, #24
 8000e62:	4293      	cmp	r3, r2
 8000e64:	d009      	beq.n	8000e7a <HAL_DMA_PollForTransfer+0x338>
 8000e66:	3218      	adds	r2, #24
 8000e68:	4293      	cmp	r3, r2
 8000e6a:	bf14      	ite	ne
 8000e6c:	f04f 7380 	movne.w	r3, #16777216	; 0x1000000
 8000e70:	f44f 2380 	moveq.w	r3, #262144	; 0x40000
 8000e74:	e003      	b.n	8000e7e <HAL_DMA_PollForTransfer+0x33c>
 8000e76:	4ba1      	ldr	r3, [pc, #644]	; (80010fc <HAL_DMA_PollForTransfer+0x5ba>)
 8000e78:	e001      	b.n	8000e7e <HAL_DMA_PollForTransfer+0x33c>
 8000e7a:	f44f 7380 	mov.w	r3, #256	; 0x100
 8000e7e:	4aa2      	ldr	r2, [pc, #648]	; (8001108 <HAL_DMA_PollForTransfer+0x5c6>)
 8000e80:	60d3      	str	r3, [r2, #12]
 8000e82:	e013      	b.n	8000eac <HAL_DMA_PollForTransfer+0x36a>
 8000e84:	4aa1      	ldr	r2, [pc, #644]	; (800110c <HAL_DMA_PollForTransfer+0x5ca>)
 8000e86:	4293      	cmp	r3, r2
 8000e88:	d00a      	beq.n	8000ea0 <HAL_DMA_PollForTransfer+0x35e>
 8000e8a:	3218      	adds	r2, #24
 8000e8c:	4293      	cmp	r3, r2
 8000e8e:	d009      	beq.n	8000ea4 <HAL_DMA_PollForTransfer+0x362>
 8000e90:	3218      	adds	r2, #24
 8000e92:	4293      	cmp	r3, r2
 8000e94:	bf14      	ite	ne
 8000e96:	f04f 7380 	movne.w	r3, #16777216	; 0x1000000
 8000e9a:	f44f 2380 	moveq.w	r3, #262144	; 0x40000
 8000e9e:	e003      	b.n	8000ea8 <HAL_DMA_PollForTransfer+0x366>
 8000ea0:	4b96      	ldr	r3, [pc, #600]	; (80010fc <HAL_DMA_PollForTransfer+0x5ba>)
 8000ea2:	e001      	b.n	8000ea8 <HAL_DMA_PollForTransfer+0x366>
 8000ea4:	f44f 7380 	mov.w	r3, #256	; 0x100
 8000ea8:	4a97      	ldr	r2, [pc, #604]	; (8001108 <HAL_DMA_PollForTransfer+0x5c6>)
 8000eaa:	6093      	str	r3, [r2, #8]
 8000eac:	2304      	movs	r3, #4
 8000eae:	f884 3035 	strb.w	r3, [r4, #53]	; 0x35
 8000eb2:	2300      	movs	r3, #0
 8000eb4:	f884 3034 	strb.w	r3, [r4, #52]	; 0x34
 8000eb8:	2001      	movs	r0, #1
 8000eba:	e8bd 87f0 	ldmia.w	sp!, {r4, r5, r6, r7, r8, r9, sl, pc}
 8000ebe:	f1b9 3fff 	cmp.w	r9, #4294967295	; 0xffffffff
 8000ec2:	f43f ae83 	beq.w	8000bcc <HAL_DMA_PollForTransfer+0x8a>
 8000ec6:	f1b9 0f00 	cmp.w	r9, #0
 8000eca:	f000 8338 	beq.w	800153e <HAL_DMA_PollForTransfer+0x9fc>
 8000ece:	f7ff fa19 	bl	8000304 <HAL_GetTick>
 8000ed2:	ebca 0000 	rsb	r0, sl, r0
 8000ed6:	4548      	cmp	r0, r9
 8000ed8:	f200 8331 	bhi.w	800153e <HAL_DMA_PollForTransfer+0x9fc>
 8000edc:	e675      	b.n	8000bca <HAL_DMA_PollForTransfer+0x88>
 8000ede:	4a89      	ldr	r2, [pc, #548]	; (8001104 <HAL_DMA_PollForTransfer+0x5c2>)
 8000ee0:	4989      	ldr	r1, [pc, #548]	; (8001108 <HAL_DMA_PollForTransfer+0x5c6>)
 8000ee2:	4293      	cmp	r3, r2
 8000ee4:	d94d      	bls.n	8000f82 <HAL_DMA_PollForTransfer+0x440>
 8000ee6:	684a      	ldr	r2, [r1, #4]
 8000ee8:	4215      	tst	r5, r2
 8000eea:	d016      	beq.n	8000f1a <HAL_DMA_PollForTransfer+0x3d8>
 8000eec:	4a88      	ldr	r2, [pc, #544]	; (8001110 <HAL_DMA_PollForTransfer+0x5ce>)
 8000eee:	f1b8 0f00 	cmp.w	r8, #0
 8000ef2:	d07d      	beq.n	8000ff0 <HAL_DMA_PollForTransfer+0x4ae>
 8000ef4:	e1f6      	b.n	80012e4 <HAL_DMA_PollForTransfer+0x7a2>
 8000ef6:	2208      	movs	r2, #8
 8000ef8:	e6b8      	b.n	8000c6c <HAL_DMA_PollForTransfer+0x12a>
 8000efa:	f44f 7200 	mov.w	r2, #512	; 0x200
 8000efe:	e6b5      	b.n	8000c6c <HAL_DMA_PollForTransfer+0x12a>
 8000f00:	4884      	ldr	r0, [pc, #528]	; (8001114 <HAL_DMA_PollForTransfer+0x5d2>)
 8000f02:	4283      	cmp	r3, r0
 8000f04:	d007      	beq.n	8000f16 <HAL_DMA_PollForTransfer+0x3d4>
 8000f06:	4f84      	ldr	r7, [pc, #528]	; (8001118 <HAL_DMA_PollForTransfer+0x5d6>)
 8000f08:	42bb      	cmp	r3, r7
 8000f0a:	bf14      	ite	ne
 8000f0c:	f44f 0780 	movne.w	r7, #4194304	; 0x400000
 8000f10:	f44f 3780 	moveq.w	r7, #65536	; 0x10000
 8000f14:	e6b2      	b.n	8000c7c <HAL_DMA_PollForTransfer+0x13a>
 8000f16:	2740      	movs	r7, #64	; 0x40
 8000f18:	e6b0      	b.n	8000c7c <HAL_DMA_PollForTransfer+0x13a>
 8000f1a:	4a80      	ldr	r2, [pc, #512]	; (800111c <HAL_DMA_PollForTransfer+0x5da>)
 8000f1c:	6849      	ldr	r1, [r1, #4]
 8000f1e:	4293      	cmp	r3, r2
 8000f20:	d00a      	beq.n	8000f38 <HAL_DMA_PollForTransfer+0x3f6>
 8000f22:	3218      	adds	r2, #24
 8000f24:	4293      	cmp	r3, r2
 8000f26:	d009      	beq.n	8000f3c <HAL_DMA_PollForTransfer+0x3fa>
 8000f28:	3218      	adds	r2, #24
 8000f2a:	4293      	cmp	r3, r2
 8000f2c:	bf14      	ite	ne
 8000f2e:	f04f 7200 	movne.w	r2, #33554432	; 0x2000000
 8000f32:	f44f 2200 	moveq.w	r2, #524288	; 0x80000
 8000f36:	e003      	b.n	8000f40 <HAL_DMA_PollForTransfer+0x3fe>
 8000f38:	2208      	movs	r2, #8
 8000f3a:	e001      	b.n	8000f40 <HAL_DMA_PollForTransfer+0x3fe>
 8000f3c:	f44f 7200 	mov.w	r2, #512	; 0x200
 8000f40:	4876      	ldr	r0, [pc, #472]	; (800111c <HAL_DMA_PollForTransfer+0x5da>)
 8000f42:	400a      	ands	r2, r1
 8000f44:	4970      	ldr	r1, [pc, #448]	; (8001108 <HAL_DMA_PollForTransfer+0x5c6>)
 8000f46:	4283      	cmp	r3, r0
 8000f48:	6849      	ldr	r1, [r1, #4]
 8000f4a:	d101      	bne.n	8000f50 <HAL_DMA_PollForTransfer+0x40e>
 8000f4c:	4f74      	ldr	r7, [pc, #464]	; (8001120 <HAL_DMA_PollForTransfer+0x5de>)
 8000f4e:	e00b      	b.n	8000f68 <HAL_DMA_PollForTransfer+0x426>
 8000f50:	4874      	ldr	r0, [pc, #464]	; (8001124 <HAL_DMA_PollForTransfer+0x5e2>)
 8000f52:	4283      	cmp	r3, r0
 8000f54:	d007      	beq.n	8000f66 <HAL_DMA_PollForTransfer+0x424>
 8000f56:	4f74      	ldr	r7, [pc, #464]	; (8001128 <HAL_DMA_PollForTransfer+0x5e6>)
 8000f58:	42bb      	cmp	r3, r7
 8000f5a:	bf14      	ite	ne
 8000f5c:	f44f 0780 	movne.w	r7, #4194304	; 0x400000
 8000f60:	f44f 3780 	moveq.w	r7, #65536	; 0x10000
 8000f64:	e000      	b.n	8000f68 <HAL_DMA_PollForTransfer+0x426>
 8000f66:	2740      	movs	r7, #64	; 0x40
 8000f68:	486c      	ldr	r0, [pc, #432]	; (800111c <HAL_DMA_PollForTransfer+0x5da>)
 8000f6a:	400f      	ands	r7, r1
 8000f6c:	4966      	ldr	r1, [pc, #408]	; (8001108 <HAL_DMA_PollForTransfer+0x5c6>)
 8000f6e:	4283      	cmp	r3, r0
 8000f70:	6849      	ldr	r1, [r1, #4]
 8000f72:	f43f ae89 	beq.w	8000c88 <HAL_DMA_PollForTransfer+0x146>
 8000f76:	486b      	ldr	r0, [pc, #428]	; (8001124 <HAL_DMA_PollForTransfer+0x5e2>)
 8000f78:	4283      	cmp	r3, r0
 8000f7a:	f43f ae97 	beq.w	8000cac <HAL_DMA_PollForTransfer+0x16a>
 8000f7e:	4e6a      	ldr	r6, [pc, #424]	; (8001128 <HAL_DMA_PollForTransfer+0x5e6>)
 8000f80:	e68d      	b.n	8000c9e <HAL_DMA_PollForTransfer+0x15c>
 8000f82:	680a      	ldr	r2, [r1, #0]
 8000f84:	4215      	tst	r5, r2
 8000f86:	d1b1      	bne.n	8000eec <HAL_DMA_PollForTransfer+0x3aa>
 8000f88:	4a60      	ldr	r2, [pc, #384]	; (800110c <HAL_DMA_PollForTransfer+0x5ca>)
 8000f8a:	6809      	ldr	r1, [r1, #0]
 8000f8c:	4293      	cmp	r3, r2
 8000f8e:	d00a      	beq.n	8000fa6 <HAL_DMA_PollForTransfer+0x464>
 8000f90:	3218      	adds	r2, #24
 8000f92:	4293      	cmp	r3, r2
 8000f94:	d009      	beq.n	8000faa <HAL_DMA_PollForTransfer+0x468>
 8000f96:	3218      	adds	r2, #24
 8000f98:	4293      	cmp	r3, r2
 8000f9a:	bf14      	ite	ne
 8000f9c:	f04f 7200 	movne.w	r2, #33554432	; 0x2000000
 8000fa0:	f44f 2200 	moveq.w	r2, #524288	; 0x80000
 8000fa4:	e003      	b.n	8000fae <HAL_DMA_PollForTransfer+0x46c>
 8000fa6:	2208      	movs	r2, #8
 8000fa8:	e001      	b.n	8000fae <HAL_DMA_PollForTransfer+0x46c>
 8000faa:	f44f 7200 	mov.w	r2, #512	; 0x200
 8000fae:	4857      	ldr	r0, [pc, #348]	; (800110c <HAL_DMA_PollForTransfer+0x5ca>)
 8000fb0:	400a      	ands	r2, r1
 8000fb2:	4955      	ldr	r1, [pc, #340]	; (8001108 <HAL_DMA_PollForTransfer+0x5c6>)
 8000fb4:	4283      	cmp	r3, r0
 8000fb6:	6809      	ldr	r1, [r1, #0]
 8000fb8:	d101      	bne.n	8000fbe <HAL_DMA_PollForTransfer+0x47c>
 8000fba:	4f59      	ldr	r7, [pc, #356]	; (8001120 <HAL_DMA_PollForTransfer+0x5de>)
 8000fbc:	e00b      	b.n	8000fd6 <HAL_DMA_PollForTransfer+0x494>
 8000fbe:	485b      	ldr	r0, [pc, #364]	; (800112c <HAL_DMA_PollForTransfer+0x5ea>)
 8000fc0:	4283      	cmp	r3, r0
 8000fc2:	d007      	beq.n	8000fd4 <HAL_DMA_PollForTransfer+0x492>
 8000fc4:	4f5a      	ldr	r7, [pc, #360]	; (8001130 <HAL_DMA_PollForTransfer+0x5ee>)
 8000fc6:	42bb      	cmp	r3, r7
 8000fc8:	bf14      	ite	ne
 8000fca:	f44f 0780 	movne.w	r7, #4194304	; 0x400000
 8000fce:	f44f 3780 	moveq.w	r7, #65536	; 0x10000
 8000fd2:	e000      	b.n	8000fd6 <HAL_DMA_PollForTransfer+0x494>
 8000fd4:	2740      	movs	r7, #64	; 0x40
 8000fd6:	484d      	ldr	r0, [pc, #308]	; (800110c <HAL_DMA_PollForTransfer+0x5ca>)
 8000fd8:	400f      	ands	r7, r1
 8000fda:	494b      	ldr	r1, [pc, #300]	; (8001108 <HAL_DMA_PollForTransfer+0x5c6>)
 8000fdc:	4283      	cmp	r3, r0
 8000fde:	6809      	ldr	r1, [r1, #0]
 8000fe0:	f43f ae52 	beq.w	8000c88 <HAL_DMA_PollForTransfer+0x146>
 8000fe4:	4851      	ldr	r0, [pc, #324]	; (800112c <HAL_DMA_PollForTransfer+0x5ea>)
 8000fe6:	4283      	cmp	r3, r0
 8000fe8:	f43f ae60 	beq.w	8000cac <HAL_DMA_PollForTransfer+0x16a>
 8000fec:	4e50      	ldr	r6, [pc, #320]	; (8001130 <HAL_DMA_PollForTransfer+0x5ee>)
 8000fee:	e656      	b.n	8000c9e <HAL_DMA_PollForTransfer+0x15c>
 8000ff0:	6819      	ldr	r1, [r3, #0]
 8000ff2:	034e      	lsls	r6, r1, #13
 8000ff4:	f140 80d6 	bpl.w	80011a4 <HAL_DMA_PollForTransfer+0x662>
 8000ff8:	4293      	cmp	r3, r2
 8000ffa:	d918      	bls.n	800102e <HAL_DMA_PollForTransfer+0x4ec>
 8000ffc:	4a4d      	ldr	r2, [pc, #308]	; (8001134 <HAL_DMA_PollForTransfer+0x5f2>)
 8000ffe:	4293      	cmp	r3, r2
 8001000:	d00a      	beq.n	8001018 <HAL_DMA_PollForTransfer+0x4d6>
 8001002:	3218      	adds	r2, #24
 8001004:	4293      	cmp	r3, r2
 8001006:	d009      	beq.n	800101c <HAL_DMA_PollForTransfer+0x4da>
 8001008:	3218      	adds	r2, #24
 800100a:	4293      	cmp	r3, r2
 800100c:	bf14      	ite	ne
 800100e:	f04f 6280 	movne.w	r2, #67108864	; 0x4000000
 8001012:	f44f 1280 	moveq.w	r2, #1048576	; 0x100000
 8001016:	e003      	b.n	8001020 <HAL_DMA_PollForTransfer+0x4de>
 8001018:	2210      	movs	r2, #16
 800101a:	e001      	b.n	8001020 <HAL_DMA_PollForTransfer+0x4de>
 800101c:	f44f 6280 	mov.w	r2, #1024	; 0x400
 8001020:	4937      	ldr	r1, [pc, #220]	; (8001100 <HAL_DMA_PollForTransfer+0x5be>)
 8001022:	60ca      	str	r2, [r1, #12]
 8001024:	4a43      	ldr	r2, [pc, #268]	; (8001134 <HAL_DMA_PollForTransfer+0x5f2>)
 8001026:	4293      	cmp	r3, r2
 8001028:	d14b      	bne.n	80010c2 <HAL_DMA_PollForTransfer+0x580>
 800102a:	2220      	movs	r2, #32
 800102c:	e09d      	b.n	800116a <HAL_DMA_PollForTransfer+0x628>
 800102e:	4a42      	ldr	r2, [pc, #264]	; (8001138 <HAL_DMA_PollForTransfer+0x5f6>)
 8001030:	4293      	cmp	r3, r2
 8001032:	d919      	bls.n	8001068 <HAL_DMA_PollForTransfer+0x526>
 8001034:	f502 7256 	add.w	r2, r2, #856	; 0x358
 8001038:	4293      	cmp	r3, r2
 800103a:	d00a      	beq.n	8001052 <HAL_DMA_PollForTransfer+0x510>
 800103c:	3218      	adds	r2, #24
 800103e:	4293      	cmp	r3, r2
 8001040:	d009      	beq.n	8001056 <HAL_DMA_PollForTransfer+0x514>
 8001042:	3218      	adds	r2, #24
 8001044:	4293      	cmp	r3, r2
 8001046:	bf14      	ite	ne
 8001048:	f04f 6280 	movne.w	r2, #67108864	; 0x4000000
 800104c:	f44f 1280 	moveq.w	r2, #1048576	; 0x100000
 8001050:	e003      	b.n	800105a <HAL_DMA_PollForTransfer+0x518>
 8001052:	2210      	movs	r2, #16
 8001054:	e001      	b.n	800105a <HAL_DMA_PollForTransfer+0x518>
 8001056:	f44f 6280 	mov.w	r2, #1024	; 0x400
 800105a:	4929      	ldr	r1, [pc, #164]	; (8001100 <HAL_DMA_PollForTransfer+0x5be>)
 800105c:	608a      	str	r2, [r1, #8]
 800105e:	4a37      	ldr	r2, [pc, #220]	; (800113c <HAL_DMA_PollForTransfer+0x5fa>)
 8001060:	4293      	cmp	r3, r2
 8001062:	d13c      	bne.n	80010de <HAL_DMA_PollForTransfer+0x59c>
 8001064:	2220      	movs	r2, #32
 8001066:	e092      	b.n	800118e <HAL_DMA_PollForTransfer+0x64c>
 8001068:	4a26      	ldr	r2, [pc, #152]	; (8001104 <HAL_DMA_PollForTransfer+0x5c2>)
 800106a:	4293      	cmp	r3, r2
 800106c:	d914      	bls.n	8001098 <HAL_DMA_PollForTransfer+0x556>
 800106e:	3218      	adds	r2, #24
 8001070:	4293      	cmp	r3, r2
 8001072:	d00a      	beq.n	800108a <HAL_DMA_PollForTransfer+0x548>
 8001074:	3218      	adds	r2, #24
 8001076:	4293      	cmp	r3, r2
 8001078:	d009      	beq.n	800108e <HAL_DMA_PollForTransfer+0x54c>
 800107a:	3218      	adds	r2, #24
 800107c:	4293      	cmp	r3, r2
 800107e:	bf14      	ite	ne
 8001080:	f04f 6280 	movne.w	r2, #67108864	; 0x4000000
 8001084:	f44f 1280 	moveq.w	r2, #1048576	; 0x100000
 8001088:	e003      	b.n	8001092 <HAL_DMA_PollForTransfer+0x550>
 800108a:	2210      	movs	r2, #16
 800108c:	e001      	b.n	8001092 <HAL_DMA_PollForTransfer+0x550>
 800108e:	f44f 6280 	mov.w	r2, #1024	; 0x400
 8001092:	491d      	ldr	r1, [pc, #116]	; (8001108 <HAL_DMA_PollForTransfer+0x5c6>)
 8001094:	60ca      	str	r2, [r1, #12]
 8001096:	e055      	b.n	8001144 <HAL_DMA_PollForTransfer+0x602>
 8001098:	4a1c      	ldr	r2, [pc, #112]	; (800110c <HAL_DMA_PollForTransfer+0x5ca>)
 800109a:	4293      	cmp	r3, r2
 800109c:	d00a      	beq.n	80010b4 <HAL_DMA_PollForTransfer+0x572>
 800109e:	3218      	adds	r2, #24
 80010a0:	4293      	cmp	r3, r2
 80010a2:	d009      	beq.n	80010b8 <HAL_DMA_PollForTransfer+0x576>
 80010a4:	3218      	adds	r2, #24
 80010a6:	4293      	cmp	r3, r2
 80010a8:	bf14      	ite	ne
 80010aa:	f04f 6280 	movne.w	r2, #67108864	; 0x4000000
 80010ae:	f44f 1280 	moveq.w	r2, #1048576	; 0x100000
 80010b2:	e003      	b.n	80010bc <HAL_DMA_PollForTransfer+0x57a>
 80010b4:	2210      	movs	r2, #16
 80010b6:	e001      	b.n	80010bc <HAL_DMA_PollForTransfer+0x57a>
 80010b8:	f44f 6280 	mov.w	r2, #1024	; 0x400
 80010bc:	4912      	ldr	r1, [pc, #72]	; (8001108 <HAL_DMA_PollForTransfer+0x5c6>)
 80010be:	608a      	str	r2, [r1, #8]
 80010c0:	e040      	b.n	8001144 <HAL_DMA_PollForTransfer+0x602>
 80010c2:	4a1f      	ldr	r2, [pc, #124]	; (8001140 <HAL_DMA_PollForTransfer+0x5fe>)
 80010c4:	4293      	cmp	r3, r2
 80010c6:	d007      	beq.n	80010d8 <HAL_DMA_PollForTransfer+0x596>
 80010c8:	3218      	adds	r2, #24
 80010ca:	4293      	cmp	r3, r2
 80010cc:	bf14      	ite	ne
 80010ce:	f04f 6200 	movne.w	r2, #134217728	; 0x8000000
 80010d2:	f44f 1200 	moveq.w	r2, #2097152	; 0x200000
 80010d6:	e048      	b.n	800116a <HAL_DMA_PollForTransfer+0x628>
 80010d8:	f44f 6200 	mov.w	r2, #2048	; 0x800
 80010dc:	e045      	b.n	800116a <HAL_DMA_PollForTransfer+0x628>
 80010de:	4a0d      	ldr	r2, [pc, #52]	; (8001114 <HAL_DMA_PollForTransfer+0x5d2>)
 80010e0:	4293      	cmp	r3, r2
 80010e2:	d007      	beq.n	80010f4 <HAL_DMA_PollForTransfer+0x5b2>
 80010e4:	3218      	adds	r2, #24
 80010e6:	4293      	cmp	r3, r2
 80010e8:	bf14      	ite	ne
 80010ea:	f04f 6200 	movne.w	r2, #134217728	; 0x8000000
 80010ee:	f44f 1200 	moveq.w	r2, #2097152	; 0x200000
 80010f2:	e04c      	b.n	800118e <HAL_DMA_PollForTransfer+0x64c>
 80010f4:	f44f 6200 	mov.w	r2, #2048	; 0x800
 80010f8:	e049      	b.n	800118e <HAL_DMA_PollForTransfer+0x64c>
 80010fa:	bf00      	nop
 80010fc:	00800004 	.word	0x00800004
 8001100:	40026400 	.word	0x40026400
 8001104:	40026058 	.word	0x40026058
 8001108:	40026000 	.word	0x40026000
 800110c:	40026010 	.word	0x40026010
 8001110:	40026458 	.word	0x40026458
 8001114:	40026428 	.word	0x40026428
 8001118:	40026440 	.word	0x40026440
 800111c:	40026070 	.word	0x40026070
 8001120:	00800001 	.word	0x00800001
 8001124:	40026088 	.word	0x40026088
 8001128:	400260a0 	.word	0x400260a0
 800112c:	40026028 	.word	0x40026028
 8001130:	40026040 	.word	0x40026040
 8001134:	40026470 	.word	0x40026470
 8001138:	400260b8 	.word	0x400260b8
 800113c:	40026410 	.word	0x40026410
 8001140:	40026488 	.word	0x40026488
 8001144:	4ab5      	ldr	r2, [pc, #724]	; (800141c <HAL_DMA_PollForTransfer+0x8da>)
 8001146:	4293      	cmp	r3, r2
 8001148:	d911      	bls.n	800116e <HAL_DMA_PollForTransfer+0x62c>
 800114a:	4ab5      	ldr	r2, [pc, #724]	; (8001420 <HAL_DMA_PollForTransfer+0x8de>)
 800114c:	4293      	cmp	r3, r2
 800114e:	f000 8202 	beq.w	8001556 <HAL_DMA_PollForTransfer+0xa14>
 8001152:	3218      	adds	r2, #24
 8001154:	4293      	cmp	r3, r2
 8001156:	f000 8200 	beq.w	800155a <HAL_DMA_PollForTransfer+0xa18>
 800115a:	3218      	adds	r2, #24
 800115c:	4293      	cmp	r3, r2
 800115e:	bf14      	ite	ne
 8001160:	f04f 6200 	movne.w	r2, #134217728	; 0x8000000
 8001164:	f44f 1200 	moveq.w	r2, #2097152	; 0x200000
 8001168:	49ae      	ldr	r1, [pc, #696]	; (8001424 <HAL_DMA_PollForTransfer+0x8e2>)
 800116a:	60ca      	str	r2, [r1, #12]
 800116c:	e010      	b.n	8001190 <HAL_DMA_PollForTransfer+0x64e>
 800116e:	4aae      	ldr	r2, [pc, #696]	; (8001428 <HAL_DMA_PollForTransfer+0x8e6>)
 8001170:	4293      	cmp	r3, r2
 8001172:	f000 81f5 	beq.w	8001560 <HAL_DMA_PollForTransfer+0xa1e>
 8001176:	3218      	adds	r2, #24
 8001178:	4293      	cmp	r3, r2
 800117a:	f000 81f3 	beq.w	8001564 <HAL_DMA_PollForTransfer+0xa22>
 800117e:	3218      	adds	r2, #24
 8001180:	4293      	cmp	r3, r2
 8001182:	bf14      	ite	ne
 8001184:	f04f 6200 	movne.w	r2, #134217728	; 0x8000000
 8001188:	f44f 1200 	moveq.w	r2, #2097152	; 0x200000
 800118c:	49a5      	ldr	r1, [pc, #660]	; (8001424 <HAL_DMA_PollForTransfer+0x8e2>)
 800118e:	608a      	str	r2, [r1, #8]
 8001190:	681a      	ldr	r2, [r3, #0]
 8001192:	0315      	lsls	r5, r2, #12
 8001194:	f140 809e 	bpl.w	80012d4 <HAL_DMA_PollForTransfer+0x792>
 8001198:	681b      	ldr	r3, [r3, #0]
 800119a:	0318      	lsls	r0, r3, #12
 800119c:	f140 809d 	bpl.w	80012da <HAL_DMA_PollForTransfer+0x798>
 80011a0:	2321      	movs	r3, #33	; 0x21
 80011a2:	e098      	b.n	80012d6 <HAL_DMA_PollForTransfer+0x794>
 80011a4:	4293      	cmp	r3, r2
 80011a6:	d918      	bls.n	80011da <HAL_DMA_PollForTransfer+0x698>
 80011a8:	4aa0      	ldr	r2, [pc, #640]	; (800142c <HAL_DMA_PollForTransfer+0x8ea>)
 80011aa:	4293      	cmp	r3, r2
 80011ac:	d00a      	beq.n	80011c4 <HAL_DMA_PollForTransfer+0x682>
 80011ae:	3218      	adds	r2, #24
 80011b0:	4293      	cmp	r3, r2
 80011b2:	d009      	beq.n	80011c8 <HAL_DMA_PollForTransfer+0x686>
 80011b4:	3218      	adds	r2, #24
 80011b6:	4293      	cmp	r3, r2
 80011b8:	bf14      	ite	ne
 80011ba:	f04f 6280 	movne.w	r2, #67108864	; 0x4000000
 80011be:	f44f 1280 	moveq.w	r2, #1048576	; 0x100000
 80011c2:	e003      	b.n	80011cc <HAL_DMA_PollForTransfer+0x68a>
 80011c4:	2210      	movs	r2, #16
 80011c6:	e001      	b.n	80011cc <HAL_DMA_PollForTransfer+0x68a>
 80011c8:	f44f 6280 	mov.w	r2, #1024	; 0x400
 80011cc:	4998      	ldr	r1, [pc, #608]	; (8001430 <HAL_DMA_PollForTransfer+0x8ee>)
 80011ce:	60ca      	str	r2, [r1, #12]
 80011d0:	4a96      	ldr	r2, [pc, #600]	; (800142c <HAL_DMA_PollForTransfer+0x8ea>)
 80011d2:	4293      	cmp	r3, r2
 80011d4:	d14b      	bne.n	800126e <HAL_DMA_PollForTransfer+0x72c>
 80011d6:	2320      	movs	r3, #32
 80011d8:	e056      	b.n	8001288 <HAL_DMA_PollForTransfer+0x746>
 80011da:	4a96      	ldr	r2, [pc, #600]	; (8001434 <HAL_DMA_PollForTransfer+0x8f2>)
 80011dc:	4293      	cmp	r3, r2
 80011de:	d919      	bls.n	8001214 <HAL_DMA_PollForTransfer+0x6d2>
 80011e0:	f502 7256 	add.w	r2, r2, #856	; 0x358
 80011e4:	4293      	cmp	r3, r2
 80011e6:	d00a      	beq.n	80011fe <HAL_DMA_PollForTransfer+0x6bc>
 80011e8:	3218      	adds	r2, #24
 80011ea:	4293      	cmp	r3, r2
 80011ec:	d009      	beq.n	8001202 <HAL_DMA_PollForTransfer+0x6c0>
 80011ee:	3218      	adds	r2, #24
 80011f0:	4293      	cmp	r3, r2
 80011f2:	bf14      	ite	ne
 80011f4:	f04f 6280 	movne.w	r2, #67108864	; 0x4000000
 80011f8:	f44f 1280 	moveq.w	r2, #1048576	; 0x100000
 80011fc:	e003      	b.n	8001206 <HAL_DMA_PollForTransfer+0x6c4>
 80011fe:	2210      	movs	r2, #16
 8001200:	e001      	b.n	8001206 <HAL_DMA_PollForTransfer+0x6c4>
 8001202:	f44f 6280 	mov.w	r2, #1024	; 0x400
 8001206:	498a      	ldr	r1, [pc, #552]	; (8001430 <HAL_DMA_PollForTransfer+0x8ee>)
 8001208:	608a      	str	r2, [r1, #8]
 800120a:	4a8b      	ldr	r2, [pc, #556]	; (8001438 <HAL_DMA_PollForTransfer+0x8f6>)
 800120c:	4293      	cmp	r3, r2
 800120e:	d13d      	bne.n	800128c <HAL_DMA_PollForTransfer+0x74a>
 8001210:	2320      	movs	r3, #32
 8001212:	e048      	b.n	80012a6 <HAL_DMA_PollForTransfer+0x764>
 8001214:	4a81      	ldr	r2, [pc, #516]	; (800141c <HAL_DMA_PollForTransfer+0x8da>)
 8001216:	4293      	cmp	r3, r2
 8001218:	d914      	bls.n	8001244 <HAL_DMA_PollForTransfer+0x702>
 800121a:	3218      	adds	r2, #24
 800121c:	4293      	cmp	r3, r2
 800121e:	d00a      	beq.n	8001236 <HAL_DMA_PollForTransfer+0x6f4>
 8001220:	3218      	adds	r2, #24
 8001222:	4293      	cmp	r3, r2
 8001224:	d009      	beq.n	800123a <HAL_DMA_PollForTransfer+0x6f8>
 8001226:	3218      	adds	r2, #24
 8001228:	4293      	cmp	r3, r2
 800122a:	bf14      	ite	ne
 800122c:	f04f 6280 	movne.w	r2, #67108864	; 0x4000000
 8001230:	f44f 1280 	moveq.w	r2, #1048576	; 0x100000
 8001234:	e003      	b.n	800123e <HAL_DMA_PollForTransfer+0x6fc>
 8001236:	2210      	movs	r2, #16
 8001238:	e001      	b.n	800123e <HAL_DMA_PollForTransfer+0x6fc>
 800123a:	f44f 6280 	mov.w	r2, #1024	; 0x400
 800123e:	4979      	ldr	r1, [pc, #484]	; (8001424 <HAL_DMA_PollForTransfer+0x8e2>)
 8001240:	60ca      	str	r2, [r1, #12]
 8001242:	e032      	b.n	80012aa <HAL_DMA_PollForTransfer+0x768>
 8001244:	4a78      	ldr	r2, [pc, #480]	; (8001428 <HAL_DMA_PollForTransfer+0x8e6>)
 8001246:	4293      	cmp	r3, r2
 8001248:	d00a      	beq.n	8001260 <HAL_DMA_PollForTransfer+0x71e>
 800124a:	3218      	adds	r2, #24
 800124c:	4293      	cmp	r3, r2
 800124e:	d009      	beq.n	8001264 <HAL_DMA_PollForTransfer+0x722>
 8001250:	3218      	adds	r2, #24
 8001252:	4293      	cmp	r3, r2
 8001254:	bf14      	ite	ne
 8001256:	f04f 6280 	movne.w	r2, #67108864	; 0x4000000
 800125a:	f44f 1280 	moveq.w	r2, #1048576	; 0x100000
 800125e:	e003      	b.n	8001268 <HAL_DMA_PollForTransfer+0x726>
 8001260:	2210      	movs	r2, #16
 8001262:	e001      	b.n	8001268 <HAL_DMA_PollForTransfer+0x726>
 8001264:	f44f 6280 	mov.w	r2, #1024	; 0x400
 8001268:	496e      	ldr	r1, [pc, #440]	; (8001424 <HAL_DMA_PollForTransfer+0x8e2>)
 800126a:	608a      	str	r2, [r1, #8]
 800126c:	e01d      	b.n	80012aa <HAL_DMA_PollForTransfer+0x768>
 800126e:	4a73      	ldr	r2, [pc, #460]	; (800143c <HAL_DMA_PollForTransfer+0x8fa>)
 8001270:	4293      	cmp	r3, r2
 8001272:	d007      	beq.n	8001284 <HAL_DMA_PollForTransfer+0x742>
 8001274:	3218      	adds	r2, #24
 8001276:	4293      	cmp	r3, r2
 8001278:	bf14      	ite	ne
 800127a:	f04f 6300 	movne.w	r3, #134217728	; 0x8000000
 800127e:	f44f 1300 	moveq.w	r3, #2097152	; 0x200000
 8001282:	e001      	b.n	8001288 <HAL_DMA_PollForTransfer+0x746>
 8001284:	f44f 6300 	mov.w	r3, #2048	; 0x800
 8001288:	60cb      	str	r3, [r1, #12]
 800128a:	e023      	b.n	80012d4 <HAL_DMA_PollForTransfer+0x792>
 800128c:	4a6c      	ldr	r2, [pc, #432]	; (8001440 <HAL_DMA_PollForTransfer+0x8fe>)
 800128e:	4293      	cmp	r3, r2
 8001290:	d007      	beq.n	80012a2 <HAL_DMA_PollForTransfer+0x760>
 8001292:	3218      	adds	r2, #24
 8001294:	4293      	cmp	r3, r2
 8001296:	bf14      	ite	ne
 8001298:	f04f 6300 	movne.w	r3, #134217728	; 0x8000000
 800129c:	f44f 1300 	moveq.w	r3, #2097152	; 0x200000
 80012a0:	e001      	b.n	80012a6 <HAL_DMA_PollForTransfer+0x764>
 80012a2:	f44f 6300 	mov.w	r3, #2048	; 0x800
 80012a6:	608b      	str	r3, [r1, #8]
 80012a8:	e014      	b.n	80012d4 <HAL_DMA_PollForTransfer+0x792>
 80012aa:	4a5c      	ldr	r2, [pc, #368]	; (800141c <HAL_DMA_PollForTransfer+0x8da>)
 80012ac:	4293      	cmp	r3, r2
 80012ae:	f240 8161 	bls.w	8001574 <HAL_DMA_PollForTransfer+0xa32>
 80012b2:	4a5b      	ldr	r2, [pc, #364]	; (8001420 <HAL_DMA_PollForTransfer+0x8de>)
 80012b4:	4293      	cmp	r3, r2
 80012b6:	f000 8158 	beq.w	800156a <HAL_DMA_PollForTransfer+0xa28>
 80012ba:	3218      	adds	r2, #24
 80012bc:	4293      	cmp	r3, r2
 80012be:	f000 8156 	beq.w	800156e <HAL_DMA_PollForTransfer+0xa2c>
 80012c2:	3218      	adds	r2, #24
 80012c4:	4293      	cmp	r3, r2
 80012c6:	bf14      	ite	ne
 80012c8:	f04f 6300 	movne.w	r3, #134217728	; 0x8000000
 80012cc:	f44f 1300 	moveq.w	r3, #2097152	; 0x200000
 80012d0:	4a54      	ldr	r2, [pc, #336]	; (8001424 <HAL_DMA_PollForTransfer+0x8e2>)
 80012d2:	60d3      	str	r3, [r2, #12]
 80012d4:	2311      	movs	r3, #17
 80012d6:	f884 3035 	strb.w	r3, [r4, #53]	; 0x35
 80012da:	2000      	movs	r0, #0
 80012dc:	f884 0034 	strb.w	r0, [r4, #52]	; 0x34
 80012e0:	e8bd 87f0 	ldmia.w	sp!, {r4, r5, r6, r7, r8, r9, sl, pc}
 80012e4:	6819      	ldr	r1, [r3, #0]
 80012e6:	0349      	lsls	r1, r1, #13
 80012e8:	d569      	bpl.n	80013be <HAL_DMA_PollForTransfer+0x87c>
 80012ea:	4293      	cmp	r3, r2
 80012ec:	d913      	bls.n	8001316 <HAL_DMA_PollForTransfer+0x7d4>
 80012ee:	4a4f      	ldr	r2, [pc, #316]	; (800142c <HAL_DMA_PollForTransfer+0x8ea>)
 80012f0:	4293      	cmp	r3, r2
 80012f2:	d00a      	beq.n	800130a <HAL_DMA_PollForTransfer+0x7c8>
 80012f4:	3218      	adds	r2, #24
 80012f6:	4293      	cmp	r3, r2
 80012f8:	d009      	beq.n	800130e <HAL_DMA_PollForTransfer+0x7cc>
 80012fa:	3218      	adds	r2, #24
 80012fc:	4293      	cmp	r3, r2
 80012fe:	bf14      	ite	ne
 8001300:	f04f 6280 	movne.w	r2, #67108864	; 0x4000000
 8001304:	f44f 1280 	moveq.w	r2, #1048576	; 0x100000
 8001308:	e003      	b.n	8001312 <HAL_DMA_PollForTransfer+0x7d0>
 800130a:	2210      	movs	r2, #16
 800130c:	e001      	b.n	8001312 <HAL_DMA_PollForTransfer+0x7d0>
 800130e:	f44f 6280 	mov.w	r2, #1024	; 0x400
 8001312:	4947      	ldr	r1, [pc, #284]	; (8001430 <HAL_DMA_PollForTransfer+0x8ee>)
 8001314:	e02d      	b.n	8001372 <HAL_DMA_PollForTransfer+0x830>
 8001316:	4a47      	ldr	r2, [pc, #284]	; (8001434 <HAL_DMA_PollForTransfer+0x8f2>)
 8001318:	4293      	cmp	r3, r2
 800131a:	d914      	bls.n	8001346 <HAL_DMA_PollForTransfer+0x804>
 800131c:	f502 7256 	add.w	r2, r2, #856	; 0x358
 8001320:	4293      	cmp	r3, r2
 8001322:	d00a      	beq.n	800133a <HAL_DMA_PollForTransfer+0x7f8>
 8001324:	3218      	adds	r2, #24
 8001326:	4293      	cmp	r3, r2
 8001328:	d009      	beq.n	800133e <HAL_DMA_PollForTransfer+0x7fc>
 800132a:	3218      	adds	r2, #24
 800132c:	4293      	cmp	r3, r2
 800132e:	bf14      	ite	ne
 8001330:	f04f 6280 	movne.w	r2, #67108864	; 0x4000000
 8001334:	f44f 1280 	moveq.w	r2, #1048576	; 0x100000
 8001338:	e003      	b.n	8001342 <HAL_DMA_PollForTransfer+0x800>
 800133a:	2210      	movs	r2, #16
 800133c:	e001      	b.n	8001342 <HAL_DMA_PollForTransfer+0x800>
 800133e:	f44f 6280 	mov.w	r2, #1024	; 0x400
 8001342:	493b      	ldr	r1, [pc, #236]	; (8001430 <HAL_DMA_PollForTransfer+0x8ee>)
 8001344:	e02a      	b.n	800139c <HAL_DMA_PollForTransfer+0x85a>
 8001346:	4a35      	ldr	r2, [pc, #212]	; (800141c <HAL_DMA_PollForTransfer+0x8da>)
 8001348:	4293      	cmp	r3, r2
 800134a:	d914      	bls.n	8001376 <HAL_DMA_PollForTransfer+0x834>
 800134c:	3218      	adds	r2, #24
 800134e:	4293      	cmp	r3, r2
 8001350:	d00a      	beq.n	8001368 <HAL_DMA_PollForTransfer+0x826>
 8001352:	3218      	adds	r2, #24
 8001354:	4293      	cmp	r3, r2
 8001356:	d009      	beq.n	800136c <HAL_DMA_PollForTransfer+0x82a>
 8001358:	3218      	adds	r2, #24
 800135a:	4293      	cmp	r3, r2
 800135c:	bf14      	ite	ne
 800135e:	f04f 6280 	movne.w	r2, #67108864	; 0x4000000
 8001362:	f44f 1280 	moveq.w	r2, #1048576	; 0x100000
 8001366:	e003      	b.n	8001370 <HAL_DMA_PollForTransfer+0x82e>
 8001368:	2210      	movs	r2, #16
 800136a:	e001      	b.n	8001370 <HAL_DMA_PollForTransfer+0x82e>
 800136c:	f44f 6280 	mov.w	r2, #1024	; 0x400
 8001370:	492c      	ldr	r1, [pc, #176]	; (8001424 <HAL_DMA_PollForTransfer+0x8e2>)
 8001372:	60ca      	str	r2, [r1, #12]
 8001374:	e013      	b.n	800139e <HAL_DMA_PollForTransfer+0x85c>
 8001376:	4a2c      	ldr	r2, [pc, #176]	; (8001428 <HAL_DMA_PollForTransfer+0x8e6>)
 8001378:	4293      	cmp	r3, r2
 800137a:	d00a      	beq.n	8001392 <HAL_DMA_PollForTransfer+0x850>
 800137c:	3218      	adds	r2, #24
 800137e:	4293      	cmp	r3, r2
 8001380:	d009      	beq.n	8001396 <HAL_DMA_PollForTransfer+0x854>
 8001382:	3218      	adds	r2, #24
 8001384:	4293      	cmp	r3, r2
 8001386:	bf14      	ite	ne
 8001388:	f04f 6280 	movne.w	r2, #67108864	; 0x4000000
 800138c:	f44f 1280 	moveq.w	r2, #1048576	; 0x100000
 8001390:	e003      	b.n	800139a <HAL_DMA_PollForTransfer+0x858>
 8001392:	2210      	movs	r2, #16
 8001394:	e001      	b.n	800139a <HAL_DMA_PollForTransfer+0x858>
 8001396:	f44f 6280 	mov.w	r2, #1024	; 0x400
 800139a:	4922      	ldr	r1, [pc, #136]	; (8001424 <HAL_DMA_PollForTransfer+0x8e2>)
 800139c:	608a      	str	r2, [r1, #8]
 800139e:	6818      	ldr	r0, [r3, #0]
 80013a0:	f410 2000 	ands.w	r0, r0, #524288	; 0x80000
 80013a4:	d104      	bne.n	80013b0 <HAL_DMA_PollForTransfer+0x86e>
 80013a6:	2331      	movs	r3, #49	; 0x31
 80013a8:	f884 3035 	strb.w	r3, [r4, #53]	; 0x35
 80013ac:	e8bd 87f0 	ldmia.w	sp!, {r4, r5, r6, r7, r8, r9, sl, pc}
 80013b0:	6818      	ldr	r0, [r3, #0]
 80013b2:	f410 2000 	ands.w	r0, r0, #524288	; 0x80000
 80013b6:	f000 80f2 	beq.w	800159e <HAL_DMA_PollForTransfer+0xa5c>
 80013ba:	2341      	movs	r3, #65	; 0x41
 80013bc:	e06f      	b.n	800149e <HAL_DMA_PollForTransfer+0x95c>
 80013be:	4293      	cmp	r3, r2
 80013c0:	d913      	bls.n	80013ea <HAL_DMA_PollForTransfer+0x8a8>
 80013c2:	4a1a      	ldr	r2, [pc, #104]	; (800142c <HAL_DMA_PollForTransfer+0x8ea>)
 80013c4:	4293      	cmp	r3, r2
 80013c6:	d00a      	beq.n	80013de <HAL_DMA_PollForTransfer+0x89c>
 80013c8:	3218      	adds	r2, #24
 80013ca:	4293      	cmp	r3, r2
 80013cc:	d009      	beq.n	80013e2 <HAL_DMA_PollForTransfer+0x8a0>
 80013ce:	3218      	adds	r2, #24
 80013d0:	4293      	cmp	r3, r2
 80013d2:	bf14      	ite	ne
 80013d4:	f04f 6380 	movne.w	r3, #67108864	; 0x4000000
 80013d8:	f44f 1380 	moveq.w	r3, #1048576	; 0x100000
 80013dc:	e003      	b.n	80013e6 <HAL_DMA_PollForTransfer+0x8a4>
 80013de:	2310      	movs	r3, #16
 80013e0:	e001      	b.n	80013e6 <HAL_DMA_PollForTransfer+0x8a4>
 80013e2:	f44f 6380 	mov.w	r3, #1024	; 0x400
 80013e6:	4a12      	ldr	r2, [pc, #72]	; (8001430 <HAL_DMA_PollForTransfer+0x8ee>)
 80013e8:	e042      	b.n	8001470 <HAL_DMA_PollForTransfer+0x92e>
 80013ea:	4a12      	ldr	r2, [pc, #72]	; (8001434 <HAL_DMA_PollForTransfer+0x8f2>)
 80013ec:	4293      	cmp	r3, r2
 80013ee:	d929      	bls.n	8001444 <HAL_DMA_PollForTransfer+0x902>
 80013f0:	f502 7256 	add.w	r2, r2, #856	; 0x358
 80013f4:	4293      	cmp	r3, r2
 80013f6:	d00a      	beq.n	800140e <HAL_DMA_PollForTransfer+0x8cc>
 80013f8:	3218      	adds	r2, #24
 80013fa:	4293      	cmp	r3, r2
 80013fc:	d009      	beq.n	8001412 <HAL_DMA_PollForTransfer+0x8d0>
 80013fe:	3218      	adds	r2, #24
 8001400:	4293      	cmp	r3, r2
 8001402:	bf14      	ite	ne
 8001404:	f04f 6380 	movne.w	r3, #67108864	; 0x4000000
 8001408:	f44f 1380 	moveq.w	r3, #1048576	; 0x100000
 800140c:	e003      	b.n	8001416 <HAL_DMA_PollForTransfer+0x8d4>
 800140e:	2310      	movs	r3, #16
 8001410:	e001      	b.n	8001416 <HAL_DMA_PollForTransfer+0x8d4>
 8001412:	f44f 6380 	mov.w	r3, #1024	; 0x400
 8001416:	4a06      	ldr	r2, [pc, #24]	; (8001430 <HAL_DMA_PollForTransfer+0x8ee>)
 8001418:	e03f      	b.n	800149a <HAL_DMA_PollForTransfer+0x958>
 800141a:	bf00      	nop
 800141c:	40026058 	.word	0x40026058
 8001420:	40026070 	.word	0x40026070
 8001424:	40026000 	.word	0x40026000
 8001428:	40026010 	.word	0x40026010
 800142c:	40026470 	.word	0x40026470
 8001430:	40026400 	.word	0x40026400
 8001434:	400260b8 	.word	0x400260b8
 8001438:	40026410 	.word	0x40026410
 800143c:	40026488 	.word	0x40026488
 8001440:	40026428 	.word	0x40026428
 8001444:	4a57      	ldr	r2, [pc, #348]	; (80015a4 <HAL_DMA_PollForTransfer+0xa62>)
 8001446:	4293      	cmp	r3, r2
 8001448:	d914      	bls.n	8001474 <HAL_DMA_PollForTransfer+0x932>
 800144a:	3218      	adds	r2, #24
 800144c:	4293      	cmp	r3, r2
 800144e:	d00a      	beq.n	8001466 <HAL_DMA_PollForTransfer+0x924>
 8001450:	3218      	adds	r2, #24
 8001452:	4293      	cmp	r3, r2
 8001454:	d009      	beq.n	800146a <HAL_DMA_PollForTransfer+0x928>
 8001456:	3218      	adds	r2, #24
 8001458:	4293      	cmp	r3, r2
 800145a:	bf14      	ite	ne
 800145c:	f04f 6380 	movne.w	r3, #67108864	; 0x4000000
 8001460:	f44f 1380 	moveq.w	r3, #1048576	; 0x100000
 8001464:	e003      	b.n	800146e <HAL_DMA_PollForTransfer+0x92c>
 8001466:	2310      	movs	r3, #16
 8001468:	e001      	b.n	800146e <HAL_DMA_PollForTransfer+0x92c>
 800146a:	f44f 6380 	mov.w	r3, #1024	; 0x400
 800146e:	4a4e      	ldr	r2, [pc, #312]	; (80015a8 <HAL_DMA_PollForTransfer+0xa66>)
 8001470:	60d3      	str	r3, [r2, #12]
 8001472:	e013      	b.n	800149c <HAL_DMA_PollForTransfer+0x95a>
 8001474:	4a4d      	ldr	r2, [pc, #308]	; (80015ac <HAL_DMA_PollForTransfer+0xa6a>)
 8001476:	4293      	cmp	r3, r2
 8001478:	d00a      	beq.n	8001490 <HAL_DMA_PollForTransfer+0x94e>
 800147a:	3218      	adds	r2, #24
 800147c:	4293      	cmp	r3, r2
 800147e:	d009      	beq.n	8001494 <HAL_DMA_PollForTransfer+0x952>
 8001480:	3218      	adds	r2, #24
 8001482:	4293      	cmp	r3, r2
 8001484:	bf14      	ite	ne
 8001486:	f04f 6380 	movne.w	r3, #67108864	; 0x4000000
 800148a:	f44f 1380 	moveq.w	r3, #1048576	; 0x100000
 800148e:	e003      	b.n	8001498 <HAL_DMA_PollForTransfer+0x956>
 8001490:	2310      	movs	r3, #16
 8001492:	e001      	b.n	8001498 <HAL_DMA_PollForTransfer+0x956>
 8001494:	f44f 6380 	mov.w	r3, #1024	; 0x400
 8001498:	4a43      	ldr	r2, [pc, #268]	; (80015a8 <HAL_DMA_PollForTransfer+0xa66>)
 800149a:	6093      	str	r3, [r2, #8]
 800149c:	2331      	movs	r3, #49	; 0x31
 800149e:	f884 3035 	strb.w	r3, [r4, #53]	; 0x35
 80014a2:	2000      	movs	r0, #0
 80014a4:	e8bd 87f0 	ldmia.w	sp!, {r4, r5, r6, r7, r8, r9, sl, pc}
 80014a8:	2208      	movs	r2, #8
 80014aa:	e41f      	b.n	8000cec <HAL_DMA_PollForTransfer+0x1aa>
 80014ac:	f44f 7200 	mov.w	r2, #512	; 0x200
 80014b0:	e41c      	b.n	8000cec <HAL_DMA_PollForTransfer+0x1aa>
 80014b2:	4a3f      	ldr	r2, [pc, #252]	; (80015b0 <HAL_DMA_PollForTransfer+0xa6e>)
 80014b4:	4293      	cmp	r3, r2
 80014b6:	d914      	bls.n	80014e2 <HAL_DMA_PollForTransfer+0x9a0>
 80014b8:	f502 7256 	add.w	r2, r2, #856	; 0x358
 80014bc:	4293      	cmp	r3, r2
 80014be:	d00a      	beq.n	80014d6 <HAL_DMA_PollForTransfer+0x994>
 80014c0:	3218      	adds	r2, #24
 80014c2:	4293      	cmp	r3, r2
 80014c4:	d009      	beq.n	80014da <HAL_DMA_PollForTransfer+0x998>
 80014c6:	3218      	adds	r2, #24
 80014c8:	4293      	cmp	r3, r2
 80014ca:	bf14      	ite	ne
 80014cc:	f04f 7200 	movne.w	r2, #33554432	; 0x2000000
 80014d0:	f44f 2200 	moveq.w	r2, #524288	; 0x80000
 80014d4:	e003      	b.n	80014de <HAL_DMA_PollForTransfer+0x99c>
 80014d6:	2208      	movs	r2, #8
 80014d8:	e001      	b.n	80014de <HAL_DMA_PollForTransfer+0x99c>
 80014da:	f44f 7200 	mov.w	r2, #512	; 0x200
 80014de:	4935      	ldr	r1, [pc, #212]	; (80015b4 <HAL_DMA_PollForTransfer+0xa72>)
 80014e0:	e02a      	b.n	8001538 <HAL_DMA_PollForTransfer+0x9f6>
 80014e2:	4a30      	ldr	r2, [pc, #192]	; (80015a4 <HAL_DMA_PollForTransfer+0xa62>)
 80014e4:	4293      	cmp	r3, r2
 80014e6:	d914      	bls.n	8001512 <HAL_DMA_PollForTransfer+0x9d0>
 80014e8:	3218      	adds	r2, #24
 80014ea:	4293      	cmp	r3, r2
 80014ec:	d00a      	beq.n	8001504 <HAL_DMA_PollForTransfer+0x9c2>
 80014ee:	3218      	adds	r2, #24
 80014f0:	4293      	cmp	r3, r2
 80014f2:	d009      	beq.n	8001508 <HAL_DMA_PollForTransfer+0x9c6>
 80014f4:	3218      	adds	r2, #24
 80014f6:	4293      	cmp	r3, r2
 80014f8:	bf14      	ite	ne
 80014fa:	f04f 7200 	movne.w	r2, #33554432	; 0x2000000
 80014fe:	f44f 2200 	moveq.w	r2, #524288	; 0x80000
 8001502:	e003      	b.n	800150c <HAL_DMA_PollForTransfer+0x9ca>
 8001504:	2208      	movs	r2, #8
 8001506:	e001      	b.n	800150c <HAL_DMA_PollForTransfer+0x9ca>
 8001508:	f44f 7200 	mov.w	r2, #512	; 0x200
 800150c:	4926      	ldr	r1, [pc, #152]	; (80015a8 <HAL_DMA_PollForTransfer+0xa66>)
 800150e:	f7ff bbee 	b.w	8000cee <HAL_DMA_PollForTransfer+0x1ac>
 8001512:	4a26      	ldr	r2, [pc, #152]	; (80015ac <HAL_DMA_PollForTransfer+0xa6a>)
 8001514:	4293      	cmp	r3, r2
 8001516:	d00a      	beq.n	800152e <HAL_DMA_PollForTransfer+0x9ec>
 8001518:	3218      	adds	r2, #24
 800151a:	4293      	cmp	r3, r2
 800151c:	d009      	beq.n	8001532 <HAL_DMA_PollForTransfer+0x9f0>
 800151e:	3218      	adds	r2, #24
 8001520:	4293      	cmp	r3, r2
 8001522:	bf14      	ite	ne
 8001524:	f04f 7200 	movne.w	r2, #33554432	; 0x2000000
 8001528:	f44f 2200 	moveq.w	r2, #524288	; 0x80000
 800152c:	e003      	b.n	8001536 <HAL_DMA_PollForTransfer+0x9f4>
 800152e:	2208      	movs	r2, #8
 8001530:	e001      	b.n	8001536 <HAL_DMA_PollForTransfer+0x9f4>
 8001532:	f44f 7200 	mov.w	r2, #512	; 0x200
 8001536:	491c      	ldr	r1, [pc, #112]	; (80015a8 <HAL_DMA_PollForTransfer+0xa66>)
 8001538:	608a      	str	r2, [r1, #8]
 800153a:	f7ff bbd9 	b.w	8000cf0 <HAL_DMA_PollForTransfer+0x1ae>
 800153e:	6ce3      	ldr	r3, [r4, #76]	; 0x4c
 8001540:	f043 0320 	orr.w	r3, r3, #32
 8001544:	64e3      	str	r3, [r4, #76]	; 0x4c
 8001546:	2003      	movs	r0, #3
 8001548:	2300      	movs	r3, #0
 800154a:	f884 0035 	strb.w	r0, [r4, #53]	; 0x35
 800154e:	f884 3034 	strb.w	r3, [r4, #52]	; 0x34
 8001552:	e8bd 87f0 	ldmia.w	sp!, {r4, r5, r6, r7, r8, r9, sl, pc}
 8001556:	2220      	movs	r2, #32
 8001558:	e606      	b.n	8001168 <HAL_DMA_PollForTransfer+0x626>
 800155a:	f44f 6200 	mov.w	r2, #2048	; 0x800
 800155e:	e603      	b.n	8001168 <HAL_DMA_PollForTransfer+0x626>
 8001560:	2220      	movs	r2, #32
 8001562:	e613      	b.n	800118c <HAL_DMA_PollForTransfer+0x64a>
 8001564:	f44f 6200 	mov.w	r2, #2048	; 0x800
 8001568:	e610      	b.n	800118c <HAL_DMA_PollForTransfer+0x64a>
 800156a:	2320      	movs	r3, #32
 800156c:	e6b0      	b.n	80012d0 <HAL_DMA_PollForTransfer+0x78e>
 800156e:	f44f 6300 	mov.w	r3, #2048	; 0x800
 8001572:	e6ad      	b.n	80012d0 <HAL_DMA_PollForTransfer+0x78e>
 8001574:	4a0d      	ldr	r2, [pc, #52]	; (80015ac <HAL_DMA_PollForTransfer+0xa6a>)
 8001576:	4293      	cmp	r3, r2
 8001578:	d00a      	beq.n	8001590 <HAL_DMA_PollForTransfer+0xa4e>
 800157a:	3218      	adds	r2, #24
 800157c:	4293      	cmp	r3, r2
 800157e:	d009      	beq.n	8001594 <HAL_DMA_PollForTransfer+0xa52>
 8001580:	3218      	adds	r2, #24
 8001582:	4293      	cmp	r3, r2
 8001584:	bf14      	ite	ne
 8001586:	f04f 6300 	movne.w	r3, #134217728	; 0x8000000
 800158a:	f44f 1300 	moveq.w	r3, #2097152	; 0x200000
 800158e:	e003      	b.n	8001598 <HAL_DMA_PollForTransfer+0xa56>
 8001590:	2320      	movs	r3, #32
 8001592:	e001      	b.n	8001598 <HAL_DMA_PollForTransfer+0xa56>
 8001594:	f44f 6300 	mov.w	r3, #2048	; 0x800
 8001598:	4a03      	ldr	r2, [pc, #12]	; (80015a8 <HAL_DMA_PollForTransfer+0xa66>)
 800159a:	6093      	str	r3, [r2, #8]
 800159c:	e69a      	b.n	80012d4 <HAL_DMA_PollForTransfer+0x792>
 800159e:	e8bd 87f0 	ldmia.w	sp!, {r4, r5, r6, r7, r8, r9, sl, pc}
 80015a2:	bf00      	nop
 80015a4:	40026058 	.word	0x40026058
 80015a8:	40026000 	.word	0x40026000
 80015ac:	40026010 	.word	0x40026010
 80015b0:	400260b8 	.word	0x400260b8
 80015b4:	40026400 	.word	0x40026400

080015b8 <HAL_DMA_IRQHandler>:
 80015b8:	6803      	ldr	r3, [r0, #0]
 80015ba:	4aa6      	ldr	r2, [pc, #664]	; (8001854 <HAL_DMA_IRQHandler+0x29c>)
 80015bc:	4293      	cmp	r3, r2
 80015be:	b510      	push	{r4, lr}
 80015c0:	4604      	mov	r4, r0
 80015c2:	d903      	bls.n	80015cc <HAL_DMA_IRQHandler+0x14>
 80015c4:	f852 1c54 	ldr.w	r1, [r2, #-84]
 80015c8:	3218      	adds	r2, #24
 80015ca:	e010      	b.n	80015ee <HAL_DMA_IRQHandler+0x36>
 80015cc:	4aa2      	ldr	r2, [pc, #648]	; (8001858 <HAL_DMA_IRQHandler+0x2a0>)
 80015ce:	4293      	cmp	r3, r2
 80015d0:	d904      	bls.n	80015dc <HAL_DMA_IRQHandler+0x24>
 80015d2:	f8d2 1348 	ldr.w	r1, [r2, #840]	; 0x348
 80015d6:	f502 7256 	add.w	r2, r2, #856	; 0x358
 80015da:	e008      	b.n	80015ee <HAL_DMA_IRQHandler+0x36>
 80015dc:	4a9f      	ldr	r2, [pc, #636]	; (800185c <HAL_DMA_IRQHandler+0x2a4>)
 80015de:	4293      	cmp	r3, r2
 80015e0:	f1a2 0258 	sub.w	r2, r2, #88	; 0x58
 80015e4:	bf99      	ittee	ls
 80015e6:	6811      	ldrls	r1, [r2, #0]
 80015e8:	4a9d      	ldrls	r2, [pc, #628]	; (8001860 <HAL_DMA_IRQHandler+0x2a8>)
 80015ea:	6851      	ldrhi	r1, [r2, #4]
 80015ec:	3270      	addhi	r2, #112	; 0x70
 80015ee:	4293      	cmp	r3, r2
 80015f0:	d00a      	beq.n	8001608 <HAL_DMA_IRQHandler+0x50>
 80015f2:	3218      	adds	r2, #24
 80015f4:	4293      	cmp	r3, r2
 80015f6:	d009      	beq.n	800160c <HAL_DMA_IRQHandler+0x54>
 80015f8:	3218      	adds	r2, #24
 80015fa:	4293      	cmp	r3, r2
 80015fc:	bf14      	ite	ne
 80015fe:	f04f 7200 	movne.w	r2, #33554432	; 0x2000000
 8001602:	f44f 2200 	moveq.w	r2, #524288	; 0x80000
 8001606:	e003      	b.n	8001610 <HAL_DMA_IRQHandler+0x58>
 8001608:	2208      	movs	r2, #8
 800160a:	e001      	b.n	8001610 <HAL_DMA_IRQHandler+0x58>
 800160c:	f44f 7200 	mov.w	r2, #512	; 0x200
 8001610:	420a      	tst	r2, r1
 8001612:	bf0c      	ite	eq
 8001614:	2200      	moveq	r2, #0
 8001616:	2201      	movne	r2, #1
 8001618:	2a00      	cmp	r2, #0
 800161a:	d06f      	beq.n	80016fc <HAL_DMA_IRQHandler+0x144>
 800161c:	681a      	ldr	r2, [r3, #0]
 800161e:	0751      	lsls	r1, r2, #29
 8001620:	d56c      	bpl.n	80016fc <HAL_DMA_IRQHandler+0x144>
 8001622:	681a      	ldr	r2, [r3, #0]
 8001624:	f022 0204 	bic.w	r2, r2, #4
 8001628:	601a      	str	r2, [r3, #0]
 800162a:	4a8a      	ldr	r2, [pc, #552]	; (8001854 <HAL_DMA_IRQHandler+0x29c>)
 800162c:	4293      	cmp	r3, r2
 800162e:	d913      	bls.n	8001658 <HAL_DMA_IRQHandler+0xa0>
 8001630:	3218      	adds	r2, #24
 8001632:	4293      	cmp	r3, r2
 8001634:	d00a      	beq.n	800164c <HAL_DMA_IRQHandler+0x94>
 8001636:	3218      	adds	r2, #24
 8001638:	4293      	cmp	r3, r2
 800163a:	d009      	beq.n	8001650 <HAL_DMA_IRQHandler+0x98>
 800163c:	3218      	adds	r2, #24
 800163e:	4293      	cmp	r3, r2
 8001640:	bf14      	ite	ne
 8001642:	f04f 7300 	movne.w	r3, #33554432	; 0x2000000
 8001646:	f44f 2300 	moveq.w	r3, #524288	; 0x80000
 800164a:	e003      	b.n	8001654 <HAL_DMA_IRQHandler+0x9c>
 800164c:	2308      	movs	r3, #8
 800164e:	e001      	b.n	8001654 <HAL_DMA_IRQHandler+0x9c>
 8001650:	f44f 7300 	mov.w	r3, #512	; 0x200
 8001654:	4a83      	ldr	r2, [pc, #524]	; (8001864 <HAL_DMA_IRQHandler+0x2ac>)
 8001656:	e02d      	b.n	80016b4 <HAL_DMA_IRQHandler+0xfc>
 8001658:	4a7f      	ldr	r2, [pc, #508]	; (8001858 <HAL_DMA_IRQHandler+0x2a0>)
 800165a:	4293      	cmp	r3, r2
 800165c:	d914      	bls.n	8001688 <HAL_DMA_IRQHandler+0xd0>
 800165e:	f502 7256 	add.w	r2, r2, #856	; 0x358
 8001662:	4293      	cmp	r3, r2
 8001664:	d00a      	beq.n	800167c <HAL_DMA_IRQHandler+0xc4>
 8001666:	3218      	adds	r2, #24
 8001668:	4293      	cmp	r3, r2
 800166a:	d009      	beq.n	8001680 <HAL_DMA_IRQHandler+0xc8>
 800166c:	3218      	adds	r2, #24
 800166e:	4293      	cmp	r3, r2
 8001670:	bf14      	ite	ne
 8001672:	f04f 7300 	movne.w	r3, #33554432	; 0x2000000
 8001676:	f44f 2300 	moveq.w	r3, #524288	; 0x80000
 800167a:	e003      	b.n	8001684 <HAL_DMA_IRQHandler+0xcc>
 800167c:	2308      	movs	r3, #8
 800167e:	e001      	b.n	8001684 <HAL_DMA_IRQHandler+0xcc>
 8001680:	f44f 7300 	mov.w	r3, #512	; 0x200
 8001684:	4a77      	ldr	r2, [pc, #476]	; (8001864 <HAL_DMA_IRQHandler+0x2ac>)
 8001686:	e02a      	b.n	80016de <HAL_DMA_IRQHandler+0x126>
 8001688:	4a74      	ldr	r2, [pc, #464]	; (800185c <HAL_DMA_IRQHandler+0x2a4>)
 800168a:	4293      	cmp	r3, r2
 800168c:	d914      	bls.n	80016b8 <HAL_DMA_IRQHandler+0x100>
 800168e:	3218      	adds	r2, #24
 8001690:	4293      	cmp	r3, r2
 8001692:	d00a      	beq.n	80016aa <HAL_DMA_IRQHandler+0xf2>
 8001694:	3218      	adds	r2, #24
 8001696:	4293      	cmp	r3, r2
 8001698:	d009      	beq.n	80016ae <HAL_DMA_IRQHandler+0xf6>
 800169a:	3218      	adds	r2, #24
 800169c:	4293      	cmp	r3, r2
 800169e:	bf14      	ite	ne
 80016a0:	f04f 7300 	movne.w	r3, #33554432	; 0x2000000
 80016a4:	f44f 2300 	moveq.w	r3, #524288	; 0x80000
 80016a8:	e003      	b.n	80016b2 <HAL_DMA_IRQHandler+0xfa>
 80016aa:	2308      	movs	r3, #8
 80016ac:	e001      	b.n	80016b2 <HAL_DMA_IRQHandler+0xfa>
 80016ae:	f44f 7300 	mov.w	r3, #512	; 0x200
 80016b2:	4a6d      	ldr	r2, [pc, #436]	; (8001868 <HAL_DMA_IRQHandler+0x2b0>)
 80016b4:	60d3      	str	r3, [r2, #12]
 80016b6:	e013      	b.n	80016e0 <HAL_DMA_IRQHandler+0x128>
 80016b8:	4a69      	ldr	r2, [pc, #420]	; (8001860 <HAL_DMA_IRQHandler+0x2a8>)
 80016ba:	4293      	cmp	r3, r2
 80016bc:	d00a      	beq.n	80016d4 <HAL_DMA_IRQHandler+0x11c>
 80016be:	3218      	adds	r2, #24
 80016c0:	4293      	cmp	r3, r2
 80016c2:	d009      	beq.n	80016d8 <HAL_DMA_IRQHandler+0x120>
 80016c4:	3218      	adds	r2, #24
 80016c6:	4293      	cmp	r3, r2
 80016c8:	bf14      	ite	ne
 80016ca:	f04f 7300 	movne.w	r3, #33554432	; 0x2000000
 80016ce:	f44f 2300 	moveq.w	r3, #524288	; 0x80000
 80016d2:	e003      	b.n	80016dc <HAL_DMA_IRQHandler+0x124>
 80016d4:	2308      	movs	r3, #8
 80016d6:	e001      	b.n	80016dc <HAL_DMA_IRQHandler+0x124>
 80016d8:	f44f 7300 	mov.w	r3, #512	; 0x200
 80016dc:	4a62      	ldr	r2, [pc, #392]	; (8001868 <HAL_DMA_IRQHandler+0x2b0>)
 80016de:	6093      	str	r3, [r2, #8]
 80016e0:	6ce3      	ldr	r3, [r4, #76]	; 0x4c
 80016e2:	f043 0301 	orr.w	r3, r3, #1
 80016e6:	64e3      	str	r3, [r4, #76]	; 0x4c
 80016e8:	2304      	movs	r3, #4
 80016ea:	f884 3035 	strb.w	r3, [r4, #53]	; 0x35
 80016ee:	2300      	movs	r3, #0
 80016f0:	f884 3034 	strb.w	r3, [r4, #52]	; 0x34
 80016f4:	6ca3      	ldr	r3, [r4, #72]	; 0x48
 80016f6:	b10b      	cbz	r3, 80016fc <HAL_DMA_IRQHandler+0x144>
 80016f8:	4620      	mov	r0, r4
 80016fa:	4798      	blx	r3
 80016fc:	6823      	ldr	r3, [r4, #0]
 80016fe:	4a55      	ldr	r2, [pc, #340]	; (8001854 <HAL_DMA_IRQHandler+0x29c>)
 8001700:	4293      	cmp	r3, r2
 8001702:	d903      	bls.n	800170c <HAL_DMA_IRQHandler+0x154>
 8001704:	f852 1c54 	ldr.w	r1, [r2, #-84]
 8001708:	3218      	adds	r2, #24
 800170a:	e010      	b.n	800172e <HAL_DMA_IRQHandler+0x176>
 800170c:	4a52      	ldr	r2, [pc, #328]	; (8001858 <HAL_DMA_IRQHandler+0x2a0>)
 800170e:	4293      	cmp	r3, r2
 8001710:	d904      	bls.n	800171c <HAL_DMA_IRQHandler+0x164>
 8001712:	f8d2 1348 	ldr.w	r1, [r2, #840]	; 0x348
 8001716:	f502 7256 	add.w	r2, r2, #856	; 0x358
 800171a:	e008      	b.n	800172e <HAL_DMA_IRQHandler+0x176>
 800171c:	4a4f      	ldr	r2, [pc, #316]	; (800185c <HAL_DMA_IRQHandler+0x2a4>)
 800171e:	4293      	cmp	r3, r2
 8001720:	f1a2 0258 	sub.w	r2, r2, #88	; 0x58
 8001724:	bf99      	ittee	ls
 8001726:	6811      	ldrls	r1, [r2, #0]
 8001728:	4a4d      	ldrls	r2, [pc, #308]	; (8001860 <HAL_DMA_IRQHandler+0x2a8>)
 800172a:	6851      	ldrhi	r1, [r2, #4]
 800172c:	3270      	addhi	r2, #112	; 0x70
 800172e:	4293      	cmp	r3, r2
 8001730:	d00a      	beq.n	8001748 <HAL_DMA_IRQHandler+0x190>
 8001732:	3218      	adds	r2, #24
 8001734:	4293      	cmp	r3, r2
 8001736:	d009      	beq.n	800174c <HAL_DMA_IRQHandler+0x194>
 8001738:	3218      	adds	r2, #24
 800173a:	4293      	cmp	r3, r2
 800173c:	bf14      	ite	ne
 800173e:	f44f 0280 	movne.w	r2, #4194304	; 0x400000
 8001742:	f44f 3280 	moveq.w	r2, #65536	; 0x10000
 8001746:	e002      	b.n	800174e <HAL_DMA_IRQHandler+0x196>
 8001748:	4a48      	ldr	r2, [pc, #288]	; (800186c <HAL_DMA_IRQHandler+0x2b4>)
 800174a:	e000      	b.n	800174e <HAL_DMA_IRQHandler+0x196>
 800174c:	2240      	movs	r2, #64	; 0x40
 800174e:	420a      	tst	r2, r1
 8001750:	bf0c      	ite	eq
 8001752:	2200      	moveq	r2, #0
 8001754:	2201      	movne	r2, #1
 8001756:	2a00      	cmp	r2, #0
 8001758:	d06b      	beq.n	8001832 <HAL_DMA_IRQHandler+0x27a>
 800175a:	695a      	ldr	r2, [r3, #20]
 800175c:	0612      	lsls	r2, r2, #24
 800175e:	d568      	bpl.n	8001832 <HAL_DMA_IRQHandler+0x27a>
 8001760:	695a      	ldr	r2, [r3, #20]
 8001762:	f022 0280 	bic.w	r2, r2, #128	; 0x80
 8001766:	615a      	str	r2, [r3, #20]
 8001768:	4a3a      	ldr	r2, [pc, #232]	; (8001854 <HAL_DMA_IRQHandler+0x29c>)
 800176a:	4293      	cmp	r3, r2
 800176c:	d912      	bls.n	8001794 <HAL_DMA_IRQHandler+0x1dc>
 800176e:	3218      	adds	r2, #24
 8001770:	4293      	cmp	r3, r2
 8001772:	d00a      	beq.n	800178a <HAL_DMA_IRQHandler+0x1d2>
 8001774:	3218      	adds	r2, #24
 8001776:	4293      	cmp	r3, r2
 8001778:	d009      	beq.n	800178e <HAL_DMA_IRQHandler+0x1d6>
 800177a:	3218      	adds	r2, #24
 800177c:	4293      	cmp	r3, r2
 800177e:	bf14      	ite	ne
 8001780:	f44f 0380 	movne.w	r3, #4194304	; 0x400000
 8001784:	f44f 3380 	moveq.w	r3, #65536	; 0x10000
 8001788:	e002      	b.n	8001790 <HAL_DMA_IRQHandler+0x1d8>
 800178a:	4b38      	ldr	r3, [pc, #224]	; (800186c <HAL_DMA_IRQHandler+0x2b4>)
 800178c:	e000      	b.n	8001790 <HAL_DMA_IRQHandler+0x1d8>
 800178e:	2340      	movs	r3, #64	; 0x40
 8001790:	4a34      	ldr	r2, [pc, #208]	; (8001864 <HAL_DMA_IRQHandler+0x2ac>)
 8001792:	e02b      	b.n	80017ec <HAL_DMA_IRQHandler+0x234>
 8001794:	4a30      	ldr	r2, [pc, #192]	; (8001858 <HAL_DMA_IRQHandler+0x2a0>)
 8001796:	4293      	cmp	r3, r2
 8001798:	d913      	bls.n	80017c2 <HAL_DMA_IRQHandler+0x20a>
 800179a:	f502 7256 	add.w	r2, r2, #856	; 0x358
 800179e:	4293      	cmp	r3, r2
 80017a0:	d00a      	beq.n	80017b8 <HAL_DMA_IRQHandler+0x200>
 80017a2:	3218      	adds	r2, #24
 80017a4:	4293      	cmp	r3, r2
 80017a6:	d009      	beq.n	80017bc <HAL_DMA_IRQHandler+0x204>
 80017a8:	3218      	adds	r2, #24
 80017aa:	4293      	cmp	r3, r2
 80017ac:	bf14      	ite	ne
 80017ae:	f44f 0380 	movne.w	r3, #4194304	; 0x400000
 80017b2:	f44f 3380 	moveq.w	r3, #65536	; 0x10000
 80017b6:	e002      	b.n	80017be <HAL_DMA_IRQHandler+0x206>
 80017b8:	4b2c      	ldr	r3, [pc, #176]	; (800186c <HAL_DMA_IRQHandler+0x2b4>)
 80017ba:	e000      	b.n	80017be <HAL_DMA_IRQHandler+0x206>
 80017bc:	2340      	movs	r3, #64	; 0x40
 80017be:	4a29      	ldr	r2, [pc, #164]	; (8001864 <HAL_DMA_IRQHandler+0x2ac>)
 80017c0:	e028      	b.n	8001814 <HAL_DMA_IRQHandler+0x25c>
 80017c2:	4a26      	ldr	r2, [pc, #152]	; (800185c <HAL_DMA_IRQHandler+0x2a4>)
 80017c4:	4293      	cmp	r3, r2
 80017c6:	d913      	bls.n	80017f0 <HAL_DMA_IRQHandler+0x238>
 80017c8:	3218      	adds	r2, #24
 80017ca:	4293      	cmp	r3, r2
 80017cc:	d00a      	beq.n	80017e4 <HAL_DMA_IRQHandler+0x22c>
 80017ce:	3218      	adds	r2, #24
 80017d0:	4293      	cmp	r3, r2
 80017d2:	d009      	beq.n	80017e8 <HAL_DMA_IRQHandler+0x230>
 80017d4:	3218      	adds	r2, #24
 80017d6:	4293      	cmp	r3, r2
 80017d8:	bf14      	ite	ne
 80017da:	f44f 0380 	movne.w	r3, #4194304	; 0x400000
 80017de:	f44f 3380 	moveq.w	r3, #65536	; 0x10000
 80017e2:	e002      	b.n	80017ea <HAL_DMA_IRQHandler+0x232>
 80017e4:	4b21      	ldr	r3, [pc, #132]	; (800186c <HAL_DMA_IRQHandler+0x2b4>)
 80017e6:	e000      	b.n	80017ea <HAL_DMA_IRQHandler+0x232>
 80017e8:	2340      	movs	r3, #64	; 0x40
 80017ea:	4a1f      	ldr	r2, [pc, #124]	; (8001868 <HAL_DMA_IRQHandler+0x2b0>)
 80017ec:	60d3      	str	r3, [r2, #12]
 80017ee:	e012      	b.n	8001816 <HAL_DMA_IRQHandler+0x25e>
 80017f0:	4a1b      	ldr	r2, [pc, #108]	; (8001860 <HAL_DMA_IRQHandler+0x2a8>)
 80017f2:	4293      	cmp	r3, r2
 80017f4:	d00a      	beq.n	800180c <HAL_DMA_IRQHandler+0x254>
 80017f6:	3218      	adds	r2, #24
 80017f8:	4293      	cmp	r3, r2
 80017fa:	d009      	beq.n	8001810 <HAL_DMA_IRQHandler+0x258>
 80017fc:	3218      	adds	r2, #24
 80017fe:	4293      	cmp	r3, r2
 8001800:	bf14      	ite	ne
 8001802:	f44f 0380 	movne.w	r3, #4194304	; 0x400000
 8001806:	f44f 3380 	moveq.w	r3, #65536	; 0x10000
 800180a:	e002      	b.n	8001812 <HAL_DMA_IRQHandler+0x25a>
 800180c:	4b17      	ldr	r3, [pc, #92]	; (800186c <HAL_DMA_IRQHandler+0x2b4>)
 800180e:	e000      	b.n	8001812 <HAL_DMA_IRQHandler+0x25a>
 8001810:	2340      	movs	r3, #64	; 0x40
 8001812:	4a15      	ldr	r2, [pc, #84]	; (8001868 <HAL_DMA_IRQHandler+0x2b0>)
 8001814:	6093      	str	r3, [r2, #8]
 8001816:	6ce3      	ldr	r3, [r4, #76]	; 0x4c
 8001818:	f043 0302 	orr.w	r3, r3, #2
 800181c:	64e3      	str	r3, [r4, #76]	; 0x4c
 800181e:	2304      	movs	r3, #4
 8001820:	f884 3035 	strb.w	r3, [r4, #53]	; 0x35
 8001824:	2300      	movs	r3, #0
 8001826:	f884 3034 	strb.w	r3, [r4, #52]	; 0x34
 800182a:	6ca3      	ldr	r3, [r4, #72]	; 0x48
 800182c:	b10b      	cbz	r3, 8001832 <HAL_DMA_IRQHandler+0x27a>
 800182e:	4620      	mov	r0, r4
 8001830:	4798      	blx	r3
 8001832:	6823      	ldr	r3, [r4, #0]
 8001834:	4a07      	ldr	r2, [pc, #28]	; (8001854 <HAL_DMA_IRQHandler+0x29c>)
 8001836:	4293      	cmp	r3, r2
 8001838:	d903      	bls.n	8001842 <HAL_DMA_IRQHandler+0x28a>
 800183a:	f852 1c54 	ldr.w	r1, [r2, #-84]
 800183e:	3218      	adds	r2, #24
 8001840:	e01f      	b.n	8001882 <HAL_DMA_IRQHandler+0x2ca>
 8001842:	4a05      	ldr	r2, [pc, #20]	; (8001858 <HAL_DMA_IRQHandler+0x2a0>)
 8001844:	4293      	cmp	r3, r2
 8001846:	d913      	bls.n	8001870 <HAL_DMA_IRQHandler+0x2b8>
 8001848:	f8d2 1348 	ldr.w	r1, [r2, #840]	; 0x348
 800184c:	f502 7256 	add.w	r2, r2, #856	; 0x358
 8001850:	e017      	b.n	8001882 <HAL_DMA_IRQHandler+0x2ca>
 8001852:	bf00      	nop
 8001854:	40026458 	.word	0x40026458
 8001858:	400260b8 	.word	0x400260b8
 800185c:	40026058 	.word	0x40026058
 8001860:	40026010 	.word	0x40026010
 8001864:	40026400 	.word	0x40026400
 8001868:	40026000 	.word	0x40026000
 800186c:	00800001 	.word	0x00800001
 8001870:	4aa4      	ldr	r2, [pc, #656]	; (8001b04 <HAL_DMA_IRQHandler+0x54c>)
 8001872:	4293      	cmp	r3, r2
 8001874:	f1a2 0258 	sub.w	r2, r2, #88	; 0x58
 8001878:	bf99      	ittee	ls
 800187a:	6811      	ldrls	r1, [r2, #0]
 800187c:	4aa2      	ldrls	r2, [pc, #648]	; (8001b08 <HAL_DMA_IRQHandler+0x550>)
 800187e:	6851      	ldrhi	r1, [r2, #4]
 8001880:	3270      	addhi	r2, #112	; 0x70
 8001882:	4293      	cmp	r3, r2
 8001884:	d00a      	beq.n	800189c <HAL_DMA_IRQHandler+0x2e4>
 8001886:	3218      	adds	r2, #24
 8001888:	4293      	cmp	r3, r2
 800188a:	d009      	beq.n	80018a0 <HAL_DMA_IRQHandler+0x2e8>
 800188c:	3218      	adds	r2, #24
 800188e:	4293      	cmp	r3, r2
 8001890:	bf14      	ite	ne
 8001892:	f04f 7280 	movne.w	r2, #16777216	; 0x1000000
 8001896:	f44f 2280 	moveq.w	r2, #262144	; 0x40000
 800189a:	e003      	b.n	80018a4 <HAL_DMA_IRQHandler+0x2ec>
 800189c:	4a9b      	ldr	r2, [pc, #620]	; (8001b0c <HAL_DMA_IRQHandler+0x554>)
 800189e:	e001      	b.n	80018a4 <HAL_DMA_IRQHandler+0x2ec>
 80018a0:	f44f 7280 	mov.w	r2, #256	; 0x100
 80018a4:	420a      	tst	r2, r1
 80018a6:	bf0c      	ite	eq
 80018a8:	2200      	moveq	r2, #0
 80018aa:	2201      	movne	r2, #1
 80018ac:	2a00      	cmp	r2, #0
 80018ae:	d06f      	beq.n	8001990 <HAL_DMA_IRQHandler+0x3d8>
 80018b0:	681a      	ldr	r2, [r3, #0]
 80018b2:	0790      	lsls	r0, r2, #30
 80018b4:	d56c      	bpl.n	8001990 <HAL_DMA_IRQHandler+0x3d8>
 80018b6:	681a      	ldr	r2, [r3, #0]
 80018b8:	f022 0202 	bic.w	r2, r2, #2
 80018bc:	601a      	str	r2, [r3, #0]
 80018be:	4a94      	ldr	r2, [pc, #592]	; (8001b10 <HAL_DMA_IRQHandler+0x558>)
 80018c0:	4293      	cmp	r3, r2
 80018c2:	d913      	bls.n	80018ec <HAL_DMA_IRQHandler+0x334>
 80018c4:	3218      	adds	r2, #24
 80018c6:	4293      	cmp	r3, r2
 80018c8:	d00a      	beq.n	80018e0 <HAL_DMA_IRQHandler+0x328>
 80018ca:	3218      	adds	r2, #24
 80018cc:	4293      	cmp	r3, r2
 80018ce:	d009      	beq.n	80018e4 <HAL_DMA_IRQHandler+0x32c>
 80018d0:	3218      	adds	r2, #24
 80018d2:	4293      	cmp	r3, r2
 80018d4:	bf14      	ite	ne
 80018d6:	f04f 7380 	movne.w	r3, #16777216	; 0x1000000
 80018da:	f44f 2380 	moveq.w	r3, #262144	; 0x40000
 80018de:	e003      	b.n	80018e8 <HAL_DMA_IRQHandler+0x330>
 80018e0:	4b8a      	ldr	r3, [pc, #552]	; (8001b0c <HAL_DMA_IRQHandler+0x554>)
 80018e2:	e001      	b.n	80018e8 <HAL_DMA_IRQHandler+0x330>
 80018e4:	f44f 7380 	mov.w	r3, #256	; 0x100
 80018e8:	4a8a      	ldr	r2, [pc, #552]	; (8001b14 <HAL_DMA_IRQHandler+0x55c>)
 80018ea:	e02d      	b.n	8001948 <HAL_DMA_IRQHandler+0x390>
 80018ec:	4a8a      	ldr	r2, [pc, #552]	; (8001b18 <HAL_DMA_IRQHandler+0x560>)
 80018ee:	4293      	cmp	r3, r2
 80018f0:	d914      	bls.n	800191c <HAL_DMA_IRQHandler+0x364>
 80018f2:	f502 7256 	add.w	r2, r2, #856	; 0x358
 80018f6:	4293      	cmp	r3, r2
 80018f8:	d00a      	beq.n	8001910 <HAL_DMA_IRQHandler+0x358>
 80018fa:	3218      	adds	r2, #24
 80018fc:	4293      	cmp	r3, r2
 80018fe:	d009      	beq.n	8001914 <HAL_DMA_IRQHandler+0x35c>
 8001900:	3218      	adds	r2, #24
 8001902:	4293      	cmp	r3, r2
 8001904:	bf14      	ite	ne
 8001906:	f04f 7380 	movne.w	r3, #16777216	; 0x1000000
 800190a:	f44f 2380 	moveq.w	r3, #262144	; 0x40000
 800190e:	e003      	b.n	8001918 <HAL_DMA_IRQHandler+0x360>
 8001910:	4b7e      	ldr	r3, [pc, #504]	; (8001b0c <HAL_DMA_IRQHandler+0x554>)
 8001912:	e001      	b.n	8001918 <HAL_DMA_IRQHandler+0x360>
 8001914:	f44f 7380 	mov.w	r3, #256	; 0x100
 8001918:	4a7e      	ldr	r2, [pc, #504]	; (8001b14 <HAL_DMA_IRQHandler+0x55c>)
 800191a:	e02a      	b.n	8001972 <HAL_DMA_IRQHandler+0x3ba>
 800191c:	4a79      	ldr	r2, [pc, #484]	; (8001b04 <HAL_DMA_IRQHandler+0x54c>)
 800191e:	4293      	cmp	r3, r2
 8001920:	d914      	bls.n	800194c <HAL_DMA_IRQHandler+0x394>
 8001922:	3218      	adds	r2, #24
 8001924:	4293      	cmp	r3, r2
 8001926:	d00a      	beq.n	800193e <HAL_DMA_IRQHandler+0x386>
 8001928:	3218      	adds	r2, #24
 800192a:	4293      	cmp	r3, r2
 800192c:	d009      	beq.n	8001942 <HAL_DMA_IRQHandler+0x38a>
 800192e:	3218      	adds	r2, #24
 8001930:	4293      	cmp	r3, r2
 8001932:	bf14      	ite	ne
 8001934:	f04f 7380 	movne.w	r3, #16777216	; 0x1000000
 8001938:	f44f 2380 	moveq.w	r3, #262144	; 0x40000
 800193c:	e003      	b.n	8001946 <HAL_DMA_IRQHandler+0x38e>
 800193e:	4b73      	ldr	r3, [pc, #460]	; (8001b0c <HAL_DMA_IRQHandler+0x554>)
 8001940:	e001      	b.n	8001946 <HAL_DMA_IRQHandler+0x38e>
 8001942:	f44f 7380 	mov.w	r3, #256	; 0x100
 8001946:	4a75      	ldr	r2, [pc, #468]	; (8001b1c <HAL_DMA_IRQHandler+0x564>)
 8001948:	60d3      	str	r3, [r2, #12]
 800194a:	e013      	b.n	8001974 <HAL_DMA_IRQHandler+0x3bc>
 800194c:	4a6e      	ldr	r2, [pc, #440]	; (8001b08 <HAL_DMA_IRQHandler+0x550>)
 800194e:	4293      	cmp	r3, r2
 8001950:	d00a      	beq.n	8001968 <HAL_DMA_IRQHandler+0x3b0>
 8001952:	3218      	adds	r2, #24
 8001954:	4293      	cmp	r3, r2
 8001956:	d009      	beq.n	800196c <HAL_DMA_IRQHandler+0x3b4>
 8001958:	3218      	adds	r2, #24
 800195a:	4293      	cmp	r3, r2
 800195c:	bf14      	ite	ne
 800195e:	f04f 7380 	movne.w	r3, #16777216	; 0x1000000
 8001962:	f44f 2380 	moveq.w	r3, #262144	; 0x40000
 8001966:	e003      	b.n	8001970 <HAL_DMA_IRQHandler+0x3b8>
 8001968:	4b68      	ldr	r3, [pc, #416]	; (8001b0c <HAL_DMA_IRQHandler+0x554>)
 800196a:	e001      	b.n	8001970 <HAL_DMA_IRQHandler+0x3b8>
 800196c:	f44f 7380 	mov.w	r3, #256	; 0x100
 8001970:	4a6a      	ldr	r2, [pc, #424]	; (8001b1c <HAL_DMA_IRQHandler+0x564>)
 8001972:	6093      	str	r3, [r2, #8]
 8001974:	6ce3      	ldr	r3, [r4, #76]	; 0x4c
 8001976:	f043 0304 	orr.w	r3, r3, #4
 800197a:	64e3      	str	r3, [r4, #76]	; 0x4c
 800197c:	2304      	movs	r3, #4
 800197e:	f884 3035 	strb.w	r3, [r4, #53]	; 0x35
 8001982:	2300      	movs	r3, #0
 8001984:	f884 3034 	strb.w	r3, [r4, #52]	; 0x34
 8001988:	6ca3      	ldr	r3, [r4, #72]	; 0x48
 800198a:	b10b      	cbz	r3, 8001990 <HAL_DMA_IRQHandler+0x3d8>
 800198c:	4620      	mov	r0, r4
 800198e:	4798      	blx	r3
 8001990:	6823      	ldr	r3, [r4, #0]
 8001992:	4a5f      	ldr	r2, [pc, #380]	; (8001b10 <HAL_DMA_IRQHandler+0x558>)
 8001994:	4293      	cmp	r3, r2
 8001996:	d903      	bls.n	80019a0 <HAL_DMA_IRQHandler+0x3e8>
 8001998:	f852 1c54 	ldr.w	r1, [r2, #-84]
 800199c:	3218      	adds	r2, #24
 800199e:	e010      	b.n	80019c2 <HAL_DMA_IRQHandler+0x40a>
 80019a0:	4a5d      	ldr	r2, [pc, #372]	; (8001b18 <HAL_DMA_IRQHandler+0x560>)
 80019a2:	4293      	cmp	r3, r2
 80019a4:	d904      	bls.n	80019b0 <HAL_DMA_IRQHandler+0x3f8>
 80019a6:	f8d2 1348 	ldr.w	r1, [r2, #840]	; 0x348
 80019aa:	f502 7256 	add.w	r2, r2, #856	; 0x358
 80019ae:	e008      	b.n	80019c2 <HAL_DMA_IRQHandler+0x40a>
 80019b0:	4a54      	ldr	r2, [pc, #336]	; (8001b04 <HAL_DMA_IRQHandler+0x54c>)
 80019b2:	4293      	cmp	r3, r2
 80019b4:	f1a2 0258 	sub.w	r2, r2, #88	; 0x58
 80019b8:	bf99      	ittee	ls
 80019ba:	6811      	ldrls	r1, [r2, #0]
 80019bc:	4a52      	ldrls	r2, [pc, #328]	; (8001b08 <HAL_DMA_IRQHandler+0x550>)
 80019be:	6851      	ldrhi	r1, [r2, #4]
 80019c0:	3270      	addhi	r2, #112	; 0x70
 80019c2:	4293      	cmp	r3, r2
 80019c4:	d00a      	beq.n	80019dc <HAL_DMA_IRQHandler+0x424>
 80019c6:	3218      	adds	r2, #24
 80019c8:	4293      	cmp	r3, r2
 80019ca:	d009      	beq.n	80019e0 <HAL_DMA_IRQHandler+0x428>
 80019cc:	3218      	adds	r2, #24
 80019ce:	4293      	cmp	r3, r2
 80019d0:	bf14      	ite	ne
 80019d2:	f04f 6280 	movne.w	r2, #67108864	; 0x4000000
 80019d6:	f44f 1280 	moveq.w	r2, #1048576	; 0x100000
 80019da:	e003      	b.n	80019e4 <HAL_DMA_IRQHandler+0x42c>
 80019dc:	2210      	movs	r2, #16
 80019de:	e001      	b.n	80019e4 <HAL_DMA_IRQHandler+0x42c>
 80019e0:	f44f 6280 	mov.w	r2, #1024	; 0x400
 80019e4:	420a      	tst	r2, r1
 80019e6:	bf0c      	ite	eq
 80019e8:	2200      	moveq	r2, #0
 80019ea:	2201      	movne	r2, #1
 80019ec:	2a00      	cmp	r2, #0
 80019ee:	f000 80e4 	beq.w	8001bba <HAL_DMA_IRQHandler+0x602>
 80019f2:	681a      	ldr	r2, [r3, #0]
 80019f4:	0711      	lsls	r1, r2, #28
 80019f6:	f140 80e0 	bpl.w	8001bba <HAL_DMA_IRQHandler+0x602>
 80019fa:	681a      	ldr	r2, [r3, #0]
 80019fc:	f412 2f80 	tst.w	r2, #262144	; 0x40000
 8001a00:	4a43      	ldr	r2, [pc, #268]	; (8001b10 <HAL_DMA_IRQHandler+0x558>)
 8001a02:	d061      	beq.n	8001ac8 <HAL_DMA_IRQHandler+0x510>
 8001a04:	4293      	cmp	r3, r2
 8001a06:	d913      	bls.n	8001a30 <HAL_DMA_IRQHandler+0x478>
 8001a08:	3218      	adds	r2, #24
 8001a0a:	4293      	cmp	r3, r2
 8001a0c:	d00a      	beq.n	8001a24 <HAL_DMA_IRQHandler+0x46c>
 8001a0e:	3218      	adds	r2, #24
 8001a10:	4293      	cmp	r3, r2
 8001a12:	d009      	beq.n	8001a28 <HAL_DMA_IRQHandler+0x470>
 8001a14:	3218      	adds	r2, #24
 8001a16:	4293      	cmp	r3, r2
 8001a18:	bf14      	ite	ne
 8001a1a:	f04f 6280 	movne.w	r2, #67108864	; 0x4000000
 8001a1e:	f44f 1280 	moveq.w	r2, #1048576	; 0x100000
 8001a22:	e003      	b.n	8001a2c <HAL_DMA_IRQHandler+0x474>
 8001a24:	2210      	movs	r2, #16
 8001a26:	e001      	b.n	8001a2c <HAL_DMA_IRQHandler+0x474>
 8001a28:	f44f 6280 	mov.w	r2, #1024	; 0x400
 8001a2c:	4939      	ldr	r1, [pc, #228]	; (8001b14 <HAL_DMA_IRQHandler+0x55c>)
 8001a2e:	e02d      	b.n	8001a8c <HAL_DMA_IRQHandler+0x4d4>
 8001a30:	4a39      	ldr	r2, [pc, #228]	; (8001b18 <HAL_DMA_IRQHandler+0x560>)
 8001a32:	4293      	cmp	r3, r2
 8001a34:	d914      	bls.n	8001a60 <HAL_DMA_IRQHandler+0x4a8>
 8001a36:	f502 7256 	add.w	r2, r2, #856	; 0x358
 8001a3a:	4293      	cmp	r3, r2
 8001a3c:	d00a      	beq.n	8001a54 <HAL_DMA_IRQHandler+0x49c>
 8001a3e:	3218      	adds	r2, #24
 8001a40:	4293      	cmp	r3, r2
 8001a42:	d009      	beq.n	8001a58 <HAL_DMA_IRQHandler+0x4a0>
 8001a44:	3218      	adds	r2, #24
 8001a46:	4293      	cmp	r3, r2
 8001a48:	bf14      	ite	ne
 8001a4a:	f04f 6280 	movne.w	r2, #67108864	; 0x4000000
 8001a4e:	f44f 1280 	moveq.w	r2, #1048576	; 0x100000
 8001a52:	e003      	b.n	8001a5c <HAL_DMA_IRQHandler+0x4a4>
 8001a54:	2210      	movs	r2, #16
 8001a56:	e001      	b.n	8001a5c <HAL_DMA_IRQHandler+0x4a4>
 8001a58:	f44f 6280 	mov.w	r2, #1024	; 0x400
 8001a5c:	492d      	ldr	r1, [pc, #180]	; (8001b14 <HAL_DMA_IRQHandler+0x55c>)
 8001a5e:	e02a      	b.n	8001ab6 <HAL_DMA_IRQHandler+0x4fe>
 8001a60:	4a28      	ldr	r2, [pc, #160]	; (8001b04 <HAL_DMA_IRQHandler+0x54c>)
 8001a62:	4293      	cmp	r3, r2
 8001a64:	d914      	bls.n	8001a90 <HAL_DMA_IRQHandler+0x4d8>
 8001a66:	3218      	adds	r2, #24
 8001a68:	4293      	cmp	r3, r2
 8001a6a:	d00a      	beq.n	8001a82 <HAL_DMA_IRQHandler+0x4ca>
 8001a6c:	3218      	adds	r2, #24
 8001a6e:	4293      	cmp	r3, r2
 8001a70:	d009      	beq.n	8001a86 <HAL_DMA_IRQHandler+0x4ce>
 8001a72:	3218      	adds	r2, #24
 8001a74:	4293      	cmp	r3, r2
 8001a76:	bf14      	ite	ne
 8001a78:	f04f 6280 	movne.w	r2, #67108864	; 0x4000000
 8001a7c:	f44f 1280 	moveq.w	r2, #1048576	; 0x100000
 8001a80:	e003      	b.n	8001a8a <HAL_DMA_IRQHandler+0x4d2>
 8001a82:	2210      	movs	r2, #16
 8001a84:	e001      	b.n	8001a8a <HAL_DMA_IRQHandler+0x4d2>
 8001a86:	f44f 6280 	mov.w	r2, #1024	; 0x400
 8001a8a:	4924      	ldr	r1, [pc, #144]	; (8001b1c <HAL_DMA_IRQHandler+0x564>)
 8001a8c:	60ca      	str	r2, [r1, #12]
 8001a8e:	e013      	b.n	8001ab8 <HAL_DMA_IRQHandler+0x500>
 8001a90:	4a1d      	ldr	r2, [pc, #116]	; (8001b08 <HAL_DMA_IRQHandler+0x550>)
 8001a92:	4293      	cmp	r3, r2
 8001a94:	d00a      	beq.n	8001aac <HAL_DMA_IRQHandler+0x4f4>
 8001a96:	3218      	adds	r2, #24
 8001a98:	4293      	cmp	r3, r2
 8001a9a:	d009      	beq.n	8001ab0 <HAL_DMA_IRQHandler+0x4f8>
 8001a9c:	3218      	adds	r2, #24
 8001a9e:	4293      	cmp	r3, r2
 8001aa0:	bf14      	ite	ne
 8001aa2:	f04f 6280 	movne.w	r2, #67108864	; 0x4000000
 8001aa6:	f44f 1280 	moveq.w	r2, #1048576	; 0x100000
 8001aaa:	e003      	b.n	8001ab4 <HAL_DMA_IRQHandler+0x4fc>
 8001aac:	2210      	movs	r2, #16
 8001aae:	e001      	b.n	8001ab4 <HAL_DMA_IRQHandler+0x4fc>
 8001ab0:	f44f 6280 	mov.w	r2, #1024	; 0x400
 8001ab4:	4919      	ldr	r1, [pc, #100]	; (8001b1c <HAL_DMA_IRQHandler+0x564>)
 8001ab6:	608a      	str	r2, [r1, #8]
 8001ab8:	681a      	ldr	r2, [r3, #0]
 8001aba:	0312      	lsls	r2, r2, #12
 8001abc:	d576      	bpl.n	8001bac <HAL_DMA_IRQHandler+0x5f4>
 8001abe:	681b      	ldr	r3, [r3, #0]
 8001ac0:	031b      	lsls	r3, r3, #12
 8001ac2:	d576      	bpl.n	8001bb2 <HAL_DMA_IRQHandler+0x5fa>
 8001ac4:	2341      	movs	r3, #65	; 0x41
 8001ac6:	e072      	b.n	8001bae <HAL_DMA_IRQHandler+0x5f6>
 8001ac8:	6819      	ldr	r1, [r3, #0]
 8001aca:	05c8      	lsls	r0, r1, #23
 8001acc:	d403      	bmi.n	8001ad6 <HAL_DMA_IRQHandler+0x51e>
 8001ace:	6819      	ldr	r1, [r3, #0]
 8001ad0:	f021 0108 	bic.w	r1, r1, #8
 8001ad4:	6019      	str	r1, [r3, #0]
 8001ad6:	4293      	cmp	r3, r2
 8001ad8:	d924      	bls.n	8001b24 <HAL_DMA_IRQHandler+0x56c>
 8001ada:	4a11      	ldr	r2, [pc, #68]	; (8001b20 <HAL_DMA_IRQHandler+0x568>)
 8001adc:	4293      	cmp	r3, r2
 8001ade:	d00a      	beq.n	8001af6 <HAL_DMA_IRQHandler+0x53e>
 8001ae0:	3218      	adds	r2, #24
 8001ae2:	4293      	cmp	r3, r2
 8001ae4:	d009      	beq.n	8001afa <HAL_DMA_IRQHandler+0x542>
 8001ae6:	3218      	adds	r2, #24
 8001ae8:	4293      	cmp	r3, r2
 8001aea:	bf14      	ite	ne
 8001aec:	f04f 6380 	movne.w	r3, #67108864	; 0x4000000
 8001af0:	f44f 1380 	moveq.w	r3, #1048576	; 0x100000
 8001af4:	e003      	b.n	8001afe <HAL_DMA_IRQHandler+0x546>
 8001af6:	2310      	movs	r3, #16
 8001af8:	e001      	b.n	8001afe <HAL_DMA_IRQHandler+0x546>
 8001afa:	f44f 6380 	mov.w	r3, #1024	; 0x400
 8001afe:	4a05      	ldr	r2, [pc, #20]	; (8001b14 <HAL_DMA_IRQHandler+0x55c>)
 8001b00:	e03e      	b.n	8001b80 <HAL_DMA_IRQHandler+0x5c8>
 8001b02:	bf00      	nop
 8001b04:	40026058 	.word	0x40026058
 8001b08:	40026010 	.word	0x40026010
 8001b0c:	00800004 	.word	0x00800004
 8001b10:	40026458 	.word	0x40026458
 8001b14:	40026400 	.word	0x40026400
 8001b18:	400260b8 	.word	0x400260b8
 8001b1c:	40026000 	.word	0x40026000
 8001b20:	40026470 	.word	0x40026470
 8001b24:	4aaa      	ldr	r2, [pc, #680]	; (8001dd0 <HAL_DMA_IRQHandler+0x818>)
 8001b26:	4293      	cmp	r3, r2
 8001b28:	d914      	bls.n	8001b54 <HAL_DMA_IRQHandler+0x59c>
 8001b2a:	f502 7256 	add.w	r2, r2, #856	; 0x358
 8001b2e:	4293      	cmp	r3, r2
 8001b30:	d00a      	beq.n	8001b48 <HAL_DMA_IRQHandler+0x590>
 8001b32:	3218      	adds	r2, #24
 8001b34:	4293      	cmp	r3, r2
 8001b36:	d009      	beq.n	8001b4c <HAL_DMA_IRQHandler+0x594>
 8001b38:	3218      	adds	r2, #24
 8001b3a:	4293      	cmp	r3, r2
 8001b3c:	bf14      	ite	ne
 8001b3e:	f04f 6380 	movne.w	r3, #67108864	; 0x4000000
 8001b42:	f44f 1380 	moveq.w	r3, #1048576	; 0x100000
 8001b46:	e003      	b.n	8001b50 <HAL_DMA_IRQHandler+0x598>
 8001b48:	2310      	movs	r3, #16
 8001b4a:	e001      	b.n	8001b50 <HAL_DMA_IRQHandler+0x598>
 8001b4c:	f44f 6380 	mov.w	r3, #1024	; 0x400
 8001b50:	4aa0      	ldr	r2, [pc, #640]	; (8001dd4 <HAL_DMA_IRQHandler+0x81c>)
 8001b52:	e02a      	b.n	8001baa <HAL_DMA_IRQHandler+0x5f2>
 8001b54:	4aa0      	ldr	r2, [pc, #640]	; (8001dd8 <HAL_DMA_IRQHandler+0x820>)
 8001b56:	4293      	cmp	r3, r2
 8001b58:	d914      	bls.n	8001b84 <HAL_DMA_IRQHandler+0x5cc>
 8001b5a:	3218      	adds	r2, #24
 8001b5c:	4293      	cmp	r3, r2
 8001b5e:	d00a      	beq.n	8001b76 <HAL_DMA_IRQHandler+0x5be>
 8001b60:	3218      	adds	r2, #24
 8001b62:	4293      	cmp	r3, r2
 8001b64:	d009      	beq.n	8001b7a <HAL_DMA_IRQHandler+0x5c2>
 8001b66:	3218      	adds	r2, #24
 8001b68:	4293      	cmp	r3, r2
 8001b6a:	bf14      	ite	ne
 8001b6c:	f04f 6380 	movne.w	r3, #67108864	; 0x4000000
 8001b70:	f44f 1380 	moveq.w	r3, #1048576	; 0x100000
 8001b74:	e003      	b.n	8001b7e <HAL_DMA_IRQHandler+0x5c6>
 8001b76:	2310      	movs	r3, #16
 8001b78:	e001      	b.n	8001b7e <HAL_DMA_IRQHandler+0x5c6>
 8001b7a:	f44f 6380 	mov.w	r3, #1024	; 0x400
 8001b7e:	4a97      	ldr	r2, [pc, #604]	; (8001ddc <HAL_DMA_IRQHandler+0x824>)
 8001b80:	60d3      	str	r3, [r2, #12]
 8001b82:	e013      	b.n	8001bac <HAL_DMA_IRQHandler+0x5f4>
 8001b84:	4a96      	ldr	r2, [pc, #600]	; (8001de0 <HAL_DMA_IRQHandler+0x828>)
 8001b86:	4293      	cmp	r3, r2
 8001b88:	d00a      	beq.n	8001ba0 <HAL_DMA_IRQHandler+0x5e8>
 8001b8a:	3218      	adds	r2, #24
 8001b8c:	4293      	cmp	r3, r2
 8001b8e:	d009      	beq.n	8001ba4 <HAL_DMA_IRQHandler+0x5ec>
 8001b90:	3218      	adds	r2, #24
 8001b92:	4293      	cmp	r3, r2
 8001b94:	bf14      	ite	ne
 8001b96:	f04f 6380 	movne.w	r3, #67108864	; 0x4000000
 8001b9a:	f44f 1380 	moveq.w	r3, #1048576	; 0x100000
 8001b9e:	e003      	b.n	8001ba8 <HAL_DMA_IRQHandler+0x5f0>
 8001ba0:	2310      	movs	r3, #16
 8001ba2:	e001      	b.n	8001ba8 <HAL_DMA_IRQHandler+0x5f0>
 8001ba4:	f44f 6380 	mov.w	r3, #1024	; 0x400
 8001ba8:	4a8c      	ldr	r2, [pc, #560]	; (8001ddc <HAL_DMA_IRQHandler+0x824>)
 8001baa:	6093      	str	r3, [r2, #8]
 8001bac:	2331      	movs	r3, #49	; 0x31
 8001bae:	f884 3035 	strb.w	r3, [r4, #53]	; 0x35
 8001bb2:	6c23      	ldr	r3, [r4, #64]	; 0x40
 8001bb4:	b10b      	cbz	r3, 8001bba <HAL_DMA_IRQHandler+0x602>
 8001bb6:	4620      	mov	r0, r4
 8001bb8:	4798      	blx	r3
 8001bba:	6823      	ldr	r3, [r4, #0]
 8001bbc:	4a89      	ldr	r2, [pc, #548]	; (8001de4 <HAL_DMA_IRQHandler+0x82c>)
 8001bbe:	4293      	cmp	r3, r2
 8001bc0:	d903      	bls.n	8001bca <HAL_DMA_IRQHandler+0x612>
 8001bc2:	f852 1c54 	ldr.w	r1, [r2, #-84]
 8001bc6:	3218      	adds	r2, #24
 8001bc8:	e010      	b.n	8001bec <HAL_DMA_IRQHandler+0x634>
 8001bca:	4a81      	ldr	r2, [pc, #516]	; (8001dd0 <HAL_DMA_IRQHandler+0x818>)
 8001bcc:	4293      	cmp	r3, r2
 8001bce:	d904      	bls.n	8001bda <HAL_DMA_IRQHandler+0x622>
 8001bd0:	f8d2 1348 	ldr.w	r1, [r2, #840]	; 0x348
 8001bd4:	f502 7256 	add.w	r2, r2, #856	; 0x358
 8001bd8:	e008      	b.n	8001bec <HAL_DMA_IRQHandler+0x634>
 8001bda:	4a7f      	ldr	r2, [pc, #508]	; (8001dd8 <HAL_DMA_IRQHandler+0x820>)
 8001bdc:	4293      	cmp	r3, r2
 8001bde:	f1a2 0258 	sub.w	r2, r2, #88	; 0x58
 8001be2:	bf99      	ittee	ls
 8001be4:	6811      	ldrls	r1, [r2, #0]
 8001be6:	4a7e      	ldrls	r2, [pc, #504]	; (8001de0 <HAL_DMA_IRQHandler+0x828>)
 8001be8:	6851      	ldrhi	r1, [r2, #4]
 8001bea:	3270      	addhi	r2, #112	; 0x70
 8001bec:	4293      	cmp	r3, r2
 8001bee:	d00a      	beq.n	8001c06 <HAL_DMA_IRQHandler+0x64e>
 8001bf0:	3218      	adds	r2, #24
 8001bf2:	4293      	cmp	r3, r2
 8001bf4:	d009      	beq.n	8001c0a <HAL_DMA_IRQHandler+0x652>
 8001bf6:	3218      	adds	r2, #24
 8001bf8:	4293      	cmp	r3, r2
 8001bfa:	bf14      	ite	ne
 8001bfc:	f04f 6200 	movne.w	r2, #134217728	; 0x8000000
 8001c00:	f44f 1200 	moveq.w	r2, #2097152	; 0x200000
 8001c04:	e003      	b.n	8001c0e <HAL_DMA_IRQHandler+0x656>
 8001c06:	2220      	movs	r2, #32
 8001c08:	e001      	b.n	8001c0e <HAL_DMA_IRQHandler+0x656>
 8001c0a:	f44f 6200 	mov.w	r2, #2048	; 0x800
 8001c0e:	420a      	tst	r2, r1
 8001c10:	bf0c      	ite	eq
 8001c12:	2200      	moveq	r2, #0
 8001c14:	2201      	movne	r2, #1
 8001c16:	2a00      	cmp	r2, #0
 8001c18:	f000 80d9 	beq.w	8001dce <HAL_DMA_IRQHandler+0x816>
 8001c1c:	681a      	ldr	r2, [r3, #0]
 8001c1e:	06d1      	lsls	r1, r2, #27
 8001c20:	f140 80d5 	bpl.w	8001dce <HAL_DMA_IRQHandler+0x816>
 8001c24:	681a      	ldr	r2, [r3, #0]
 8001c26:	f412 2f80 	tst.w	r2, #262144	; 0x40000
 8001c2a:	4a6e      	ldr	r2, [pc, #440]	; (8001de4 <HAL_DMA_IRQHandler+0x82c>)
 8001c2c:	d062      	beq.n	8001cf4 <HAL_DMA_IRQHandler+0x73c>
 8001c2e:	4293      	cmp	r3, r2
 8001c30:	d913      	bls.n	8001c5a <HAL_DMA_IRQHandler+0x6a2>
 8001c32:	3218      	adds	r2, #24
 8001c34:	4293      	cmp	r3, r2
 8001c36:	d00a      	beq.n	8001c4e <HAL_DMA_IRQHandler+0x696>
 8001c38:	3218      	adds	r2, #24
 8001c3a:	4293      	cmp	r3, r2
 8001c3c:	d009      	beq.n	8001c52 <HAL_DMA_IRQHandler+0x69a>
 8001c3e:	3218      	adds	r2, #24
 8001c40:	4293      	cmp	r3, r2
 8001c42:	bf14      	ite	ne
 8001c44:	f04f 6200 	movne.w	r2, #134217728	; 0x8000000
 8001c48:	f44f 1200 	moveq.w	r2, #2097152	; 0x200000
 8001c4c:	e003      	b.n	8001c56 <HAL_DMA_IRQHandler+0x69e>
 8001c4e:	2220      	movs	r2, #32
 8001c50:	e001      	b.n	8001c56 <HAL_DMA_IRQHandler+0x69e>
 8001c52:	f44f 6200 	mov.w	r2, #2048	; 0x800
 8001c56:	495f      	ldr	r1, [pc, #380]	; (8001dd4 <HAL_DMA_IRQHandler+0x81c>)
 8001c58:	e02d      	b.n	8001cb6 <HAL_DMA_IRQHandler+0x6fe>
 8001c5a:	4a5d      	ldr	r2, [pc, #372]	; (8001dd0 <HAL_DMA_IRQHandler+0x818>)
 8001c5c:	4293      	cmp	r3, r2
 8001c5e:	d914      	bls.n	8001c8a <HAL_DMA_IRQHandler+0x6d2>
 8001c60:	f502 7256 	add.w	r2, r2, #856	; 0x358
 8001c64:	4293      	cmp	r3, r2
 8001c66:	d00a      	beq.n	8001c7e <HAL_DMA_IRQHandler+0x6c6>
 8001c68:	3218      	adds	r2, #24
 8001c6a:	4293      	cmp	r3, r2
 8001c6c:	d009      	beq.n	8001c82 <HAL_DMA_IRQHandler+0x6ca>
 8001c6e:	3218      	adds	r2, #24
 8001c70:	4293      	cmp	r3, r2
 8001c72:	bf14      	ite	ne
 8001c74:	f04f 6200 	movne.w	r2, #134217728	; 0x8000000
 8001c78:	f44f 1200 	moveq.w	r2, #2097152	; 0x200000
 8001c7c:	e003      	b.n	8001c86 <HAL_DMA_IRQHandler+0x6ce>
 8001c7e:	2220      	movs	r2, #32
 8001c80:	e001      	b.n	8001c86 <HAL_DMA_IRQHandler+0x6ce>
 8001c82:	f44f 6200 	mov.w	r2, #2048	; 0x800
 8001c86:	4953      	ldr	r1, [pc, #332]	; (8001dd4 <HAL_DMA_IRQHandler+0x81c>)
 8001c88:	e02a      	b.n	8001ce0 <HAL_DMA_IRQHandler+0x728>
 8001c8a:	4a53      	ldr	r2, [pc, #332]	; (8001dd8 <HAL_DMA_IRQHandler+0x820>)
 8001c8c:	4293      	cmp	r3, r2
 8001c8e:	d914      	bls.n	8001cba <HAL_DMA_IRQHandler+0x702>
 8001c90:	3218      	adds	r2, #24
 8001c92:	4293      	cmp	r3, r2
 8001c94:	d00a      	beq.n	8001cac <HAL_DMA_IRQHandler+0x6f4>
 8001c96:	3218      	adds	r2, #24
 8001c98:	4293      	cmp	r3, r2
 8001c9a:	d009      	beq.n	8001cb0 <HAL_DMA_IRQHandler+0x6f8>
 8001c9c:	3218      	adds	r2, #24
 8001c9e:	4293      	cmp	r3, r2
 8001ca0:	bf14      	ite	ne
 8001ca2:	f04f 6200 	movne.w	r2, #134217728	; 0x8000000
 8001ca6:	f44f 1200 	moveq.w	r2, #2097152	; 0x200000
 8001caa:	e003      	b.n	8001cb4 <HAL_DMA_IRQHandler+0x6fc>
 8001cac:	2220      	movs	r2, #32
 8001cae:	e001      	b.n	8001cb4 <HAL_DMA_IRQHandler+0x6fc>
 8001cb0:	f44f 6200 	mov.w	r2, #2048	; 0x800
 8001cb4:	4949      	ldr	r1, [pc, #292]	; (8001ddc <HAL_DMA_IRQHandler+0x824>)
 8001cb6:	60ca      	str	r2, [r1, #12]
 8001cb8:	e013      	b.n	8001ce2 <HAL_DMA_IRQHandler+0x72a>
 8001cba:	4a49      	ldr	r2, [pc, #292]	; (8001de0 <HAL_DMA_IRQHandler+0x828>)
 8001cbc:	4293      	cmp	r3, r2
 8001cbe:	d00a      	beq.n	8001cd6 <HAL_DMA_IRQHandler+0x71e>
 8001cc0:	3218      	adds	r2, #24
 8001cc2:	4293      	cmp	r3, r2
 8001cc4:	d009      	beq.n	8001cda <HAL_DMA_IRQHandler+0x722>
 8001cc6:	3218      	adds	r2, #24
 8001cc8:	4293      	cmp	r3, r2
 8001cca:	bf14      	ite	ne
 8001ccc:	f04f 6200 	movne.w	r2, #134217728	; 0x8000000
 8001cd0:	f44f 1200 	moveq.w	r2, #2097152	; 0x200000
 8001cd4:	e003      	b.n	8001cde <HAL_DMA_IRQHandler+0x726>
 8001cd6:	2220      	movs	r2, #32
 8001cd8:	e001      	b.n	8001cde <HAL_DMA_IRQHandler+0x726>
 8001cda:	f44f 6200 	mov.w	r2, #2048	; 0x800
 8001cde:	493f      	ldr	r1, [pc, #252]	; (8001ddc <HAL_DMA_IRQHandler+0x824>)
 8001ce0:	608a      	str	r2, [r1, #8]
 8001ce2:	681a      	ldr	r2, [r3, #0]
 8001ce4:	0312      	lsls	r2, r2, #12
 8001ce6:	d401      	bmi.n	8001cec <HAL_DMA_IRQHandler+0x734>
 8001ce8:	6c63      	ldr	r3, [r4, #68]	; 0x44
 8001cea:	e06d      	b.n	8001dc8 <HAL_DMA_IRQHandler+0x810>
 8001cec:	681b      	ldr	r3, [r3, #0]
 8001cee:	0318      	lsls	r0, r3, #12
 8001cf0:	d56d      	bpl.n	8001dce <HAL_DMA_IRQHandler+0x816>
 8001cf2:	e068      	b.n	8001dc6 <HAL_DMA_IRQHandler+0x80e>
 8001cf4:	6819      	ldr	r1, [r3, #0]
 8001cf6:	05c9      	lsls	r1, r1, #23
 8001cf8:	d403      	bmi.n	8001d02 <HAL_DMA_IRQHandler+0x74a>
 8001cfa:	6819      	ldr	r1, [r3, #0]
 8001cfc:	f021 0110 	bic.w	r1, r1, #16
 8001d00:	6019      	str	r1, [r3, #0]
 8001d02:	4293      	cmp	r3, r2
 8001d04:	d913      	bls.n	8001d2e <HAL_DMA_IRQHandler+0x776>
 8001d06:	4a38      	ldr	r2, [pc, #224]	; (8001de8 <HAL_DMA_IRQHandler+0x830>)
 8001d08:	4293      	cmp	r3, r2
 8001d0a:	d00a      	beq.n	8001d22 <HAL_DMA_IRQHandler+0x76a>
 8001d0c:	3218      	adds	r2, #24
 8001d0e:	4293      	cmp	r3, r2
 8001d10:	d009      	beq.n	8001d26 <HAL_DMA_IRQHandler+0x76e>
 8001d12:	3218      	adds	r2, #24
 8001d14:	4293      	cmp	r3, r2
 8001d16:	bf14      	ite	ne
 8001d18:	f04f 6300 	movne.w	r3, #134217728	; 0x8000000
 8001d1c:	f44f 1300 	moveq.w	r3, #2097152	; 0x200000
 8001d20:	e003      	b.n	8001d2a <HAL_DMA_IRQHandler+0x772>
 8001d22:	2320      	movs	r3, #32
 8001d24:	e001      	b.n	8001d2a <HAL_DMA_IRQHandler+0x772>
 8001d26:	f44f 6300 	mov.w	r3, #2048	; 0x800
 8001d2a:	4a2a      	ldr	r2, [pc, #168]	; (8001dd4 <HAL_DMA_IRQHandler+0x81c>)
 8001d2c:	e02d      	b.n	8001d8a <HAL_DMA_IRQHandler+0x7d2>
 8001d2e:	4a28      	ldr	r2, [pc, #160]	; (8001dd0 <HAL_DMA_IRQHandler+0x818>)
 8001d30:	4293      	cmp	r3, r2
 8001d32:	d914      	bls.n	8001d5e <HAL_DMA_IRQHandler+0x7a6>
 8001d34:	f502 7256 	add.w	r2, r2, #856	; 0x358
 8001d38:	4293      	cmp	r3, r2
 8001d3a:	d00a      	beq.n	8001d52 <HAL_DMA_IRQHandler+0x79a>
 8001d3c:	3218      	adds	r2, #24
 8001d3e:	4293      	cmp	r3, r2
 8001d40:	d009      	beq.n	8001d56 <HAL_DMA_IRQHandler+0x79e>
 8001d42:	3218      	adds	r2, #24
 8001d44:	4293      	cmp	r3, r2
 8001d46:	bf14      	ite	ne
 8001d48:	f04f 6300 	movne.w	r3, #134217728	; 0x8000000
 8001d4c:	f44f 1300 	moveq.w	r3, #2097152	; 0x200000
 8001d50:	e003      	b.n	8001d5a <HAL_DMA_IRQHandler+0x7a2>
 8001d52:	2320      	movs	r3, #32
 8001d54:	e001      	b.n	8001d5a <HAL_DMA_IRQHandler+0x7a2>
 8001d56:	f44f 6300 	mov.w	r3, #2048	; 0x800
 8001d5a:	4a1e      	ldr	r2, [pc, #120]	; (8001dd4 <HAL_DMA_IRQHandler+0x81c>)
 8001d5c:	e02a      	b.n	8001db4 <HAL_DMA_IRQHandler+0x7fc>
 8001d5e:	4a1e      	ldr	r2, [pc, #120]	; (8001dd8 <HAL_DMA_IRQHandler+0x820>)
 8001d60:	4293      	cmp	r3, r2
 8001d62:	d914      	bls.n	8001d8e <HAL_DMA_IRQHandler+0x7d6>
 8001d64:	3218      	adds	r2, #24
 8001d66:	4293      	cmp	r3, r2
 8001d68:	d00a      	beq.n	8001d80 <HAL_DMA_IRQHandler+0x7c8>
 8001d6a:	3218      	adds	r2, #24
 8001d6c:	4293      	cmp	r3, r2
 8001d6e:	d009      	beq.n	8001d84 <HAL_DMA_IRQHandler+0x7cc>
 8001d70:	3218      	adds	r2, #24
 8001d72:	4293      	cmp	r3, r2
 8001d74:	bf14      	ite	ne
 8001d76:	f04f 6300 	movne.w	r3, #134217728	; 0x8000000
 8001d7a:	f44f 1300 	moveq.w	r3, #2097152	; 0x200000
 8001d7e:	e003      	b.n	8001d88 <HAL_DMA_IRQHandler+0x7d0>
 8001d80:	2320      	movs	r3, #32
 8001d82:	e001      	b.n	8001d88 <HAL_DMA_IRQHandler+0x7d0>
 8001d84:	f44f 6300 	mov.w	r3, #2048	; 0x800
 8001d88:	4a14      	ldr	r2, [pc, #80]	; (8001ddc <HAL_DMA_IRQHandler+0x824>)
 8001d8a:	60d3      	str	r3, [r2, #12]
 8001d8c:	e013      	b.n	8001db6 <HAL_DMA_IRQHandler+0x7fe>
 8001d8e:	4a14      	ldr	r2, [pc, #80]	; (8001de0 <HAL_DMA_IRQHandler+0x828>)
 8001d90:	4293      	cmp	r3, r2
 8001d92:	d00a      	beq.n	8001daa <HAL_DMA_IRQHandler+0x7f2>
 8001d94:	3218      	adds	r2, #24
 8001d96:	4293      	cmp	r3, r2
 8001d98:	d009      	beq.n	8001dae <HAL_DMA_IRQHandler+0x7f6>
 8001d9a:	3218      	adds	r2, #24
 8001d9c:	4293      	cmp	r3, r2
 8001d9e:	bf14      	ite	ne
 8001da0:	f04f 6300 	movne.w	r3, #134217728	; 0x8000000
 8001da4:	f44f 1300 	moveq.w	r3, #2097152	; 0x200000
 8001da8:	e003      	b.n	8001db2 <HAL_DMA_IRQHandler+0x7fa>
 8001daa:	2320      	movs	r3, #32
 8001dac:	e001      	b.n	8001db2 <HAL_DMA_IRQHandler+0x7fa>
 8001dae:	f44f 6300 	mov.w	r3, #2048	; 0x800
 8001db2:	4a0a      	ldr	r2, [pc, #40]	; (8001ddc <HAL_DMA_IRQHandler+0x824>)
 8001db4:	6093      	str	r3, [r2, #8]
 8001db6:	6ce3      	ldr	r3, [r4, #76]	; 0x4c
 8001db8:	64e3      	str	r3, [r4, #76]	; 0x4c
 8001dba:	2311      	movs	r3, #17
 8001dbc:	f884 3035 	strb.w	r3, [r4, #53]	; 0x35
 8001dc0:	2300      	movs	r3, #0
 8001dc2:	f884 3034 	strb.w	r3, [r4, #52]	; 0x34
 8001dc6:	6be3      	ldr	r3, [r4, #60]	; 0x3c
 8001dc8:	b10b      	cbz	r3, 8001dce <HAL_DMA_IRQHandler+0x816>
 8001dca:	4620      	mov	r0, r4
 8001dcc:	4798      	blx	r3
 8001dce:	bd10      	pop	{r4, pc}
 8001dd0:	400260b8 	.word	0x400260b8
 8001dd4:	40026400 	.word	0x40026400
 8001dd8:	40026058 	.word	0x40026058
 8001ddc:	40026000 	.word	0x40026000
 8001de0:	40026010 	.word	0x40026010
 8001de4:	40026458 	.word	0x40026458
 8001de8:	40026470 	.word	0x40026470

08001dec <HAL_DMA_GetState>:
 8001dec:	f890 0035 	ldrb.w	r0, [r0, #53]	; 0x35
 8001df0:	4770      	bx	lr

08001df2 <HAL_DMA_GetError>:
 8001df2:	6cc0      	ldr	r0, [r0, #76]	; 0x4c
 8001df4:	4770      	bx	lr
 8001df6:	bf00      	nop

08001df8 <HAL_GPIO_Init>:
 8001df8:	e92d 43f7 	stmdb	sp!, {r0, r1, r2, r4, r5, r6, r7, r8, r9, lr}
 8001dfc:	680f      	ldr	r7, [r1, #0]
 8001dfe:	2300      	movs	r3, #0
 8001e00:	2201      	movs	r2, #1
 8001e02:	409a      	lsls	r2, r3
 8001e04:	ea02 0507 	and.w	r5, r2, r7
 8001e08:	4295      	cmp	r5, r2
 8001e0a:	f040 80cf 	bne.w	8001fac <HAL_GPIO_Init+0x1b4>
 8001e0e:	684c      	ldr	r4, [r1, #4]
 8001e10:	f024 0610 	bic.w	r6, r4, #16
 8001e14:	2e02      	cmp	r6, #2
 8001e16:	d116      	bne.n	8001e46 <HAL_GPIO_Init+0x4e>
 8001e18:	ea4f 0cd3 	mov.w	ip, r3, lsr #3
 8001e1c:	eb00 0c8c 	add.w	ip, r0, ip, lsl #2
 8001e20:	f003 0807 	and.w	r8, r3, #7
 8001e24:	f8dc 2020 	ldr.w	r2, [ip, #32]
 8001e28:	ea4f 0888 	mov.w	r8, r8, lsl #2
 8001e2c:	f04f 090f 	mov.w	r9, #15
 8001e30:	fa09 f908 	lsl.w	r9, r9, r8
 8001e34:	ea22 0909 	bic.w	r9, r2, r9
 8001e38:	690a      	ldr	r2, [r1, #16]
 8001e3a:	fa02 f808 	lsl.w	r8, r2, r8
 8001e3e:	ea49 0208 	orr.w	r2, r9, r8
 8001e42:	f8cc 2020 	str.w	r2, [ip, #32]
 8001e46:	005a      	lsls	r2, r3, #1
 8001e48:	f04f 0c03 	mov.w	ip, #3
 8001e4c:	f8d0 9000 	ldr.w	r9, [r0]
 8001e50:	fa0c fc02 	lsl.w	ip, ip, r2
 8001e54:	ea6f 0c0c 	mvn.w	ip, ip
 8001e58:	f004 0803 	and.w	r8, r4, #3
 8001e5c:	ea0c 0909 	and.w	r9, ip, r9
 8001e60:	fa08 f802 	lsl.w	r8, r8, r2
 8001e64:	3e01      	subs	r6, #1
 8001e66:	ea49 0808 	orr.w	r8, r9, r8
 8001e6a:	2e01      	cmp	r6, #1
 8001e6c:	f8c0 8000 	str.w	r8, [r0]
 8001e70:	d810      	bhi.n	8001e94 <HAL_GPIO_Init+0x9c>
 8001e72:	6886      	ldr	r6, [r0, #8]
 8001e74:	ea0c 0806 	and.w	r8, ip, r6
 8001e78:	68ce      	ldr	r6, [r1, #12]
 8001e7a:	4096      	lsls	r6, r2
 8001e7c:	ea48 0606 	orr.w	r6, r8, r6
 8001e80:	6086      	str	r6, [r0, #8]
 8001e82:	6846      	ldr	r6, [r0, #4]
 8001e84:	ea26 0805 	bic.w	r8, r6, r5
 8001e88:	f3c4 1600 	ubfx	r6, r4, #4, #1
 8001e8c:	409e      	lsls	r6, r3
 8001e8e:	ea48 0606 	orr.w	r6, r8, r6
 8001e92:	6046      	str	r6, [r0, #4]
 8001e94:	68c6      	ldr	r6, [r0, #12]
 8001e96:	ea0c 0c06 	and.w	ip, ip, r6
 8001e9a:	688e      	ldr	r6, [r1, #8]
 8001e9c:	4096      	lsls	r6, r2
 8001e9e:	ea4c 0206 	orr.w	r2, ip, r6
 8001ea2:	60c2      	str	r2, [r0, #12]
 8001ea4:	00e2      	lsls	r2, r4, #3
 8001ea6:	f140 8081 	bpl.w	8001fac <HAL_GPIO_Init+0x1b4>
 8001eaa:	4a44      	ldr	r2, [pc, #272]	; (8001fbc <HAL_GPIO_Init+0x1c4>)
 8001eac:	6c56      	ldr	r6, [r2, #68]	; 0x44
 8001eae:	f446 4680 	orr.w	r6, r6, #16384	; 0x4000
 8001eb2:	6456      	str	r6, [r2, #68]	; 0x44
 8001eb4:	6c52      	ldr	r2, [r2, #68]	; 0x44
 8001eb6:	f023 0603 	bic.w	r6, r3, #3
 8001eba:	f106 4680 	add.w	r6, r6, #1073741824	; 0x40000000
 8001ebe:	f402 4280 	and.w	r2, r2, #16384	; 0x4000
 8001ec2:	f506 369c 	add.w	r6, r6, #79872	; 0x13800
 8001ec6:	9201      	str	r2, [sp, #4]
 8001ec8:	f003 0c03 	and.w	ip, r3, #3
 8001ecc:	9a01      	ldr	r2, [sp, #4]
 8001ece:	68b2      	ldr	r2, [r6, #8]
 8001ed0:	ea4f 0c8c 	mov.w	ip, ip, lsl #2
 8001ed4:	f04f 080f 	mov.w	r8, #15
 8001ed8:	fa08 f80c 	lsl.w	r8, r8, ip
 8001edc:	ea22 0808 	bic.w	r8, r2, r8
 8001ee0:	4a37      	ldr	r2, [pc, #220]	; (8001fc0 <HAL_GPIO_Init+0x1c8>)
 8001ee2:	4290      	cmp	r0, r2
 8001ee4:	d022      	beq.n	8001f2c <HAL_GPIO_Init+0x134>
 8001ee6:	f502 6280 	add.w	r2, r2, #1024	; 0x400
 8001eea:	4290      	cmp	r0, r2
 8001eec:	d020      	beq.n	8001f30 <HAL_GPIO_Init+0x138>
 8001eee:	f502 6280 	add.w	r2, r2, #1024	; 0x400
 8001ef2:	4290      	cmp	r0, r2
 8001ef4:	d01e      	beq.n	8001f34 <HAL_GPIO_Init+0x13c>
 8001ef6:	f502 6280 	add.w	r2, r2, #1024	; 0x400
 8001efa:	4290      	cmp	r0, r2
 8001efc:	d01c      	beq.n	8001f38 <HAL_GPIO_Init+0x140>
 8001efe:	f502 6280 	add.w	r2, r2, #1024	; 0x400
 8001f02:	4290      	cmp	r0, r2
 8001f04:	d01a      	beq.n	8001f3c <HAL_GPIO_Init+0x144>
 8001f06:	f502 6280 	add.w	r2, r2, #1024	; 0x400
 8001f0a:	4290      	cmp	r0, r2
 8001f0c:	d018      	beq.n	8001f40 <HAL_GPIO_Init+0x148>
 8001f0e:	f502 6280 	add.w	r2, r2, #1024	; 0x400
 8001f12:	4290      	cmp	r0, r2
 8001f14:	d016      	beq.n	8001f44 <HAL_GPIO_Init+0x14c>
 8001f16:	f502 6280 	add.w	r2, r2, #1024	; 0x400
 8001f1a:	4290      	cmp	r0, r2
 8001f1c:	d014      	beq.n	8001f48 <HAL_GPIO_Init+0x150>
 8001f1e:	f502 6280 	add.w	r2, r2, #1024	; 0x400
 8001f22:	4290      	cmp	r0, r2
 8001f24:	bf14      	ite	ne
 8001f26:	2209      	movne	r2, #9
 8001f28:	2208      	moveq	r2, #8
 8001f2a:	e00e      	b.n	8001f4a <HAL_GPIO_Init+0x152>
 8001f2c:	2200      	movs	r2, #0
 8001f2e:	e00c      	b.n	8001f4a <HAL_GPIO_Init+0x152>
 8001f30:	2201      	movs	r2, #1
 8001f32:	e00a      	b.n	8001f4a <HAL_GPIO_Init+0x152>
 8001f34:	2202      	movs	r2, #2
 8001f36:	e008      	b.n	8001f4a <HAL_GPIO_Init+0x152>
 8001f38:	2203      	movs	r2, #3
 8001f3a:	e006      	b.n	8001f4a <HAL_GPIO_Init+0x152>
 8001f3c:	2204      	movs	r2, #4
 8001f3e:	e004      	b.n	8001f4a <HAL_GPIO_Init+0x152>
 8001f40:	2205      	movs	r2, #5
 8001f42:	e002      	b.n	8001f4a <HAL_GPIO_Init+0x152>
 8001f44:	2206      	movs	r2, #6
 8001f46:	e000      	b.n	8001f4a <HAL_GPIO_Init+0x152>
 8001f48:	2207      	movs	r2, #7
 8001f4a:	fa02 f20c 	lsl.w	r2, r2, ip
 8001f4e:	ea42 0208 	orr.w	r2, r2, r8
 8001f52:	60b2      	str	r2, [r6, #8]
 8001f54:	4e1b      	ldr	r6, [pc, #108]	; (8001fc4 <HAL_GPIO_Init+0x1cc>)
 8001f56:	f8d6 c000 	ldr.w	ip, [r6]
 8001f5a:	43ea      	mvns	r2, r5
 8001f5c:	f414 3f80 	tst.w	r4, #65536	; 0x10000
 8001f60:	bf14      	ite	ne
 8001f62:	ea45 0c0c 	orrne.w	ip, r5, ip
 8001f66:	ea02 0c0c 	andeq.w	ip, r2, ip
 8001f6a:	f8c6 c000 	str.w	ip, [r6]
 8001f6e:	6876      	ldr	r6, [r6, #4]
 8001f70:	f414 3f00 	tst.w	r4, #131072	; 0x20000
 8001f74:	bf14      	ite	ne
 8001f76:	ea45 0c06 	orrne.w	ip, r5, r6
 8001f7a:	ea02 0c06 	andeq.w	ip, r2, r6
 8001f7e:	4e11      	ldr	r6, [pc, #68]	; (8001fc4 <HAL_GPIO_Init+0x1cc>)
 8001f80:	f8c6 c004 	str.w	ip, [r6, #4]
 8001f84:	f8d6 c008 	ldr.w	ip, [r6, #8]
 8001f88:	f414 1f80 	tst.w	r4, #1048576	; 0x100000
 8001f8c:	bf14      	ite	ne
 8001f8e:	ea45 0c0c 	orrne.w	ip, r5, ip
 8001f92:	ea02 0c0c 	andeq.w	ip, r2, ip
 8001f96:	f8c6 c008 	str.w	ip, [r6, #8]
 8001f9a:	68f6      	ldr	r6, [r6, #12]
 8001f9c:	02a4      	lsls	r4, r4, #10
 8001f9e:	bf58      	it	pl
 8001fa0:	ea02 0506 	andpl.w	r5, r2, r6
 8001fa4:	4a07      	ldr	r2, [pc, #28]	; (8001fc4 <HAL_GPIO_Init+0x1cc>)
 8001fa6:	bf48      	it	mi
 8001fa8:	4335      	orrmi	r5, r6
 8001faa:	60d5      	str	r5, [r2, #12]
 8001fac:	3301      	adds	r3, #1
 8001fae:	2b10      	cmp	r3, #16
 8001fb0:	f47f af26 	bne.w	8001e00 <HAL_GPIO_Init+0x8>
 8001fb4:	b003      	add	sp, #12
 8001fb6:	e8bd 83f0 	ldmia.w	sp!, {r4, r5, r6, r7, r8, r9, pc}
 8001fba:	bf00      	nop
 8001fbc:	40023800 	.word	0x40023800
 8001fc0:	40020000 	.word	0x40020000
 8001fc4:	40013c00 	.word	0x40013c00

08001fc8 <HAL_GPIO_DeInit>:
 8001fc8:	e92d 43f0 	stmdb	sp!, {r4, r5, r6, r7, r8, r9, lr}
 8001fcc:	2300      	movs	r3, #0
 8001fce:	2201      	movs	r2, #1
 8001fd0:	fa02 f503 	lsl.w	r5, r2, r3
 8001fd4:	ea05 0401 	and.w	r4, r5, r1
 8001fd8:	42ac      	cmp	r4, r5
 8001fda:	d179      	bne.n	80020d0 <HAL_GPIO_DeInit+0x108>
 8001fdc:	f04f 0c03 	mov.w	ip, #3
 8001fe0:	fa03 f502 	lsl.w	r5, r3, r2
 8001fe4:	6806      	ldr	r6, [r0, #0]
 8001fe6:	fa0c f505 	lsl.w	r5, ip, r5
 8001fea:	43ed      	mvns	r5, r5
 8001fec:	fa23 f70c 	lsr.w	r7, r3, ip
 8001ff0:	402e      	ands	r6, r5
 8001ff2:	eb00 0787 	add.w	r7, r0, r7, lsl #2
 8001ff6:	6006      	str	r6, [r0, #0]
 8001ff8:	f003 0807 	and.w	r8, r3, #7
 8001ffc:	f8d7 9020 	ldr.w	r9, [r7, #32]
 8002000:	260f      	movs	r6, #15
 8002002:	ea4f 0888 	mov.w	r8, r8, lsl #2
 8002006:	fa06 f808 	lsl.w	r8, r6, r8
 800200a:	ea29 0808 	bic.w	r8, r9, r8
 800200e:	f8c7 8020 	str.w	r8, [r7, #32]
 8002012:	6887      	ldr	r7, [r0, #8]
 8002014:	f8df 90cc 	ldr.w	r9, [pc, #204]	; 80020e4 <HAL_GPIO_DeInit+0x11c>
 8002018:	402f      	ands	r7, r5
 800201a:	6087      	str	r7, [r0, #8]
 800201c:	6847      	ldr	r7, [r0, #4]
 800201e:	43e4      	mvns	r4, r4
 8002020:	4027      	ands	r7, r4
 8002022:	6047      	str	r7, [r0, #4]
 8002024:	68c7      	ldr	r7, [r0, #12]
 8002026:	403d      	ands	r5, r7
 8002028:	60c5      	str	r5, [r0, #12]
 800202a:	f023 0503 	bic.w	r5, r3, #3
 800202e:	f105 4580 	add.w	r5, r5, #1073741824	; 0x40000000
 8002032:	f505 359c 	add.w	r5, r5, #79872	; 0x13800
 8002036:	ea03 070c 	and.w	r7, r3, ip
 800203a:	f8d5 8008 	ldr.w	r8, [r5, #8]
 800203e:	00bf      	lsls	r7, r7, #2
 8002040:	40be      	lsls	r6, r7
 8002042:	4548      	cmp	r0, r9
 8002044:	ea06 0808 	and.w	r8, r6, r8
 8002048:	d021      	beq.n	800208e <HAL_GPIO_DeInit+0xc6>
 800204a:	f509 6980 	add.w	r9, r9, #1024	; 0x400
 800204e:	4548      	cmp	r0, r9
 8002050:	d02a      	beq.n	80020a8 <HAL_GPIO_DeInit+0xe0>
 8002052:	4a22      	ldr	r2, [pc, #136]	; (80020dc <HAL_GPIO_DeInit+0x114>)
 8002054:	4290      	cmp	r0, r2
 8002056:	d01c      	beq.n	8002092 <HAL_GPIO_DeInit+0xca>
 8002058:	f502 6280 	add.w	r2, r2, #1024	; 0x400
 800205c:	4290      	cmp	r0, r2
 800205e:	d01a      	beq.n	8002096 <HAL_GPIO_DeInit+0xce>
 8002060:	f502 6280 	add.w	r2, r2, #1024	; 0x400
 8002064:	4290      	cmp	r0, r2
 8002066:	d018      	beq.n	800209a <HAL_GPIO_DeInit+0xd2>
 8002068:	f502 6280 	add.w	r2, r2, #1024	; 0x400
 800206c:	4290      	cmp	r0, r2
 800206e:	d016      	beq.n	800209e <HAL_GPIO_DeInit+0xd6>
 8002070:	f502 6280 	add.w	r2, r2, #1024	; 0x400
 8002074:	4290      	cmp	r0, r2
 8002076:	d014      	beq.n	80020a2 <HAL_GPIO_DeInit+0xda>
 8002078:	f502 6280 	add.w	r2, r2, #1024	; 0x400
 800207c:	4290      	cmp	r0, r2
 800207e:	d012      	beq.n	80020a6 <HAL_GPIO_DeInit+0xde>
 8002080:	f502 6280 	add.w	r2, r2, #1024	; 0x400
 8002084:	4290      	cmp	r0, r2
 8002086:	bf14      	ite	ne
 8002088:	2209      	movne	r2, #9
 800208a:	2208      	moveq	r2, #8
 800208c:	e00c      	b.n	80020a8 <HAL_GPIO_DeInit+0xe0>
 800208e:	2200      	movs	r2, #0
 8002090:	e00a      	b.n	80020a8 <HAL_GPIO_DeInit+0xe0>
 8002092:	2202      	movs	r2, #2
 8002094:	e008      	b.n	80020a8 <HAL_GPIO_DeInit+0xe0>
 8002096:	4662      	mov	r2, ip
 8002098:	e006      	b.n	80020a8 <HAL_GPIO_DeInit+0xe0>
 800209a:	2204      	movs	r2, #4
 800209c:	e004      	b.n	80020a8 <HAL_GPIO_DeInit+0xe0>
 800209e:	2205      	movs	r2, #5
 80020a0:	e002      	b.n	80020a8 <HAL_GPIO_DeInit+0xe0>
 80020a2:	2206      	movs	r2, #6
 80020a4:	e000      	b.n	80020a8 <HAL_GPIO_DeInit+0xe0>
 80020a6:	2207      	movs	r2, #7
 80020a8:	40ba      	lsls	r2, r7
 80020aa:	4590      	cmp	r8, r2
 80020ac:	d110      	bne.n	80020d0 <HAL_GPIO_DeInit+0x108>
 80020ae:	68aa      	ldr	r2, [r5, #8]
 80020b0:	ea22 0606 	bic.w	r6, r2, r6
 80020b4:	4a0a      	ldr	r2, [pc, #40]	; (80020e0 <HAL_GPIO_DeInit+0x118>)
 80020b6:	60ae      	str	r6, [r5, #8]
 80020b8:	6815      	ldr	r5, [r2, #0]
 80020ba:	4025      	ands	r5, r4
 80020bc:	6015      	str	r5, [r2, #0]
 80020be:	6855      	ldr	r5, [r2, #4]
 80020c0:	4025      	ands	r5, r4
 80020c2:	6055      	str	r5, [r2, #4]
 80020c4:	6895      	ldr	r5, [r2, #8]
 80020c6:	4025      	ands	r5, r4
 80020c8:	6095      	str	r5, [r2, #8]
 80020ca:	68d5      	ldr	r5, [r2, #12]
 80020cc:	402c      	ands	r4, r5
 80020ce:	60d4      	str	r4, [r2, #12]
 80020d0:	3301      	adds	r3, #1
 80020d2:	2b10      	cmp	r3, #16
 80020d4:	f47f af7b 	bne.w	8001fce <HAL_GPIO_DeInit+0x6>
 80020d8:	e8bd 83f0 	ldmia.w	sp!, {r4, r5, r6, r7, r8, r9, pc}
 80020dc:	40020800 	.word	0x40020800
 80020e0:	40013c00 	.word	0x40013c00
 80020e4:	40020000 	.word	0x40020000

080020e8 <HAL_GPIO_ReadPin>:
 80020e8:	6903      	ldr	r3, [r0, #16]
 80020ea:	4219      	tst	r1, r3
 80020ec:	bf0c      	ite	eq
 80020ee:	2000      	moveq	r0, #0
 80020f0:	2001      	movne	r0, #1
 80020f2:	4770      	bx	lr

080020f4 <HAL_GPIO_WritePin>:
 80020f4:	b902      	cbnz	r2, 80020f8 <HAL_GPIO_WritePin+0x4>
 80020f6:	0409      	lsls	r1, r1, #16
 80020f8:	6181      	str	r1, [r0, #24]
 80020fa:	4770      	bx	lr

080020fc <HAL_GPIO_TogglePin>:
 80020fc:	6943      	ldr	r3, [r0, #20]
 80020fe:	4059      	eors	r1, r3
 8002100:	6141      	str	r1, [r0, #20]
 8002102:	4770      	bx	lr

08002104 <HAL_GPIO_LockPin>:
 8002104:	b082      	sub	sp, #8
 8002106:	f44f 3380 	mov.w	r3, #65536	; 0x10000
 800210a:	9301      	str	r3, [sp, #4]
 800210c:	9b01      	ldr	r3, [sp, #4]
 800210e:	430b      	orrs	r3, r1
 8002110:	9301      	str	r3, [sp, #4]
 8002112:	9b01      	ldr	r3, [sp, #4]
 8002114:	61c3      	str	r3, [r0, #28]
 8002116:	61c1      	str	r1, [r0, #28]
 8002118:	9b01      	ldr	r3, [sp, #4]
 800211a:	61c3      	str	r3, [r0, #28]
 800211c:	69c3      	ldr	r3, [r0, #28]
 800211e:	9301      	str	r3, [sp, #4]
 8002120:	69c0      	ldr	r0, [r0, #28]
 8002122:	f480 3080 	eor.w	r0, r0, #65536	; 0x10000
 8002126:	f3c0 4000 	ubfx	r0, r0, #16, #1
 800212a:	b002      	add	sp, #8
 800212c:	4770      	bx	lr
 800212e:	4770      	bx	lr

08002130 <HAL_GPIO_EXTI_IRQHandler>:
 8002130:	b508      	push	{r3, lr}
 8002132:	4b04      	ldr	r3, [pc, #16]	; (8002144 <HAL_GPIO_EXTI_IRQHandler+0x14>)
 8002134:	6959      	ldr	r1, [r3, #20]
 8002136:	4208      	tst	r0, r1
 8002138:	d002      	beq.n	8002140 <HAL_GPIO_EXTI_IRQHandler+0x10>
 800213a:	6158      	str	r0, [r3, #20]
 800213c:	f7fe f824 	bl	8000188 <HAL_GPIO_EXTI_Callback>
 8002140:	bd08      	pop	{r3, pc}
 8002142:	bf00      	nop
 8002144:	40013c00 	.word	0x40013c00

08002148 <_ZL39I2C_WaitOnMasterAddressFlagUntilTimeoutP17I2C_HandleTypeDefjj>:
 8002148:	e92d 41f0 	stmdb	sp!, {r4, r5, r6, r7, r8, lr}
 800214c:	460d      	mov	r5, r1
 800214e:	4604      	mov	r4, r0
 8002150:	4616      	mov	r6, r2
 8002152:	f7fe f8d7 	bl	8000304 <HAL_GetTick>
 8002156:	f3c5 4807 	ubfx	r8, r5, #16, #8
 800215a:	4607      	mov	r7, r0
 800215c:	6823      	ldr	r3, [r4, #0]
 800215e:	f1b8 0f01 	cmp.w	r8, #1
 8002162:	bf0c      	ite	eq
 8002164:	695a      	ldreq	r2, [r3, #20]
 8002166:	699a      	ldrne	r2, [r3, #24]
 8002168:	43d2      	mvns	r2, r2
 800216a:	b292      	uxth	r2, r2
 800216c:	422a      	tst	r2, r5
 800216e:	bf0c      	ite	eq
 8002170:	2200      	moveq	r2, #0
 8002172:	2201      	movne	r2, #1
 8002174:	b11a      	cbz	r2, 800217e <_ZL39I2C_WaitOnMasterAddressFlagUntilTimeoutP17I2C_HandleTypeDefjj+0x36>
 8002176:	695a      	ldr	r2, [r3, #20]
 8002178:	0552      	lsls	r2, r2, #21
 800217a:	d503      	bpl.n	8002184 <_ZL39I2C_WaitOnMasterAddressFlagUntilTimeoutP17I2C_HandleTypeDefjj+0x3c>
 800217c:	e00b      	b.n	8002196 <_ZL39I2C_WaitOnMasterAddressFlagUntilTimeoutP17I2C_HandleTypeDefjj+0x4e>
 800217e:	4610      	mov	r0, r2
 8002180:	e8bd 81f0 	ldmia.w	sp!, {r4, r5, r6, r7, r8, pc}
 8002184:	1c73      	adds	r3, r6, #1
 8002186:	d0e9      	beq.n	800215c <_ZL39I2C_WaitOnMasterAddressFlagUntilTimeoutP17I2C_HandleTypeDefjj+0x14>
 8002188:	b1b6      	cbz	r6, 80021b8 <_ZL39I2C_WaitOnMasterAddressFlagUntilTimeoutP17I2C_HandleTypeDefjj+0x70>
 800218a:	f7fe f8bb 	bl	8000304 <HAL_GetTick>
 800218e:	1bc0      	subs	r0, r0, r7
 8002190:	42b0      	cmp	r0, r6
 8002192:	d811      	bhi.n	80021b8 <_ZL39I2C_WaitOnMasterAddressFlagUntilTimeoutP17I2C_HandleTypeDefjj+0x70>
 8002194:	e7e2      	b.n	800215c <_ZL39I2C_WaitOnMasterAddressFlagUntilTimeoutP17I2C_HandleTypeDefjj+0x14>
 8002196:	681a      	ldr	r2, [r3, #0]
 8002198:	f442 7200 	orr.w	r2, r2, #512	; 0x200
 800219c:	601a      	str	r2, [r3, #0]
 800219e:	f46f 6280 	mvn.w	r2, #1024	; 0x400
 80021a2:	615a      	str	r2, [r3, #20]
 80021a4:	2304      	movs	r3, #4
 80021a6:	63a3      	str	r3, [r4, #56]	; 0x38
 80021a8:	2001      	movs	r0, #1
 80021aa:	2300      	movs	r3, #0
 80021ac:	f884 0035 	strb.w	r0, [r4, #53]	; 0x35
 80021b0:	f884 3034 	strb.w	r3, [r4, #52]	; 0x34
 80021b4:	e8bd 81f0 	ldmia.w	sp!, {r4, r5, r6, r7, r8, pc}
 80021b8:	2301      	movs	r3, #1
 80021ba:	f884 3035 	strb.w	r3, [r4, #53]	; 0x35
 80021be:	2300      	movs	r3, #0
 80021c0:	f884 3034 	strb.w	r3, [r4, #52]	; 0x34
 80021c4:	2003      	movs	r0, #3
 80021c6:	e8bd 81f0 	ldmia.w	sp!, {r4, r5, r6, r7, r8, pc}

080021ca <_ZL26I2C_WaitOnFlagUntilTimeoutP17I2C_HandleTypeDefj10FlagStatusj>:
 80021ca:	e92d 41f0 	stmdb	sp!, {r4, r5, r6, r7, r8, lr}
 80021ce:	460e      	mov	r6, r1
 80021d0:	461d      	mov	r5, r3
 80021d2:	4604      	mov	r4, r0
 80021d4:	4690      	mov	r8, r2
 80021d6:	f7fe f895 	bl	8000304 <HAL_GetTick>
 80021da:	0c33      	lsrs	r3, r6, #16
 80021dc:	4607      	mov	r7, r0
 80021de:	f1b8 0f00 	cmp.w	r8, #0
 80021e2:	d002      	beq.n	80021ea <_ZL26I2C_WaitOnFlagUntilTimeoutP17I2C_HandleTypeDefj10FlagStatusj+0x20>
 80021e4:	fa5f f883 	uxtb.w	r8, r3
 80021e8:	e019      	b.n	800221e <_ZL26I2C_WaitOnFlagUntilTimeoutP17I2C_HandleTypeDefj10FlagStatusj+0x54>
 80021ea:	fa5f f883 	uxtb.w	r8, r3
 80021ee:	6823      	ldr	r3, [r4, #0]
 80021f0:	f1b8 0f01 	cmp.w	r8, #1
 80021f4:	bf0c      	ite	eq
 80021f6:	695b      	ldreq	r3, [r3, #20]
 80021f8:	699b      	ldrne	r3, [r3, #24]
 80021fa:	43db      	mvns	r3, r3
 80021fc:	b29b      	uxth	r3, r3
 80021fe:	4233      	tst	r3, r6
 8002200:	bf0c      	ite	eq
 8002202:	2300      	moveq	r3, #0
 8002204:	2301      	movne	r3, #1
 8002206:	b1c3      	cbz	r3, 800223a <_ZL26I2C_WaitOnFlagUntilTimeoutP17I2C_HandleTypeDefj10FlagStatusj+0x70>
 8002208:	1c68      	adds	r0, r5, #1
 800220a:	d0f0      	beq.n	80021ee <_ZL26I2C_WaitOnFlagUntilTimeoutP17I2C_HandleTypeDefj10FlagStatusj+0x24>
 800220c:	b1f5      	cbz	r5, 800224c <_ZL26I2C_WaitOnFlagUntilTimeoutP17I2C_HandleTypeDefj10FlagStatusj+0x82>
 800220e:	f7fe f879 	bl	8000304 <HAL_GetTick>
 8002212:	1bc0      	subs	r0, r0, r7
 8002214:	42a8      	cmp	r0, r5
 8002216:	d819      	bhi.n	800224c <_ZL26I2C_WaitOnFlagUntilTimeoutP17I2C_HandleTypeDefj10FlagStatusj+0x82>
 8002218:	e7e9      	b.n	80021ee <_ZL26I2C_WaitOnFlagUntilTimeoutP17I2C_HandleTypeDefj10FlagStatusj+0x24>
 800221a:	1c69      	adds	r1, r5, #1
 800221c:	d110      	bne.n	8002240 <_ZL26I2C_WaitOnFlagUntilTimeoutP17I2C_HandleTypeDefj10FlagStatusj+0x76>
 800221e:	6823      	ldr	r3, [r4, #0]
 8002220:	f1b8 0f01 	cmp.w	r8, #1
 8002224:	bf0c      	ite	eq
 8002226:	695b      	ldreq	r3, [r3, #20]
 8002228:	699b      	ldrne	r3, [r3, #24]
 800222a:	43db      	mvns	r3, r3
 800222c:	b29b      	uxth	r3, r3
 800222e:	4233      	tst	r3, r6
 8002230:	bf14      	ite	ne
 8002232:	2300      	movne	r3, #0
 8002234:	2301      	moveq	r3, #1
 8002236:	2b00      	cmp	r3, #0
 8002238:	d1ef      	bne.n	800221a <_ZL26I2C_WaitOnFlagUntilTimeoutP17I2C_HandleTypeDefj10FlagStatusj+0x50>
 800223a:	2000      	movs	r0, #0
 800223c:	e8bd 81f0 	ldmia.w	sp!, {r4, r5, r6, r7, r8, pc}
 8002240:	b125      	cbz	r5, 800224c <_ZL26I2C_WaitOnFlagUntilTimeoutP17I2C_HandleTypeDefj10FlagStatusj+0x82>
 8002242:	f7fe f85f 	bl	8000304 <HAL_GetTick>
 8002246:	1bc0      	subs	r0, r0, r7
 8002248:	42a8      	cmp	r0, r5
 800224a:	d9e8      	bls.n	800221e <_ZL26I2C_WaitOnFlagUntilTimeoutP17I2C_HandleTypeDefj10FlagStatusj+0x54>
 800224c:	2301      	movs	r3, #1
 800224e:	f884 3035 	strb.w	r3, [r4, #53]	; 0x35
 8002252:	2300      	movs	r3, #0
 8002254:	f884 3034 	strb.w	r3, [r4, #52]	; 0x34
 8002258:	2003      	movs	r0, #3
 800225a:	e8bd 81f0 	ldmia.w	sp!, {r4, r5, r6, r7, r8, pc}

0800225e <_ZL22I2C_MasterRequestWriteP17I2C_HandleTypeDeftj>:
 800225e:	6803      	ldr	r3, [r0, #0]
 8002260:	b570      	push	{r4, r5, r6, lr}
 8002262:	4615      	mov	r5, r2
 8002264:	681a      	ldr	r2, [r3, #0]
 8002266:	f442 7280 	orr.w	r2, r2, #256	; 0x100
 800226a:	601a      	str	r2, [r3, #0]
 800226c:	460e      	mov	r6, r1
 800226e:	2200      	movs	r2, #0
 8002270:	f04f 1101 	mov.w	r1, #65537	; 0x10001
 8002274:	462b      	mov	r3, r5
 8002276:	4604      	mov	r4, r0
 8002278:	f7ff ffa7 	bl	80021ca <_ZL26I2C_WaitOnFlagUntilTimeoutP17I2C_HandleTypeDefj10FlagStatusj>
 800227c:	bb18      	cbnz	r0, 80022c6 <_ZL22I2C_MasterRequestWriteP17I2C_HandleTypeDeftj+0x68>
 800227e:	6923      	ldr	r3, [r4, #16]
 8002280:	f5b3 4f80 	cmp.w	r3, #16384	; 0x4000
 8002284:	6823      	ldr	r3, [r4, #0]
 8002286:	d102      	bne.n	800228e <_ZL22I2C_MasterRequestWriteP17I2C_HandleTypeDeftj+0x30>
 8002288:	f006 06fe 	and.w	r6, r6, #254	; 0xfe
 800228c:	e012      	b.n	80022b4 <_ZL22I2C_MasterRequestWriteP17I2C_HandleTypeDeftj+0x56>
 800228e:	f406 7240 	and.w	r2, r6, #768	; 0x300
 8002292:	11d2      	asrs	r2, r2, #7
 8002294:	f042 02f0 	orr.w	r2, r2, #240	; 0xf0
 8002298:	611a      	str	r2, [r3, #16]
 800229a:	4620      	mov	r0, r4
 800229c:	490b      	ldr	r1, [pc, #44]	; (80022cc <_ZL22I2C_MasterRequestWriteP17I2C_HandleTypeDeftj+0x6e>)
 800229e:	462a      	mov	r2, r5
 80022a0:	f7ff ff52 	bl	8002148 <_ZL39I2C_WaitOnMasterAddressFlagUntilTimeoutP17I2C_HandleTypeDefjj>
 80022a4:	b120      	cbz	r0, 80022b0 <_ZL22I2C_MasterRequestWriteP17I2C_HandleTypeDeftj+0x52>
 80022a6:	6ba3      	ldr	r3, [r4, #56]	; 0x38
 80022a8:	2b04      	cmp	r3, #4
 80022aa:	d10c      	bne.n	80022c6 <_ZL22I2C_MasterRequestWriteP17I2C_HandleTypeDeftj+0x68>
 80022ac:	2001      	movs	r0, #1
 80022ae:	bd70      	pop	{r4, r5, r6, pc}
 80022b0:	6823      	ldr	r3, [r4, #0]
 80022b2:	b2f6      	uxtb	r6, r6
 80022b4:	611e      	str	r6, [r3, #16]
 80022b6:	4620      	mov	r0, r4
 80022b8:	4905      	ldr	r1, [pc, #20]	; (80022d0 <_ZL22I2C_MasterRequestWriteP17I2C_HandleTypeDeftj+0x72>)
 80022ba:	462a      	mov	r2, r5
 80022bc:	f7ff ff44 	bl	8002148 <_ZL39I2C_WaitOnMasterAddressFlagUntilTimeoutP17I2C_HandleTypeDefjj>
 80022c0:	2800      	cmp	r0, #0
 80022c2:	d1f0      	bne.n	80022a6 <_ZL22I2C_MasterRequestWriteP17I2C_HandleTypeDeftj+0x48>
 80022c4:	e000      	b.n	80022c8 <_ZL22I2C_MasterRequestWriteP17I2C_HandleTypeDeftj+0x6a>
 80022c6:	2003      	movs	r0, #3
 80022c8:	bd70      	pop	{r4, r5, r6, pc}
 80022ca:	bf00      	nop
 80022cc:	00010008 	.word	0x00010008
 80022d0:	00010002 	.word	0x00010002

080022d4 <_ZL21I2C_MasterRequestReadP17I2C_HandleTypeDeftj>:
 80022d4:	6803      	ldr	r3, [r0, #0]
 80022d6:	b5f7      	push	{r0, r1, r2, r4, r5, r6, r7, lr}
 80022d8:	4615      	mov	r5, r2
 80022da:	681a      	ldr	r2, [r3, #0]
 80022dc:	f442 6280 	orr.w	r2, r2, #1024	; 0x400
 80022e0:	601a      	str	r2, [r3, #0]
 80022e2:	681a      	ldr	r2, [r3, #0]
 80022e4:	f442 7280 	orr.w	r2, r2, #256	; 0x100
 80022e8:	601a      	str	r2, [r3, #0]
 80022ea:	460e      	mov	r6, r1
 80022ec:	2200      	movs	r2, #0
 80022ee:	f04f 1101 	mov.w	r1, #65537	; 0x10001
 80022f2:	462b      	mov	r3, r5
 80022f4:	4604      	mov	r4, r0
 80022f6:	f7ff ff68 	bl	80021ca <_ZL26I2C_WaitOnFlagUntilTimeoutP17I2C_HandleTypeDefj10FlagStatusj>
 80022fa:	2800      	cmp	r0, #0
 80022fc:	d142      	bne.n	8002384 <_ZL21I2C_MasterRequestReadP17I2C_HandleTypeDeftj+0xb0>
 80022fe:	6923      	ldr	r3, [r4, #16]
 8002300:	f5b3 4f80 	cmp.w	r3, #16384	; 0x4000
 8002304:	6823      	ldr	r3, [r4, #0]
 8002306:	d104      	bne.n	8002312 <_ZL21I2C_MasterRequestReadP17I2C_HandleTypeDeftj+0x3e>
 8002308:	f046 0601 	orr.w	r6, r6, #1
 800230c:	b2f6      	uxtb	r6, r6
 800230e:	611e      	str	r6, [r3, #16]
 8002310:	e030      	b.n	8002374 <_ZL21I2C_MasterRequestReadP17I2C_HandleTypeDeftj+0xa0>
 8002312:	f406 7740 	and.w	r7, r6, #768	; 0x300
 8002316:	09ff      	lsrs	r7, r7, #7
 8002318:	f047 02f0 	orr.w	r2, r7, #240	; 0xf0
 800231c:	611a      	str	r2, [r3, #16]
 800231e:	4620      	mov	r0, r4
 8002320:	491a      	ldr	r1, [pc, #104]	; (800238c <_ZL21I2C_MasterRequestReadP17I2C_HandleTypeDeftj+0xb8>)
 8002322:	462a      	mov	r2, r5
 8002324:	f7ff ff10 	bl	8002148 <_ZL39I2C_WaitOnMasterAddressFlagUntilTimeoutP17I2C_HandleTypeDefjj>
 8002328:	b120      	cbz	r0, 8002334 <_ZL21I2C_MasterRequestReadP17I2C_HandleTypeDeftj+0x60>
 800232a:	6ba3      	ldr	r3, [r4, #56]	; 0x38
 800232c:	2b04      	cmp	r3, #4
 800232e:	d129      	bne.n	8002384 <_ZL21I2C_MasterRequestReadP17I2C_HandleTypeDeftj+0xb0>
 8002330:	2001      	movs	r0, #1
 8002332:	e028      	b.n	8002386 <_ZL21I2C_MasterRequestReadP17I2C_HandleTypeDeftj+0xb2>
 8002334:	6823      	ldr	r3, [r4, #0]
 8002336:	4916      	ldr	r1, [pc, #88]	; (8002390 <_ZL21I2C_MasterRequestReadP17I2C_HandleTypeDeftj+0xbc>)
 8002338:	b2f6      	uxtb	r6, r6
 800233a:	462a      	mov	r2, r5
 800233c:	611e      	str	r6, [r3, #16]
 800233e:	4620      	mov	r0, r4
 8002340:	f7ff ff02 	bl	8002148 <_ZL39I2C_WaitOnMasterAddressFlagUntilTimeoutP17I2C_HandleTypeDefjj>
 8002344:	4602      	mov	r2, r0
 8002346:	2800      	cmp	r0, #0
 8002348:	d1ef      	bne.n	800232a <_ZL21I2C_MasterRequestReadP17I2C_HandleTypeDeftj+0x56>
 800234a:	6823      	ldr	r3, [r4, #0]
 800234c:	6959      	ldr	r1, [r3, #20]
 800234e:	9101      	str	r1, [sp, #4]
 8002350:	6999      	ldr	r1, [r3, #24]
 8002352:	9101      	str	r1, [sp, #4]
 8002354:	9901      	ldr	r1, [sp, #4]
 8002356:	6819      	ldr	r1, [r3, #0]
 8002358:	f441 7180 	orr.w	r1, r1, #256	; 0x100
 800235c:	6019      	str	r1, [r3, #0]
 800235e:	4620      	mov	r0, r4
 8002360:	f04f 1101 	mov.w	r1, #65537	; 0x10001
 8002364:	462b      	mov	r3, r5
 8002366:	f7ff ff30 	bl	80021ca <_ZL26I2C_WaitOnFlagUntilTimeoutP17I2C_HandleTypeDefj10FlagStatusj>
 800236a:	b958      	cbnz	r0, 8002384 <_ZL21I2C_MasterRequestReadP17I2C_HandleTypeDeftj+0xb0>
 800236c:	6823      	ldr	r3, [r4, #0]
 800236e:	f047 07f1 	orr.w	r7, r7, #241	; 0xf1
 8002372:	611f      	str	r7, [r3, #16]
 8002374:	4620      	mov	r0, r4
 8002376:	4906      	ldr	r1, [pc, #24]	; (8002390 <_ZL21I2C_MasterRequestReadP17I2C_HandleTypeDeftj+0xbc>)
 8002378:	462a      	mov	r2, r5
 800237a:	f7ff fee5 	bl	8002148 <_ZL39I2C_WaitOnMasterAddressFlagUntilTimeoutP17I2C_HandleTypeDefjj>
 800237e:	2800      	cmp	r0, #0
 8002380:	d1d3      	bne.n	800232a <_ZL21I2C_MasterRequestReadP17I2C_HandleTypeDeftj+0x56>
 8002382:	e000      	b.n	8002386 <_ZL21I2C_MasterRequestReadP17I2C_HandleTypeDeftj+0xb2>
 8002384:	2003      	movs	r0, #3
 8002386:	b003      	add	sp, #12
 8002388:	bdf0      	pop	{r4, r5, r6, r7, pc}
 800238a:	bf00      	nop
 800238c:	00010008 	.word	0x00010008
 8002390:	00010002 	.word	0x00010002

08002394 <_ZL22I2C_RequestMemoryWriteP17I2C_HandleTypeDeftttj>:
 8002394:	e92d 41f3 	stmdb	sp!, {r0, r1, r4, r5, r6, r7, r8, lr}
 8002398:	4617      	mov	r7, r2
 800239a:	6802      	ldr	r2, [r0, #0]
 800239c:	9e08      	ldr	r6, [sp, #32]
 800239e:	4698      	mov	r8, r3
 80023a0:	6813      	ldr	r3, [r2, #0]
 80023a2:	f443 7380 	orr.w	r3, r3, #256	; 0x100
 80023a6:	6013      	str	r3, [r2, #0]
 80023a8:	460d      	mov	r5, r1
 80023aa:	2200      	movs	r2, #0
 80023ac:	f04f 1101 	mov.w	r1, #65537	; 0x10001
 80023b0:	4633      	mov	r3, r6
 80023b2:	4604      	mov	r4, r0
 80023b4:	f7ff ff09 	bl	80021ca <_ZL26I2C_WaitOnFlagUntilTimeoutP17I2C_HandleTypeDefj10FlagStatusj>
 80023b8:	2800      	cmp	r0, #0
 80023ba:	d12f      	bne.n	800241c <_ZL22I2C_RequestMemoryWriteP17I2C_HandleTypeDeftttj+0x88>
 80023bc:	6823      	ldr	r3, [r4, #0]
 80023be:	491a      	ldr	r1, [pc, #104]	; (8002428 <_ZL22I2C_RequestMemoryWriteP17I2C_HandleTypeDeftttj+0x94>)
 80023c0:	f005 05fe 	and.w	r5, r5, #254	; 0xfe
 80023c4:	4632      	mov	r2, r6
 80023c6:	611d      	str	r5, [r3, #16]
 80023c8:	4620      	mov	r0, r4
 80023ca:	f7ff febd 	bl	8002148 <_ZL39I2C_WaitOnMasterAddressFlagUntilTimeoutP17I2C_HandleTypeDefjj>
 80023ce:	4602      	mov	r2, r0
 80023d0:	b128      	cbz	r0, 80023de <_ZL22I2C_RequestMemoryWriteP17I2C_HandleTypeDeftttj+0x4a>
 80023d2:	6ba5      	ldr	r5, [r4, #56]	; 0x38
 80023d4:	2d04      	cmp	r5, #4
 80023d6:	bf14      	ite	ne
 80023d8:	2503      	movne	r5, #3
 80023da:	2501      	moveq	r5, #1
 80023dc:	e01f      	b.n	800241e <_ZL22I2C_RequestMemoryWriteP17I2C_HandleTypeDeftttj+0x8a>
 80023de:	6821      	ldr	r1, [r4, #0]
 80023e0:	694b      	ldr	r3, [r1, #20]
 80023e2:	9301      	str	r3, [sp, #4]
 80023e4:	698b      	ldr	r3, [r1, #24]
 80023e6:	4911      	ldr	r1, [pc, #68]	; (800242c <_ZL22I2C_RequestMemoryWriteP17I2C_HandleTypeDeftttj+0x98>)
 80023e8:	9301      	str	r3, [sp, #4]
 80023ea:	9b01      	ldr	r3, [sp, #4]
 80023ec:	4620      	mov	r0, r4
 80023ee:	4633      	mov	r3, r6
 80023f0:	f7ff feeb 	bl	80021ca <_ZL26I2C_WaitOnFlagUntilTimeoutP17I2C_HandleTypeDefj10FlagStatusj>
 80023f4:	4605      	mov	r5, r0
 80023f6:	b988      	cbnz	r0, 800241c <_ZL22I2C_RequestMemoryWriteP17I2C_HandleTypeDeftttj+0x88>
 80023f8:	f1b8 0f01 	cmp.w	r8, #1
 80023fc:	6823      	ldr	r3, [r4, #0]
 80023fe:	d00a      	beq.n	8002416 <_ZL22I2C_RequestMemoryWriteP17I2C_HandleTypeDeftttj+0x82>
 8002400:	0a3a      	lsrs	r2, r7, #8
 8002402:	611a      	str	r2, [r3, #16]
 8002404:	4620      	mov	r0, r4
 8002406:	462a      	mov	r2, r5
 8002408:	4908      	ldr	r1, [pc, #32]	; (800242c <_ZL22I2C_RequestMemoryWriteP17I2C_HandleTypeDeftttj+0x98>)
 800240a:	4633      	mov	r3, r6
 800240c:	f7ff fedd 	bl	80021ca <_ZL26I2C_WaitOnFlagUntilTimeoutP17I2C_HandleTypeDefj10FlagStatusj>
 8002410:	4605      	mov	r5, r0
 8002412:	b918      	cbnz	r0, 800241c <_ZL22I2C_RequestMemoryWriteP17I2C_HandleTypeDeftttj+0x88>
 8002414:	6823      	ldr	r3, [r4, #0]
 8002416:	b2ff      	uxtb	r7, r7
 8002418:	611f      	str	r7, [r3, #16]
 800241a:	e000      	b.n	800241e <_ZL22I2C_RequestMemoryWriteP17I2C_HandleTypeDeftttj+0x8a>
 800241c:	2503      	movs	r5, #3
 800241e:	4628      	mov	r0, r5
 8002420:	b002      	add	sp, #8
 8002422:	e8bd 81f0 	ldmia.w	sp!, {r4, r5, r6, r7, r8, pc}
 8002426:	bf00      	nop
 8002428:	00010002 	.word	0x00010002
 800242c:	00010080 	.word	0x00010080

08002430 <_ZL21I2C_RequestMemoryReadP17I2C_HandleTypeDeftttj>:
 8002430:	e92d 43f7 	stmdb	sp!, {r0, r1, r2, r4, r5, r6, r7, r8, r9, lr}
 8002434:	6806      	ldr	r6, [r0, #0]
 8002436:	9d0a      	ldr	r5, [sp, #40]	; 0x28
 8002438:	4698      	mov	r8, r3
 800243a:	6833      	ldr	r3, [r6, #0]
 800243c:	f443 6380 	orr.w	r3, r3, #1024	; 0x400
 8002440:	6033      	str	r3, [r6, #0]
 8002442:	6833      	ldr	r3, [r6, #0]
 8002444:	f443 7380 	orr.w	r3, r3, #256	; 0x100
 8002448:	4689      	mov	r9, r1
 800244a:	4617      	mov	r7, r2
 800244c:	6033      	str	r3, [r6, #0]
 800244e:	f04f 1101 	mov.w	r1, #65537	; 0x10001
 8002452:	2200      	movs	r2, #0
 8002454:	462b      	mov	r3, r5
 8002456:	4604      	mov	r4, r0
 8002458:	f7ff feb7 	bl	80021ca <_ZL26I2C_WaitOnFlagUntilTimeoutP17I2C_HandleTypeDefj10FlagStatusj>
 800245c:	2800      	cmp	r0, #0
 800245e:	d14e      	bne.n	80024fe <_ZL21I2C_RequestMemoryReadP17I2C_HandleTypeDeftttj+0xce>
 8002460:	6823      	ldr	r3, [r4, #0]
 8002462:	4929      	ldr	r1, [pc, #164]	; (8002508 <_ZL21I2C_RequestMemoryReadP17I2C_HandleTypeDeftttj+0xd8>)
 8002464:	fa5f f689 	uxtb.w	r6, r9
 8002468:	f006 02fe 	and.w	r2, r6, #254	; 0xfe
 800246c:	611a      	str	r2, [r3, #16]
 800246e:	4620      	mov	r0, r4
 8002470:	462a      	mov	r2, r5
 8002472:	f7ff fe69 	bl	8002148 <_ZL39I2C_WaitOnMasterAddressFlagUntilTimeoutP17I2C_HandleTypeDefjj>
 8002476:	4602      	mov	r2, r0
 8002478:	b120      	cbz	r0, 8002484 <_ZL21I2C_RequestMemoryReadP17I2C_HandleTypeDeftttj+0x54>
 800247a:	6ba3      	ldr	r3, [r4, #56]	; 0x38
 800247c:	2b04      	cmp	r3, #4
 800247e:	d13e      	bne.n	80024fe <_ZL21I2C_RequestMemoryReadP17I2C_HandleTypeDeftttj+0xce>
 8002480:	2001      	movs	r0, #1
 8002482:	e03d      	b.n	8002500 <_ZL21I2C_RequestMemoryReadP17I2C_HandleTypeDeftttj+0xd0>
 8002484:	6823      	ldr	r3, [r4, #0]
 8002486:	6959      	ldr	r1, [r3, #20]
 8002488:	9101      	str	r1, [sp, #4]
 800248a:	699b      	ldr	r3, [r3, #24]
 800248c:	491f      	ldr	r1, [pc, #124]	; (800250c <_ZL21I2C_RequestMemoryReadP17I2C_HandleTypeDeftttj+0xdc>)
 800248e:	9301      	str	r3, [sp, #4]
 8002490:	9b01      	ldr	r3, [sp, #4]
 8002492:	4620      	mov	r0, r4
 8002494:	462b      	mov	r3, r5
 8002496:	f7ff fe98 	bl	80021ca <_ZL26I2C_WaitOnFlagUntilTimeoutP17I2C_HandleTypeDefj10FlagStatusj>
 800249a:	4602      	mov	r2, r0
 800249c:	2800      	cmp	r0, #0
 800249e:	d12e      	bne.n	80024fe <_ZL21I2C_RequestMemoryReadP17I2C_HandleTypeDeftttj+0xce>
 80024a0:	f1b8 0f01 	cmp.w	r8, #1
 80024a4:	6823      	ldr	r3, [r4, #0]
 80024a6:	d008      	beq.n	80024ba <_ZL21I2C_RequestMemoryReadP17I2C_HandleTypeDeftttj+0x8a>
 80024a8:	0a39      	lsrs	r1, r7, #8
 80024aa:	6119      	str	r1, [r3, #16]
 80024ac:	4620      	mov	r0, r4
 80024ae:	4917      	ldr	r1, [pc, #92]	; (800250c <_ZL21I2C_RequestMemoryReadP17I2C_HandleTypeDeftttj+0xdc>)
 80024b0:	462b      	mov	r3, r5
 80024b2:	f7ff fe8a 	bl	80021ca <_ZL26I2C_WaitOnFlagUntilTimeoutP17I2C_HandleTypeDefj10FlagStatusj>
 80024b6:	bb10      	cbnz	r0, 80024fe <_ZL21I2C_RequestMemoryReadP17I2C_HandleTypeDeftttj+0xce>
 80024b8:	6823      	ldr	r3, [r4, #0]
 80024ba:	b2ff      	uxtb	r7, r7
 80024bc:	611f      	str	r7, [r3, #16]
 80024be:	2200      	movs	r2, #0
 80024c0:	4620      	mov	r0, r4
 80024c2:	4912      	ldr	r1, [pc, #72]	; (800250c <_ZL21I2C_RequestMemoryReadP17I2C_HandleTypeDeftttj+0xdc>)
 80024c4:	462b      	mov	r3, r5
 80024c6:	f7ff fe80 	bl	80021ca <_ZL26I2C_WaitOnFlagUntilTimeoutP17I2C_HandleTypeDefj10FlagStatusj>
 80024ca:	4602      	mov	r2, r0
 80024cc:	b9b8      	cbnz	r0, 80024fe <_ZL21I2C_RequestMemoryReadP17I2C_HandleTypeDeftttj+0xce>
 80024ce:	6823      	ldr	r3, [r4, #0]
 80024d0:	6819      	ldr	r1, [r3, #0]
 80024d2:	f441 7180 	orr.w	r1, r1, #256	; 0x100
 80024d6:	6019      	str	r1, [r3, #0]
 80024d8:	4620      	mov	r0, r4
 80024da:	f04f 1101 	mov.w	r1, #65537	; 0x10001
 80024de:	462b      	mov	r3, r5
 80024e0:	f7ff fe73 	bl	80021ca <_ZL26I2C_WaitOnFlagUntilTimeoutP17I2C_HandleTypeDefj10FlagStatusj>
 80024e4:	b958      	cbnz	r0, 80024fe <_ZL21I2C_RequestMemoryReadP17I2C_HandleTypeDeftttj+0xce>
 80024e6:	6823      	ldr	r3, [r4, #0]
 80024e8:	4907      	ldr	r1, [pc, #28]	; (8002508 <_ZL21I2C_RequestMemoryReadP17I2C_HandleTypeDeftttj+0xd8>)
 80024ea:	f046 0601 	orr.w	r6, r6, #1
 80024ee:	611e      	str	r6, [r3, #16]
 80024f0:	4620      	mov	r0, r4
 80024f2:	462a      	mov	r2, r5
 80024f4:	f7ff fe28 	bl	8002148 <_ZL39I2C_WaitOnMasterAddressFlagUntilTimeoutP17I2C_HandleTypeDefjj>
 80024f8:	2800      	cmp	r0, #0
 80024fa:	d1be      	bne.n	800247a <_ZL21I2C_RequestMemoryReadP17I2C_HandleTypeDeftttj+0x4a>
 80024fc:	e000      	b.n	8002500 <_ZL21I2C_RequestMemoryReadP17I2C_HandleTypeDeftttj+0xd0>
 80024fe:	2003      	movs	r0, #3
 8002500:	b003      	add	sp, #12
 8002502:	e8bd 83f0 	ldmia.w	sp!, {r4, r5, r6, r7, r8, r9, pc}
 8002506:	bf00      	nop
 8002508:	00010002 	.word	0x00010002
 800250c:	00010080 	.word	0x00010080

08002510 <HAL_I2C_MspInit>:
 8002510:	4770      	bx	lr

08002512 <HAL_I2C_Init>:
 8002512:	b570      	push	{r4, r5, r6, lr}
 8002514:	4604      	mov	r4, r0
 8002516:	2800      	cmp	r0, #0
 8002518:	d05e      	beq.n	80025d8 <HAL_I2C_Init+0xc6>
 800251a:	f890 3035 	ldrb.w	r3, [r0, #53]	; 0x35
 800251e:	f003 02ff 	and.w	r2, r3, #255	; 0xff
 8002522:	b91b      	cbnz	r3, 800252c <HAL_I2C_Init+0x1a>
 8002524:	f880 2034 	strb.w	r2, [r0, #52]	; 0x34
 8002528:	f7ff fff2 	bl	8002510 <HAL_I2C_MspInit>
 800252c:	2302      	movs	r3, #2
 800252e:	f884 3035 	strb.w	r3, [r4, #53]	; 0x35
 8002532:	6823      	ldr	r3, [r4, #0]
 8002534:	4d29      	ldr	r5, [pc, #164]	; (80025dc <HAL_I2C_Init+0xca>)
 8002536:	681a      	ldr	r2, [r3, #0]
 8002538:	f022 0201 	bic.w	r2, r2, #1
 800253c:	601a      	str	r2, [r3, #0]
 800253e:	f001 fe91 	bl	8004264 <HAL_RCC_GetPCLK1Freq>
 8002542:	6862      	ldr	r2, [r4, #4]
 8002544:	4926      	ldr	r1, [pc, #152]	; (80025e0 <HAL_I2C_Init+0xce>)
 8002546:	6823      	ldr	r3, [r4, #0]
 8002548:	42aa      	cmp	r2, r5
 800254a:	fbb0 f1f1 	udiv	r1, r0, r1
 800254e:	bf88      	it	hi
 8002550:	f44f 7696 	movhi.w	r6, #300	; 0x12c
 8002554:	6059      	str	r1, [r3, #4]
 8002556:	bf82      	ittt	hi
 8002558:	4371      	mulhi	r1, r6
 800255a:	f44f 767a 	movhi.w	r6, #1000	; 0x3e8
 800255e:	fbb1 f1f6 	udivhi	r1, r1, r6
 8002562:	3101      	adds	r1, #1
 8002564:	42aa      	cmp	r2, r5
 8002566:	6219      	str	r1, [r3, #32]
 8002568:	d808      	bhi.n	800257c <HAL_I2C_Init+0x6a>
 800256a:	0052      	lsls	r2, r2, #1
 800256c:	fbb0 f0f2 	udiv	r0, r0, r2
 8002570:	f3c0 020b 	ubfx	r2, r0, #0, #12
 8002574:	2a03      	cmp	r2, #3
 8002576:	bf98      	it	ls
 8002578:	2004      	movls	r0, #4
 800257a:	e016      	b.n	80025aa <HAL_I2C_Init+0x98>
 800257c:	68a1      	ldr	r1, [r4, #8]
 800257e:	b949      	cbnz	r1, 8002594 <HAL_I2C_Init+0x82>
 8002580:	2103      	movs	r1, #3
 8002582:	434a      	muls	r2, r1
 8002584:	fbb0 f0f2 	udiv	r0, r0, r2
 8002588:	f3c0 020b 	ubfx	r2, r0, #0, #12
 800258c:	b162      	cbz	r2, 80025a8 <HAL_I2C_Init+0x96>
 800258e:	f440 4000 	orr.w	r0, r0, #32768	; 0x8000
 8002592:	e00a      	b.n	80025aa <HAL_I2C_Init+0x98>
 8002594:	2119      	movs	r1, #25
 8002596:	434a      	muls	r2, r1
 8002598:	fbb0 f0f2 	udiv	r0, r0, r2
 800259c:	f3c0 020b 	ubfx	r2, r0, #0, #12
 80025a0:	b112      	cbz	r2, 80025a8 <HAL_I2C_Init+0x96>
 80025a2:	f440 4040 	orr.w	r0, r0, #49152	; 0xc000
 80025a6:	e000      	b.n	80025aa <HAL_I2C_Init+0x98>
 80025a8:	2001      	movs	r0, #1
 80025aa:	6a21      	ldr	r1, [r4, #32]
 80025ac:	69e2      	ldr	r2, [r4, #28]
 80025ae:	61d8      	str	r0, [r3, #28]
 80025b0:	430a      	orrs	r2, r1
 80025b2:	601a      	str	r2, [r3, #0]
 80025b4:	68e1      	ldr	r1, [r4, #12]
 80025b6:	6922      	ldr	r2, [r4, #16]
 80025b8:	430a      	orrs	r2, r1
 80025ba:	609a      	str	r2, [r3, #8]
 80025bc:	69a1      	ldr	r1, [r4, #24]
 80025be:	6962      	ldr	r2, [r4, #20]
 80025c0:	430a      	orrs	r2, r1
 80025c2:	60da      	str	r2, [r3, #12]
 80025c4:	681a      	ldr	r2, [r3, #0]
 80025c6:	f042 0201 	orr.w	r2, r2, #1
 80025ca:	601a      	str	r2, [r3, #0]
 80025cc:	2000      	movs	r0, #0
 80025ce:	2301      	movs	r3, #1
 80025d0:	63a0      	str	r0, [r4, #56]	; 0x38
 80025d2:	f884 3035 	strb.w	r3, [r4, #53]	; 0x35
 80025d6:	bd70      	pop	{r4, r5, r6, pc}
 80025d8:	2001      	movs	r0, #1
 80025da:	bd70      	pop	{r4, r5, r6, pc}
 80025dc:	000186a0 	.word	0x000186a0
 80025e0:	000f4240 	.word	0x000f4240

080025e4 <HAL_I2C_MspDeInit>:
 80025e4:	4770      	bx	lr

080025e6 <HAL_I2C_DeInit>:
 80025e6:	b510      	push	{r4, lr}
 80025e8:	4604      	mov	r4, r0
 80025ea:	b180      	cbz	r0, 800260e <HAL_I2C_DeInit+0x28>
 80025ec:	2302      	movs	r3, #2
 80025ee:	f880 3035 	strb.w	r3, [r0, #53]	; 0x35
 80025f2:	6803      	ldr	r3, [r0, #0]
 80025f4:	681a      	ldr	r2, [r3, #0]
 80025f6:	f022 0201 	bic.w	r2, r2, #1
 80025fa:	601a      	str	r2, [r3, #0]
 80025fc:	f7ff fff2 	bl	80025e4 <HAL_I2C_MspDeInit>
 8002600:	2000      	movs	r0, #0
 8002602:	63a0      	str	r0, [r4, #56]	; 0x38
 8002604:	f884 0034 	strb.w	r0, [r4, #52]	; 0x34
 8002608:	f884 0035 	strb.w	r0, [r4, #53]	; 0x35
 800260c:	bd10      	pop	{r4, pc}
 800260e:	2001      	movs	r0, #1
 8002610:	bd10      	pop	{r4, pc}

08002612 <HAL_I2C_Master_Transmit>:
 8002612:	e92d 43f7 	stmdb	sp!, {r0, r1, r2, r4, r5, r6, r7, r8, r9, lr}
 8002616:	f890 7035 	ldrb.w	r7, [r0, #53]	; 0x35
 800261a:	f8dd 8028 	ldr.w	r8, [sp, #40]	; 0x28
 800261e:	b2ff      	uxtb	r7, r7
 8002620:	2f01      	cmp	r7, #1
 8002622:	4604      	mov	r4, r0
 8002624:	4616      	mov	r6, r2
 8002626:	461d      	mov	r5, r3
 8002628:	d11c      	bne.n	8002664 <HAL_I2C_Master_Transmit+0x52>
 800262a:	b1ca      	cbz	r2, 8002660 <HAL_I2C_Master_Transmit+0x4e>
 800262c:	b1c3      	cbz	r3, 8002660 <HAL_I2C_Master_Transmit+0x4e>
 800262e:	6803      	ldr	r3, [r0, #0]
 8002630:	699b      	ldr	r3, [r3, #24]
 8002632:	f013 0902 	ands.w	r9, r3, #2
 8002636:	d115      	bne.n	8002664 <HAL_I2C_Master_Transmit+0x52>
 8002638:	f890 3034 	ldrb.w	r3, [r0, #52]	; 0x34
 800263c:	2b01      	cmp	r3, #1
 800263e:	d011      	beq.n	8002664 <HAL_I2C_Master_Transmit+0x52>
 8002640:	2312      	movs	r3, #18
 8002642:	f884 3035 	strb.w	r3, [r4, #53]	; 0x35
 8002646:	f884 7034 	strb.w	r7, [r4, #52]	; 0x34
 800264a:	f8c4 9038 	str.w	r9, [r4, #56]	; 0x38
 800264e:	4642      	mov	r2, r8
 8002650:	f7ff fe05 	bl	800225e <_ZL22I2C_MasterRequestWriteP17I2C_HandleTypeDeftj>
 8002654:	b140      	cbz	r0, 8002668 <HAL_I2C_Master_Transmit+0x56>
 8002656:	6ba3      	ldr	r3, [r4, #56]	; 0x38
 8002658:	f884 9034 	strb.w	r9, [r4, #52]	; 0x34
 800265c:	2b04      	cmp	r3, #4
 800265e:	d11f      	bne.n	80026a0 <HAL_I2C_Master_Transmit+0x8e>
 8002660:	4638      	mov	r0, r7
 8002662:	e041      	b.n	80026e8 <HAL_I2C_Master_Transmit+0xd6>
 8002664:	2002      	movs	r0, #2
 8002666:	e03f      	b.n	80026e8 <HAL_I2C_Master_Transmit+0xd6>
 8002668:	6823      	ldr	r3, [r4, #0]
 800266a:	695a      	ldr	r2, [r3, #20]
 800266c:	9201      	str	r2, [sp, #4]
 800266e:	699b      	ldr	r3, [r3, #24]
 8002670:	9301      	str	r3, [sp, #4]
 8002672:	9b01      	ldr	r3, [sp, #4]
 8002674:	e00b      	b.n	800268e <HAL_I2C_Master_Transmit+0x7c>
 8002676:	4632      	mov	r2, r6
 8002678:	6823      	ldr	r3, [r4, #0]
 800267a:	f812 1b01 	ldrb.w	r1, [r2], #1
 800267e:	6119      	str	r1, [r3, #16]
 8002680:	6958      	ldr	r0, [r3, #20]
 8002682:	1e69      	subs	r1, r5, #1
 8002684:	0747      	lsls	r7, r0, #29
 8002686:	b289      	uxth	r1, r1
 8002688:	d40c      	bmi.n	80026a4 <HAL_I2C_Master_Transmit+0x92>
 800268a:	460d      	mov	r5, r1
 800268c:	4616      	mov	r6, r2
 800268e:	4620      	mov	r0, r4
 8002690:	4917      	ldr	r1, [pc, #92]	; (80026f0 <HAL_I2C_Master_Transmit+0xde>)
 8002692:	b155      	cbz	r5, 80026aa <HAL_I2C_Master_Transmit+0x98>
 8002694:	2200      	movs	r2, #0
 8002696:	4643      	mov	r3, r8
 8002698:	f7ff fd97 	bl	80021ca <_ZL26I2C_WaitOnFlagUntilTimeoutP17I2C_HandleTypeDefj10FlagStatusj>
 800269c:	2800      	cmp	r0, #0
 800269e:	d0ea      	beq.n	8002676 <HAL_I2C_Master_Transmit+0x64>
 80026a0:	2003      	movs	r0, #3
 80026a2:	e021      	b.n	80026e8 <HAL_I2C_Master_Transmit+0xd6>
 80026a4:	2900      	cmp	r1, #0
 80026a6:	d0f0      	beq.n	800268a <HAL_I2C_Master_Transmit+0x78>
 80026a8:	e018      	b.n	80026dc <HAL_I2C_Master_Transmit+0xca>
 80026aa:	462a      	mov	r2, r5
 80026ac:	4643      	mov	r3, r8
 80026ae:	f7ff fd8c 	bl	80021ca <_ZL26I2C_WaitOnFlagUntilTimeoutP17I2C_HandleTypeDefj10FlagStatusj>
 80026b2:	2800      	cmp	r0, #0
 80026b4:	d1f4      	bne.n	80026a0 <HAL_I2C_Master_Transmit+0x8e>
 80026b6:	6823      	ldr	r3, [r4, #0]
 80026b8:	490e      	ldr	r1, [pc, #56]	; (80026f4 <HAL_I2C_Master_Transmit+0xe2>)
 80026ba:	681a      	ldr	r2, [r3, #0]
 80026bc:	f442 7200 	orr.w	r2, r2, #512	; 0x200
 80026c0:	601a      	str	r2, [r3, #0]
 80026c2:	4620      	mov	r0, r4
 80026c4:	2201      	movs	r2, #1
 80026c6:	4643      	mov	r3, r8
 80026c8:	f7ff fd7f 	bl	80021ca <_ZL26I2C_WaitOnFlagUntilTimeoutP17I2C_HandleTypeDefj10FlagStatusj>
 80026cc:	2800      	cmp	r0, #0
 80026ce:	d1e7      	bne.n	80026a0 <HAL_I2C_Master_Transmit+0x8e>
 80026d0:	2301      	movs	r3, #1
 80026d2:	f884 3035 	strb.w	r3, [r4, #53]	; 0x35
 80026d6:	f884 5034 	strb.w	r5, [r4, #52]	; 0x34
 80026da:	e005      	b.n	80026e8 <HAL_I2C_Master_Transmit+0xd6>
 80026dc:	7872      	ldrb	r2, [r6, #1]
 80026de:	3d02      	subs	r5, #2
 80026e0:	611a      	str	r2, [r3, #16]
 80026e2:	b2ad      	uxth	r5, r5
 80026e4:	3602      	adds	r6, #2
 80026e6:	e7d2      	b.n	800268e <HAL_I2C_Master_Transmit+0x7c>
 80026e8:	b003      	add	sp, #12
 80026ea:	e8bd 83f0 	ldmia.w	sp!, {r4, r5, r6, r7, r8, r9, pc}
 80026ee:	bf00      	nop
 80026f0:	00010080 	.word	0x00010080
 80026f4:	00100002 	.word	0x00100002

080026f8 <HAL_I2C_Master_Receive>:
 80026f8:	e92d 43f0 	stmdb	sp!, {r4, r5, r6, r7, r8, r9, lr}
 80026fc:	f890 8035 	ldrb.w	r8, [r0, #53]	; 0x35
 8002700:	b085      	sub	sp, #20
 8002702:	fa5f f888 	uxtb.w	r8, r8
 8002706:	f1b8 0f01 	cmp.w	r8, #1
 800270a:	4604      	mov	r4, r0
 800270c:	4615      	mov	r5, r2
 800270e:	461e      	mov	r6, r3
 8002710:	9f0c      	ldr	r7, [sp, #48]	; 0x30
 8002712:	d11c      	bne.n	800274e <HAL_I2C_Master_Receive+0x56>
 8002714:	b1ca      	cbz	r2, 800274a <HAL_I2C_Master_Receive+0x52>
 8002716:	b1c3      	cbz	r3, 800274a <HAL_I2C_Master_Receive+0x52>
 8002718:	6803      	ldr	r3, [r0, #0]
 800271a:	699b      	ldr	r3, [r3, #24]
 800271c:	f013 0902 	ands.w	r9, r3, #2
 8002720:	d115      	bne.n	800274e <HAL_I2C_Master_Receive+0x56>
 8002722:	f890 3034 	ldrb.w	r3, [r0, #52]	; 0x34
 8002726:	2b01      	cmp	r3, #1
 8002728:	d011      	beq.n	800274e <HAL_I2C_Master_Receive+0x56>
 800272a:	2322      	movs	r3, #34	; 0x22
 800272c:	f884 3035 	strb.w	r3, [r4, #53]	; 0x35
 8002730:	f884 8034 	strb.w	r8, [r4, #52]	; 0x34
 8002734:	f8c4 9038 	str.w	r9, [r4, #56]	; 0x38
 8002738:	463a      	mov	r2, r7
 800273a:	f7ff fdcb 	bl	80022d4 <_ZL21I2C_MasterRequestReadP17I2C_HandleTypeDeftj>
 800273e:	b140      	cbz	r0, 8002752 <HAL_I2C_Master_Receive+0x5a>
 8002740:	6ba3      	ldr	r3, [r4, #56]	; 0x38
 8002742:	f884 9034 	strb.w	r9, [r4, #52]	; 0x34
 8002746:	2b04      	cmp	r3, #4
 8002748:	d136      	bne.n	80027b8 <HAL_I2C_Master_Receive+0xc0>
 800274a:	4640      	mov	r0, r8
 800274c:	e097      	b.n	800287e <HAL_I2C_Master_Receive+0x186>
 800274e:	2002      	movs	r0, #2
 8002750:	e095      	b.n	800287e <HAL_I2C_Master_Receive+0x186>
 8002752:	6821      	ldr	r1, [r4, #0]
 8002754:	2e01      	cmp	r6, #1
 8002756:	680b      	ldr	r3, [r1, #0]
 8002758:	d10c      	bne.n	8002774 <HAL_I2C_Master_Receive+0x7c>
 800275a:	f423 6380 	bic.w	r3, r3, #1024	; 0x400
 800275e:	600b      	str	r3, [r1, #0]
 8002760:	694b      	ldr	r3, [r1, #20]
 8002762:	9301      	str	r3, [sp, #4]
 8002764:	698b      	ldr	r3, [r1, #24]
 8002766:	9301      	str	r3, [sp, #4]
 8002768:	9b01      	ldr	r3, [sp, #4]
 800276a:	680b      	ldr	r3, [r1, #0]
 800276c:	f443 7300 	orr.w	r3, r3, #512	; 0x200
 8002770:	600b      	str	r3, [r1, #0]
 8002772:	e016      	b.n	80027a2 <HAL_I2C_Master_Receive+0xaa>
 8002774:	2e02      	cmp	r6, #2
 8002776:	d10c      	bne.n	8002792 <HAL_I2C_Master_Receive+0x9a>
 8002778:	f423 6380 	bic.w	r3, r3, #1024	; 0x400
 800277c:	600b      	str	r3, [r1, #0]
 800277e:	680b      	ldr	r3, [r1, #0]
 8002780:	f443 6300 	orr.w	r3, r3, #2048	; 0x800
 8002784:	600b      	str	r3, [r1, #0]
 8002786:	694b      	ldr	r3, [r1, #20]
 8002788:	9302      	str	r3, [sp, #8]
 800278a:	698b      	ldr	r3, [r1, #24]
 800278c:	9302      	str	r3, [sp, #8]
 800278e:	9b02      	ldr	r3, [sp, #8]
 8002790:	e007      	b.n	80027a2 <HAL_I2C_Master_Receive+0xaa>
 8002792:	f443 6380 	orr.w	r3, r3, #1024	; 0x400
 8002796:	600b      	str	r3, [r1, #0]
 8002798:	694b      	ldr	r3, [r1, #20]
 800279a:	9303      	str	r3, [sp, #12]
 800279c:	698b      	ldr	r3, [r1, #24]
 800279e:	9303      	str	r3, [sp, #12]
 80027a0:	9b03      	ldr	r3, [sp, #12]
 80027a2:	2e03      	cmp	r6, #3
 80027a4:	4620      	mov	r0, r4
 80027a6:	d840      	bhi.n	800282a <HAL_I2C_Master_Receive+0x132>
 80027a8:	2e01      	cmp	r6, #1
 80027aa:	d10b      	bne.n	80027c4 <HAL_I2C_Master_Receive+0xcc>
 80027ac:	4935      	ldr	r1, [pc, #212]	; (8002884 <HAL_I2C_Master_Receive+0x18c>)
 80027ae:	2200      	movs	r2, #0
 80027b0:	463b      	mov	r3, r7
 80027b2:	f7ff fd0a 	bl	80021ca <_ZL26I2C_WaitOnFlagUntilTimeoutP17I2C_HandleTypeDefj10FlagStatusj>
 80027b6:	b108      	cbz	r0, 80027bc <HAL_I2C_Master_Receive+0xc4>
 80027b8:	2003      	movs	r0, #3
 80027ba:	e060      	b.n	800287e <HAL_I2C_Master_Receive+0x186>
 80027bc:	6823      	ldr	r3, [r4, #0]
 80027be:	691b      	ldr	r3, [r3, #16]
 80027c0:	702b      	strb	r3, [r5, #0]
 80027c2:	e04a      	b.n	800285a <HAL_I2C_Master_Receive+0x162>
 80027c4:	2e02      	cmp	r6, #2
 80027c6:	4930      	ldr	r1, [pc, #192]	; (8002888 <HAL_I2C_Master_Receive+0x190>)
 80027c8:	f04f 0200 	mov.w	r2, #0
 80027cc:	463b      	mov	r3, r7
 80027ce:	d10e      	bne.n	80027ee <HAL_I2C_Master_Receive+0xf6>
 80027d0:	f7ff fcfb 	bl	80021ca <_ZL26I2C_WaitOnFlagUntilTimeoutP17I2C_HandleTypeDefj10FlagStatusj>
 80027d4:	2800      	cmp	r0, #0
 80027d6:	d1ef      	bne.n	80027b8 <HAL_I2C_Master_Receive+0xc0>
 80027d8:	6823      	ldr	r3, [r4, #0]
 80027da:	681a      	ldr	r2, [r3, #0]
 80027dc:	f442 7200 	orr.w	r2, r2, #512	; 0x200
 80027e0:	601a      	str	r2, [r3, #0]
 80027e2:	691b      	ldr	r3, [r3, #16]
 80027e4:	702b      	strb	r3, [r5, #0]
 80027e6:	6823      	ldr	r3, [r4, #0]
 80027e8:	691b      	ldr	r3, [r3, #16]
 80027ea:	706b      	strb	r3, [r5, #1]
 80027ec:	e035      	b.n	800285a <HAL_I2C_Master_Receive+0x162>
 80027ee:	f7ff fcec 	bl	80021ca <_ZL26I2C_WaitOnFlagUntilTimeoutP17I2C_HandleTypeDefj10FlagStatusj>
 80027f2:	4602      	mov	r2, r0
 80027f4:	2800      	cmp	r0, #0
 80027f6:	d1df      	bne.n	80027b8 <HAL_I2C_Master_Receive+0xc0>
 80027f8:	6823      	ldr	r3, [r4, #0]
 80027fa:	6819      	ldr	r1, [r3, #0]
 80027fc:	f421 6180 	bic.w	r1, r1, #1024	; 0x400
 8002800:	6019      	str	r1, [r3, #0]
 8002802:	691b      	ldr	r3, [r3, #16]
 8002804:	4920      	ldr	r1, [pc, #128]	; (8002888 <HAL_I2C_Master_Receive+0x190>)
 8002806:	702b      	strb	r3, [r5, #0]
 8002808:	4620      	mov	r0, r4
 800280a:	463b      	mov	r3, r7
 800280c:	f7ff fcdd 	bl	80021ca <_ZL26I2C_WaitOnFlagUntilTimeoutP17I2C_HandleTypeDefj10FlagStatusj>
 8002810:	2800      	cmp	r0, #0
 8002812:	d1d1      	bne.n	80027b8 <HAL_I2C_Master_Receive+0xc0>
 8002814:	6823      	ldr	r3, [r4, #0]
 8002816:	681a      	ldr	r2, [r3, #0]
 8002818:	f442 7200 	orr.w	r2, r2, #512	; 0x200
 800281c:	601a      	str	r2, [r3, #0]
 800281e:	691b      	ldr	r3, [r3, #16]
 8002820:	706b      	strb	r3, [r5, #1]
 8002822:	6823      	ldr	r3, [r4, #0]
 8002824:	691b      	ldr	r3, [r3, #16]
 8002826:	70ab      	strb	r3, [r5, #2]
 8002828:	e017      	b.n	800285a <HAL_I2C_Master_Receive+0x162>
 800282a:	4916      	ldr	r1, [pc, #88]	; (8002884 <HAL_I2C_Master_Receive+0x18c>)
 800282c:	2200      	movs	r2, #0
 800282e:	463b      	mov	r3, r7
 8002830:	f7ff fccb 	bl	80021ca <_ZL26I2C_WaitOnFlagUntilTimeoutP17I2C_HandleTypeDefj10FlagStatusj>
 8002834:	2800      	cmp	r0, #0
 8002836:	d1bf      	bne.n	80027b8 <HAL_I2C_Master_Receive+0xc0>
 8002838:	6823      	ldr	r3, [r4, #0]
 800283a:	691b      	ldr	r3, [r3, #16]
 800283c:	702b      	strb	r3, [r5, #0]
 800283e:	6823      	ldr	r3, [r4, #0]
 8002840:	695a      	ldr	r2, [r3, #20]
 8002842:	0752      	lsls	r2, r2, #29
 8002844:	d404      	bmi.n	8002850 <HAL_I2C_Master_Receive+0x158>
 8002846:	1c6a      	adds	r2, r5, #1
 8002848:	3e01      	subs	r6, #1
 800284a:	b2b6      	uxth	r6, r6
 800284c:	4615      	mov	r5, r2
 800284e:	e7a8      	b.n	80027a2 <HAL_I2C_Master_Receive+0xaa>
 8002850:	691b      	ldr	r3, [r3, #16]
 8002852:	1caa      	adds	r2, r5, #2
 8002854:	706b      	strb	r3, [r5, #1]
 8002856:	3e02      	subs	r6, #2
 8002858:	e7f7      	b.n	800284a <HAL_I2C_Master_Receive+0x152>
 800285a:	6823      	ldr	r3, [r4, #0]
 800285c:	490b      	ldr	r1, [pc, #44]	; (800288c <HAL_I2C_Master_Receive+0x194>)
 800285e:	681a      	ldr	r2, [r3, #0]
 8002860:	f422 6200 	bic.w	r2, r2, #2048	; 0x800
 8002864:	601a      	str	r2, [r3, #0]
 8002866:	4620      	mov	r0, r4
 8002868:	2201      	movs	r2, #1
 800286a:	463b      	mov	r3, r7
 800286c:	f7ff fcad 	bl	80021ca <_ZL26I2C_WaitOnFlagUntilTimeoutP17I2C_HandleTypeDefj10FlagStatusj>
 8002870:	2800      	cmp	r0, #0
 8002872:	d1a1      	bne.n	80027b8 <HAL_I2C_Master_Receive+0xc0>
 8002874:	2301      	movs	r3, #1
 8002876:	f884 3035 	strb.w	r3, [r4, #53]	; 0x35
 800287a:	f884 0034 	strb.w	r0, [r4, #52]	; 0x34
 800287e:	b005      	add	sp, #20
 8002880:	e8bd 83f0 	ldmia.w	sp!, {r4, r5, r6, r7, r8, r9, pc}
 8002884:	00010040 	.word	0x00010040
 8002888:	00010004 	.word	0x00010004
 800288c:	00100002 	.word	0x00100002

08002890 <HAL_I2C_Slave_Transmit>:
 8002890:	e92d 41f3 	stmdb	sp!, {r0, r1, r4, r5, r6, r7, r8, lr}
 8002894:	460e      	mov	r6, r1
 8002896:	f890 1035 	ldrb.w	r1, [r0, #53]	; 0x35
 800289a:	b2c9      	uxtb	r1, r1
 800289c:	2901      	cmp	r1, #1
 800289e:	4604      	mov	r4, r0
 80028a0:	4615      	mov	r5, r2
 80028a2:	461f      	mov	r7, r3
 80028a4:	d10f      	bne.n	80028c6 <HAL_I2C_Slave_Transmit+0x36>
 80028a6:	b13e      	cbz	r6, 80028b8 <HAL_I2C_Slave_Transmit+0x28>
 80028a8:	b132      	cbz	r2, 80028b8 <HAL_I2C_Slave_Transmit+0x28>
 80028aa:	6802      	ldr	r2, [r0, #0]
 80028ac:	f8d2 c018 	ldr.w	ip, [r2, #24]
 80028b0:	f01c 0c02 	ands.w	ip, ip, #2
 80028b4:	d107      	bne.n	80028c6 <HAL_I2C_Slave_Transmit+0x36>
 80028b6:	e001      	b.n	80028bc <HAL_I2C_Slave_Transmit+0x2c>
 80028b8:	4608      	mov	r0, r1
 80028ba:	e06f      	b.n	800299c <HAL_I2C_Slave_Transmit+0x10c>
 80028bc:	f890 8034 	ldrb.w	r8, [r0, #52]	; 0x34
 80028c0:	f1b8 0f01 	cmp.w	r8, #1
 80028c4:	d101      	bne.n	80028ca <HAL_I2C_Slave_Transmit+0x3a>
 80028c6:	2002      	movs	r0, #2
 80028c8:	e068      	b.n	800299c <HAL_I2C_Slave_Transmit+0x10c>
 80028ca:	f884 1034 	strb.w	r1, [r4, #52]	; 0x34
 80028ce:	2112      	movs	r1, #18
 80028d0:	f884 1035 	strb.w	r1, [r4, #53]	; 0x35
 80028d4:	f8c4 c038 	str.w	ip, [r4, #56]	; 0x38
 80028d8:	6811      	ldr	r1, [r2, #0]
 80028da:	f441 6180 	orr.w	r1, r1, #1024	; 0x400
 80028de:	6011      	str	r1, [r2, #0]
 80028e0:	4662      	mov	r2, ip
 80028e2:	4930      	ldr	r1, [pc, #192]	; (80029a4 <HAL_I2C_Slave_Transmit+0x114>)
 80028e4:	f7ff fc71 	bl	80021ca <_ZL26I2C_WaitOnFlagUntilTimeoutP17I2C_HandleTypeDefj10FlagStatusj>
 80028e8:	4602      	mov	r2, r0
 80028ea:	b108      	cbz	r0, 80028f0 <HAL_I2C_Slave_Transmit+0x60>
 80028ec:	2003      	movs	r0, #3
 80028ee:	e055      	b.n	800299c <HAL_I2C_Slave_Transmit+0x10c>
 80028f0:	6823      	ldr	r3, [r4, #0]
 80028f2:	6959      	ldr	r1, [r3, #20]
 80028f4:	9100      	str	r1, [sp, #0]
 80028f6:	699b      	ldr	r3, [r3, #24]
 80028f8:	9300      	str	r3, [sp, #0]
 80028fa:	9b00      	ldr	r3, [sp, #0]
 80028fc:	6923      	ldr	r3, [r4, #16]
 80028fe:	f5b3 4f40 	cmp.w	r3, #49152	; 0xc000
 8002902:	d120      	bne.n	8002946 <HAL_I2C_Slave_Transmit+0xb6>
 8002904:	4620      	mov	r0, r4
 8002906:	4927      	ldr	r1, [pc, #156]	; (80029a4 <HAL_I2C_Slave_Transmit+0x114>)
 8002908:	463b      	mov	r3, r7
 800290a:	f7ff fc5e 	bl	80021ca <_ZL26I2C_WaitOnFlagUntilTimeoutP17I2C_HandleTypeDefj10FlagStatusj>
 800290e:	2800      	cmp	r0, #0
 8002910:	d1ec      	bne.n	80028ec <HAL_I2C_Slave_Transmit+0x5c>
 8002912:	6823      	ldr	r3, [r4, #0]
 8002914:	695a      	ldr	r2, [r3, #20]
 8002916:	9201      	str	r2, [sp, #4]
 8002918:	699b      	ldr	r3, [r3, #24]
 800291a:	9301      	str	r3, [sp, #4]
 800291c:	9b01      	ldr	r3, [sp, #4]
 800291e:	e012      	b.n	8002946 <HAL_I2C_Slave_Transmit+0xb6>
 8002920:	4921      	ldr	r1, [pc, #132]	; (80029a8 <HAL_I2C_Slave_Transmit+0x118>)
 8002922:	2200      	movs	r2, #0
 8002924:	463b      	mov	r3, r7
 8002926:	f7ff fc50 	bl	80021ca <_ZL26I2C_WaitOnFlagUntilTimeoutP17I2C_HandleTypeDefj10FlagStatusj>
 800292a:	2800      	cmp	r0, #0
 800292c:	d1de      	bne.n	80028ec <HAL_I2C_Slave_Transmit+0x5c>
 800292e:	4632      	mov	r2, r6
 8002930:	6823      	ldr	r3, [r4, #0]
 8002932:	f812 1b01 	ldrb.w	r1, [r2], #1
 8002936:	6119      	str	r1, [r3, #16]
 8002938:	6958      	ldr	r0, [r3, #20]
 800293a:	1e69      	subs	r1, r5, #1
 800293c:	0740      	lsls	r0, r0, #29
 800293e:	b289      	uxth	r1, r1
 8002940:	d405      	bmi.n	800294e <HAL_I2C_Slave_Transmit+0xbe>
 8002942:	460d      	mov	r5, r1
 8002944:	4616      	mov	r6, r2
 8002946:	4620      	mov	r0, r4
 8002948:	2d00      	cmp	r5, #0
 800294a:	d1e9      	bne.n	8002920 <HAL_I2C_Slave_Transmit+0x90>
 800294c:	e002      	b.n	8002954 <HAL_I2C_Slave_Transmit+0xc4>
 800294e:	2900      	cmp	r1, #0
 8002950:	d0f7      	beq.n	8002942 <HAL_I2C_Slave_Transmit+0xb2>
 8002952:	e01d      	b.n	8002990 <HAL_I2C_Slave_Transmit+0x100>
 8002954:	f44f 3182 	mov.w	r1, #66560	; 0x10400
 8002958:	462a      	mov	r2, r5
 800295a:	463b      	mov	r3, r7
 800295c:	f7ff fc35 	bl	80021ca <_ZL26I2C_WaitOnFlagUntilTimeoutP17I2C_HandleTypeDefj10FlagStatusj>
 8002960:	2800      	cmp	r0, #0
 8002962:	d1c3      	bne.n	80028ec <HAL_I2C_Slave_Transmit+0x5c>
 8002964:	6823      	ldr	r3, [r4, #0]
 8002966:	4911      	ldr	r1, [pc, #68]	; (80029ac <HAL_I2C_Slave_Transmit+0x11c>)
 8002968:	f46f 6280 	mvn.w	r2, #1024	; 0x400
 800296c:	615a      	str	r2, [r3, #20]
 800296e:	681a      	ldr	r2, [r3, #0]
 8002970:	f422 6280 	bic.w	r2, r2, #1024	; 0x400
 8002974:	601a      	str	r2, [r3, #0]
 8002976:	4620      	mov	r0, r4
 8002978:	2201      	movs	r2, #1
 800297a:	463b      	mov	r3, r7
 800297c:	f7ff fc25 	bl	80021ca <_ZL26I2C_WaitOnFlagUntilTimeoutP17I2C_HandleTypeDefj10FlagStatusj>
 8002980:	2800      	cmp	r0, #0
 8002982:	d1b3      	bne.n	80028ec <HAL_I2C_Slave_Transmit+0x5c>
 8002984:	2301      	movs	r3, #1
 8002986:	f884 3035 	strb.w	r3, [r4, #53]	; 0x35
 800298a:	f884 5034 	strb.w	r5, [r4, #52]	; 0x34
 800298e:	e005      	b.n	800299c <HAL_I2C_Slave_Transmit+0x10c>
 8002990:	7872      	ldrb	r2, [r6, #1]
 8002992:	3d02      	subs	r5, #2
 8002994:	611a      	str	r2, [r3, #16]
 8002996:	b2ad      	uxth	r5, r5
 8002998:	3602      	adds	r6, #2
 800299a:	e7d4      	b.n	8002946 <HAL_I2C_Slave_Transmit+0xb6>
 800299c:	b002      	add	sp, #8
 800299e:	e8bd 81f0 	ldmia.w	sp!, {r4, r5, r6, r7, r8, pc}
 80029a2:	bf00      	nop
 80029a4:	00010002 	.word	0x00010002
 80029a8:	00010080 	.word	0x00010080
 80029ac:	00100002 	.word	0x00100002

080029b0 <HAL_I2C_Slave_Receive>:
 80029b0:	e92d 41f3 	stmdb	sp!, {r0, r1, r4, r5, r6, r7, r8, lr}
 80029b4:	460e      	mov	r6, r1
 80029b6:	f890 1035 	ldrb.w	r1, [r0, #53]	; 0x35
 80029ba:	b2c9      	uxtb	r1, r1
 80029bc:	2901      	cmp	r1, #1
 80029be:	4604      	mov	r4, r0
 80029c0:	4615      	mov	r5, r2
 80029c2:	461f      	mov	r7, r3
 80029c4:	d10f      	bne.n	80029e6 <HAL_I2C_Slave_Receive+0x36>
 80029c6:	b13e      	cbz	r6, 80029d8 <HAL_I2C_Slave_Receive+0x28>
 80029c8:	b132      	cbz	r2, 80029d8 <HAL_I2C_Slave_Receive+0x28>
 80029ca:	6802      	ldr	r2, [r0, #0]
 80029cc:	f8d2 c018 	ldr.w	ip, [r2, #24]
 80029d0:	f01c 0c02 	ands.w	ip, ip, #2
 80029d4:	d107      	bne.n	80029e6 <HAL_I2C_Slave_Receive+0x36>
 80029d6:	e001      	b.n	80029dc <HAL_I2C_Slave_Receive+0x2c>
 80029d8:	4608      	mov	r0, r1
 80029da:	e05d      	b.n	8002a98 <HAL_I2C_Slave_Receive+0xe8>
 80029dc:	f890 8034 	ldrb.w	r8, [r0, #52]	; 0x34
 80029e0:	f1b8 0f01 	cmp.w	r8, #1
 80029e4:	d101      	bne.n	80029ea <HAL_I2C_Slave_Receive+0x3a>
 80029e6:	2002      	movs	r0, #2
 80029e8:	e056      	b.n	8002a98 <HAL_I2C_Slave_Receive+0xe8>
 80029ea:	f884 1034 	strb.w	r1, [r4, #52]	; 0x34
 80029ee:	2122      	movs	r1, #34	; 0x22
 80029f0:	f884 1035 	strb.w	r1, [r4, #53]	; 0x35
 80029f4:	f8c4 c038 	str.w	ip, [r4, #56]	; 0x38
 80029f8:	6811      	ldr	r1, [r2, #0]
 80029fa:	f441 6180 	orr.w	r1, r1, #1024	; 0x400
 80029fe:	6011      	str	r1, [r2, #0]
 8002a00:	4927      	ldr	r1, [pc, #156]	; (8002aa0 <HAL_I2C_Slave_Receive+0xf0>)
 8002a02:	4662      	mov	r2, ip
 8002a04:	f7ff fbe1 	bl	80021ca <_ZL26I2C_WaitOnFlagUntilTimeoutP17I2C_HandleTypeDefj10FlagStatusj>
 8002a08:	b108      	cbz	r0, 8002a0e <HAL_I2C_Slave_Receive+0x5e>
 8002a0a:	2003      	movs	r0, #3
 8002a0c:	e044      	b.n	8002a98 <HAL_I2C_Slave_Receive+0xe8>
 8002a0e:	6823      	ldr	r3, [r4, #0]
 8002a10:	695a      	ldr	r2, [r3, #20]
 8002a12:	9200      	str	r2, [sp, #0]
 8002a14:	699b      	ldr	r3, [r3, #24]
 8002a16:	9300      	str	r3, [sp, #0]
 8002a18:	9b00      	ldr	r3, [sp, #0]
 8002a1a:	4620      	mov	r0, r4
 8002a1c:	b1ad      	cbz	r5, 8002a4a <HAL_I2C_Slave_Receive+0x9a>
 8002a1e:	4921      	ldr	r1, [pc, #132]	; (8002aa4 <HAL_I2C_Slave_Receive+0xf4>)
 8002a20:	2200      	movs	r2, #0
 8002a22:	463b      	mov	r3, r7
 8002a24:	f7ff fbd1 	bl	80021ca <_ZL26I2C_WaitOnFlagUntilTimeoutP17I2C_HandleTypeDefj10FlagStatusj>
 8002a28:	2800      	cmp	r0, #0
 8002a2a:	d1ee      	bne.n	8002a0a <HAL_I2C_Slave_Receive+0x5a>
 8002a2c:	6822      	ldr	r2, [r4, #0]
 8002a2e:	4633      	mov	r3, r6
 8002a30:	6912      	ldr	r2, [r2, #16]
 8002a32:	f803 2b01 	strb.w	r2, [r3], #1
 8002a36:	6822      	ldr	r2, [r4, #0]
 8002a38:	6950      	ldr	r0, [r2, #20]
 8002a3a:	1e69      	subs	r1, r5, #1
 8002a3c:	0740      	lsls	r0, r0, #29
 8002a3e:	b289      	uxth	r1, r1
 8002a40:	d500      	bpl.n	8002a44 <HAL_I2C_Slave_Receive+0x94>
 8002a42:	bb19      	cbnz	r1, 8002a8c <HAL_I2C_Slave_Receive+0xdc>
 8002a44:	460d      	mov	r5, r1
 8002a46:	461e      	mov	r6, r3
 8002a48:	e7e7      	b.n	8002a1a <HAL_I2C_Slave_Receive+0x6a>
 8002a4a:	4917      	ldr	r1, [pc, #92]	; (8002aa8 <HAL_I2C_Slave_Receive+0xf8>)
 8002a4c:	462a      	mov	r2, r5
 8002a4e:	463b      	mov	r3, r7
 8002a50:	f7ff fbbb 	bl	80021ca <_ZL26I2C_WaitOnFlagUntilTimeoutP17I2C_HandleTypeDefj10FlagStatusj>
 8002a54:	2800      	cmp	r0, #0
 8002a56:	d1d8      	bne.n	8002a0a <HAL_I2C_Slave_Receive+0x5a>
 8002a58:	6822      	ldr	r2, [r4, #0]
 8002a5a:	4914      	ldr	r1, [pc, #80]	; (8002aac <HAL_I2C_Slave_Receive+0xfc>)
 8002a5c:	6953      	ldr	r3, [r2, #20]
 8002a5e:	9301      	str	r3, [sp, #4]
 8002a60:	6813      	ldr	r3, [r2, #0]
 8002a62:	f043 0301 	orr.w	r3, r3, #1
 8002a66:	6013      	str	r3, [r2, #0]
 8002a68:	9b01      	ldr	r3, [sp, #4]
 8002a6a:	6813      	ldr	r3, [r2, #0]
 8002a6c:	f423 6380 	bic.w	r3, r3, #1024	; 0x400
 8002a70:	6013      	str	r3, [r2, #0]
 8002a72:	4620      	mov	r0, r4
 8002a74:	2201      	movs	r2, #1
 8002a76:	463b      	mov	r3, r7
 8002a78:	f7ff fba7 	bl	80021ca <_ZL26I2C_WaitOnFlagUntilTimeoutP17I2C_HandleTypeDefj10FlagStatusj>
 8002a7c:	2800      	cmp	r0, #0
 8002a7e:	d1c4      	bne.n	8002a0a <HAL_I2C_Slave_Receive+0x5a>
 8002a80:	2301      	movs	r3, #1
 8002a82:	f884 3035 	strb.w	r3, [r4, #53]	; 0x35
 8002a86:	f884 5034 	strb.w	r5, [r4, #52]	; 0x34
 8002a8a:	e005      	b.n	8002a98 <HAL_I2C_Slave_Receive+0xe8>
 8002a8c:	6913      	ldr	r3, [r2, #16]
 8002a8e:	3d02      	subs	r5, #2
 8002a90:	7073      	strb	r3, [r6, #1]
 8002a92:	b2ad      	uxth	r5, r5
 8002a94:	3602      	adds	r6, #2
 8002a96:	e7c0      	b.n	8002a1a <HAL_I2C_Slave_Receive+0x6a>
 8002a98:	b002      	add	sp, #8
 8002a9a:	e8bd 81f0 	ldmia.w	sp!, {r4, r5, r6, r7, r8, pc}
 8002a9e:	bf00      	nop
 8002aa0:	00010002 	.word	0x00010002
 8002aa4:	00010040 	.word	0x00010040
 8002aa8:	00010010 	.word	0x00010010
 8002aac:	00100002 	.word	0x00100002

08002ab0 <HAL_I2C_Master_Transmit_IT>:
 8002ab0:	b5f7      	push	{r0, r1, r2, r4, r5, r6, r7, lr}
 8002ab2:	f890 5035 	ldrb.w	r5, [r0, #53]	; 0x35
 8002ab6:	b2ed      	uxtb	r5, r5
 8002ab8:	2d01      	cmp	r5, #1
 8002aba:	4604      	mov	r4, r0
 8002abc:	d10d      	bne.n	8002ada <HAL_I2C_Master_Transmit_IT+0x2a>
 8002abe:	b132      	cbz	r2, 8002ace <HAL_I2C_Master_Transmit_IT+0x1e>
 8002ac0:	b12b      	cbz	r3, 8002ace <HAL_I2C_Master_Transmit_IT+0x1e>
 8002ac2:	6806      	ldr	r6, [r0, #0]
 8002ac4:	69b6      	ldr	r6, [r6, #24]
 8002ac6:	f016 0602 	ands.w	r6, r6, #2
 8002aca:	d106      	bne.n	8002ada <HAL_I2C_Master_Transmit_IT+0x2a>
 8002acc:	e001      	b.n	8002ad2 <HAL_I2C_Master_Transmit_IT+0x22>
 8002ace:	4628      	mov	r0, r5
 8002ad0:	e025      	b.n	8002b1e <HAL_I2C_Master_Transmit_IT+0x6e>
 8002ad2:	f890 7034 	ldrb.w	r7, [r0, #52]	; 0x34
 8002ad6:	2f01      	cmp	r7, #1
 8002ad8:	d101      	bne.n	8002ade <HAL_I2C_Master_Transmit_IT+0x2e>
 8002ada:	2002      	movs	r0, #2
 8002adc:	e01f      	b.n	8002b1e <HAL_I2C_Master_Transmit_IT+0x6e>
 8002ade:	2712      	movs	r7, #18
 8002ae0:	f884 7035 	strb.w	r7, [r4, #53]	; 0x35
 8002ae4:	6262      	str	r2, [r4, #36]	; 0x24
 8002ae6:	63a6      	str	r6, [r4, #56]	; 0x38
 8002ae8:	f884 5034 	strb.w	r5, [r4, #52]	; 0x34
 8002aec:	8523      	strh	r3, [r4, #40]	; 0x28
 8002aee:	8563      	strh	r3, [r4, #42]	; 0x2a
 8002af0:	2223      	movs	r2, #35	; 0x23
 8002af2:	f7ff fbb4 	bl	800225e <_ZL22I2C_MasterRequestWriteP17I2C_HandleTypeDeftj>
 8002af6:	b130      	cbz	r0, 8002b06 <HAL_I2C_Master_Transmit_IT+0x56>
 8002af8:	6ba3      	ldr	r3, [r4, #56]	; 0x38
 8002afa:	f884 6034 	strb.w	r6, [r4, #52]	; 0x34
 8002afe:	2b04      	cmp	r3, #4
 8002b00:	d0e5      	beq.n	8002ace <HAL_I2C_Master_Transmit_IT+0x1e>
 8002b02:	2003      	movs	r0, #3
 8002b04:	e00b      	b.n	8002b1e <HAL_I2C_Master_Transmit_IT+0x6e>
 8002b06:	6823      	ldr	r3, [r4, #0]
 8002b08:	695a      	ldr	r2, [r3, #20]
 8002b0a:	9201      	str	r2, [sp, #4]
 8002b0c:	699a      	ldr	r2, [r3, #24]
 8002b0e:	f884 0034 	strb.w	r0, [r4, #52]	; 0x34
 8002b12:	9201      	str	r2, [sp, #4]
 8002b14:	9a01      	ldr	r2, [sp, #4]
 8002b16:	685a      	ldr	r2, [r3, #4]
 8002b18:	f442 62e0 	orr.w	r2, r2, #1792	; 0x700
 8002b1c:	605a      	str	r2, [r3, #4]
 8002b1e:	b003      	add	sp, #12
 8002b20:	bdf0      	pop	{r4, r5, r6, r7, pc}

08002b22 <HAL_I2C_Master_Receive_IT>:
 8002b22:	b5f0      	push	{r4, r5, r6, r7, lr}
 8002b24:	f890 5035 	ldrb.w	r5, [r0, #53]	; 0x35
 8002b28:	b2ed      	uxtb	r5, r5
 8002b2a:	2d01      	cmp	r5, #1
 8002b2c:	b085      	sub	sp, #20
 8002b2e:	4604      	mov	r4, r0
 8002b30:	d10d      	bne.n	8002b4e <HAL_I2C_Master_Receive_IT+0x2c>
 8002b32:	b132      	cbz	r2, 8002b42 <HAL_I2C_Master_Receive_IT+0x20>
 8002b34:	b12b      	cbz	r3, 8002b42 <HAL_I2C_Master_Receive_IT+0x20>
 8002b36:	6806      	ldr	r6, [r0, #0]
 8002b38:	69b6      	ldr	r6, [r6, #24]
 8002b3a:	f016 0602 	ands.w	r6, r6, #2
 8002b3e:	d106      	bne.n	8002b4e <HAL_I2C_Master_Receive_IT+0x2c>
 8002b40:	e001      	b.n	8002b46 <HAL_I2C_Master_Receive_IT+0x24>
 8002b42:	4628      	mov	r0, r5
 8002b44:	e04d      	b.n	8002be2 <HAL_I2C_Master_Receive_IT+0xc0>
 8002b46:	f890 7034 	ldrb.w	r7, [r0, #52]	; 0x34
 8002b4a:	2f01      	cmp	r7, #1
 8002b4c:	d101      	bne.n	8002b52 <HAL_I2C_Master_Receive_IT+0x30>
 8002b4e:	2002      	movs	r0, #2
 8002b50:	e047      	b.n	8002be2 <HAL_I2C_Master_Receive_IT+0xc0>
 8002b52:	2722      	movs	r7, #34	; 0x22
 8002b54:	f884 7035 	strb.w	r7, [r4, #53]	; 0x35
 8002b58:	6262      	str	r2, [r4, #36]	; 0x24
 8002b5a:	63a6      	str	r6, [r4, #56]	; 0x38
 8002b5c:	f884 5034 	strb.w	r5, [r4, #52]	; 0x34
 8002b60:	8523      	strh	r3, [r4, #40]	; 0x28
 8002b62:	8563      	strh	r3, [r4, #42]	; 0x2a
 8002b64:	2223      	movs	r2, #35	; 0x23
 8002b66:	f7ff fbb5 	bl	80022d4 <_ZL21I2C_MasterRequestReadP17I2C_HandleTypeDeftj>
 8002b6a:	b130      	cbz	r0, 8002b7a <HAL_I2C_Master_Receive_IT+0x58>
 8002b6c:	6ba3      	ldr	r3, [r4, #56]	; 0x38
 8002b6e:	f884 6034 	strb.w	r6, [r4, #52]	; 0x34
 8002b72:	2b04      	cmp	r3, #4
 8002b74:	d0e5      	beq.n	8002b42 <HAL_I2C_Master_Receive_IT+0x20>
 8002b76:	2003      	movs	r0, #3
 8002b78:	e033      	b.n	8002be2 <HAL_I2C_Master_Receive_IT+0xc0>
 8002b7a:	8d63      	ldrh	r3, [r4, #42]	; 0x2a
 8002b7c:	b29b      	uxth	r3, r3
 8002b7e:	2b01      	cmp	r3, #1
 8002b80:	6823      	ldr	r3, [r4, #0]
 8002b82:	d10d      	bne.n	8002ba0 <HAL_I2C_Master_Receive_IT+0x7e>
 8002b84:	681a      	ldr	r2, [r3, #0]
 8002b86:	f422 6280 	bic.w	r2, r2, #1024	; 0x400
 8002b8a:	601a      	str	r2, [r3, #0]
 8002b8c:	695a      	ldr	r2, [r3, #20]
 8002b8e:	9201      	str	r2, [sp, #4]
 8002b90:	699a      	ldr	r2, [r3, #24]
 8002b92:	9201      	str	r2, [sp, #4]
 8002b94:	9a01      	ldr	r2, [sp, #4]
 8002b96:	681a      	ldr	r2, [r3, #0]
 8002b98:	f442 7200 	orr.w	r2, r2, #512	; 0x200
 8002b9c:	601a      	str	r2, [r3, #0]
 8002b9e:	e019      	b.n	8002bd4 <HAL_I2C_Master_Receive_IT+0xb2>
 8002ba0:	8d62      	ldrh	r2, [r4, #42]	; 0x2a
 8002ba2:	b292      	uxth	r2, r2
 8002ba4:	2a02      	cmp	r2, #2
 8002ba6:	681a      	ldr	r2, [r3, #0]
 8002ba8:	d10c      	bne.n	8002bc4 <HAL_I2C_Master_Receive_IT+0xa2>
 8002baa:	f422 6280 	bic.w	r2, r2, #1024	; 0x400
 8002bae:	601a      	str	r2, [r3, #0]
 8002bb0:	681a      	ldr	r2, [r3, #0]
 8002bb2:	f442 6200 	orr.w	r2, r2, #2048	; 0x800
 8002bb6:	601a      	str	r2, [r3, #0]
 8002bb8:	695a      	ldr	r2, [r3, #20]
 8002bba:	9202      	str	r2, [sp, #8]
 8002bbc:	699a      	ldr	r2, [r3, #24]
 8002bbe:	9202      	str	r2, [sp, #8]
 8002bc0:	9a02      	ldr	r2, [sp, #8]
 8002bc2:	e007      	b.n	8002bd4 <HAL_I2C_Master_Receive_IT+0xb2>
 8002bc4:	f442 6280 	orr.w	r2, r2, #1024	; 0x400
 8002bc8:	601a      	str	r2, [r3, #0]
 8002bca:	695a      	ldr	r2, [r3, #20]
 8002bcc:	9203      	str	r2, [sp, #12]
 8002bce:	699a      	ldr	r2, [r3, #24]
 8002bd0:	9203      	str	r2, [sp, #12]
 8002bd2:	9a03      	ldr	r2, [sp, #12]
 8002bd4:	2200      	movs	r2, #0
 8002bd6:	f884 2034 	strb.w	r2, [r4, #52]	; 0x34
 8002bda:	685a      	ldr	r2, [r3, #4]
 8002bdc:	f442 62e0 	orr.w	r2, r2, #1792	; 0x700
 8002be0:	605a      	str	r2, [r3, #4]
 8002be2:	b005      	add	sp, #20
 8002be4:	bdf0      	pop	{r4, r5, r6, r7, pc}

08002be6 <HAL_I2C_Slave_Transmit_IT>:
 8002be6:	f890 3035 	ldrb.w	r3, [r0, #53]	; 0x35
 8002bea:	b2db      	uxtb	r3, r3
 8002bec:	2b01      	cmp	r3, #1
 8002bee:	b530      	push	{r4, r5, lr}
 8002bf0:	d109      	bne.n	8002c06 <HAL_I2C_Slave_Transmit_IT+0x20>
 8002bf2:	b131      	cbz	r1, 8002c02 <HAL_I2C_Slave_Transmit_IT+0x1c>
 8002bf4:	b12a      	cbz	r2, 8002c02 <HAL_I2C_Slave_Transmit_IT+0x1c>
 8002bf6:	6803      	ldr	r3, [r0, #0]
 8002bf8:	699c      	ldr	r4, [r3, #24]
 8002bfa:	f014 0402 	ands.w	r4, r4, #2
 8002bfe:	d102      	bne.n	8002c06 <HAL_I2C_Slave_Transmit_IT+0x20>
 8002c00:	e003      	b.n	8002c0a <HAL_I2C_Slave_Transmit_IT+0x24>
 8002c02:	4618      	mov	r0, r3
 8002c04:	bd30      	pop	{r4, r5, pc}
 8002c06:	2002      	movs	r0, #2
 8002c08:	bd30      	pop	{r4, r5, pc}
 8002c0a:	f890 5034 	ldrb.w	r5, [r0, #52]	; 0x34
 8002c0e:	2d01      	cmp	r5, #1
 8002c10:	d0f9      	beq.n	8002c06 <HAL_I2C_Slave_Transmit_IT+0x20>
 8002c12:	2512      	movs	r5, #18
 8002c14:	f880 5035 	strb.w	r5, [r0, #53]	; 0x35
 8002c18:	6384      	str	r4, [r0, #56]	; 0x38
 8002c1a:	8542      	strh	r2, [r0, #42]	; 0x2a
 8002c1c:	8502      	strh	r2, [r0, #40]	; 0x28
 8002c1e:	681a      	ldr	r2, [r3, #0]
 8002c20:	6241      	str	r1, [r0, #36]	; 0x24
 8002c22:	f442 6280 	orr.w	r2, r2, #1024	; 0x400
 8002c26:	601a      	str	r2, [r3, #0]
 8002c28:	685a      	ldr	r2, [r3, #4]
 8002c2a:	f880 4034 	strb.w	r4, [r0, #52]	; 0x34
 8002c2e:	f442 62e0 	orr.w	r2, r2, #1792	; 0x700
 8002c32:	605a      	str	r2, [r3, #4]
 8002c34:	4620      	mov	r0, r4
 8002c36:	bd30      	pop	{r4, r5, pc}

08002c38 <HAL_I2C_Slave_Receive_IT>:
 8002c38:	f890 3035 	ldrb.w	r3, [r0, #53]	; 0x35
 8002c3c:	b2db      	uxtb	r3, r3
 8002c3e:	2b01      	cmp	r3, #1
 8002c40:	b530      	push	{r4, r5, lr}
 8002c42:	d109      	bne.n	8002c58 <HAL_I2C_Slave_Receive_IT+0x20>
 8002c44:	b131      	cbz	r1, 8002c54 <HAL_I2C_Slave_Receive_IT+0x1c>
 8002c46:	b12a      	cbz	r2, 8002c54 <HAL_I2C_Slave_Receive_IT+0x1c>
 8002c48:	6803      	ldr	r3, [r0, #0]
 8002c4a:	699c      	ldr	r4, [r3, #24]
 8002c4c:	f014 0402 	ands.w	r4, r4, #2
 8002c50:	d102      	bne.n	8002c58 <HAL_I2C_Slave_Receive_IT+0x20>
 8002c52:	e003      	b.n	8002c5c <HAL_I2C_Slave_Receive_IT+0x24>
 8002c54:	4618      	mov	r0, r3
 8002c56:	bd30      	pop	{r4, r5, pc}
 8002c58:	2002      	movs	r0, #2
 8002c5a:	bd30      	pop	{r4, r5, pc}
 8002c5c:	f890 5034 	ldrb.w	r5, [r0, #52]	; 0x34
 8002c60:	2d01      	cmp	r5, #1
 8002c62:	d0f9      	beq.n	8002c58 <HAL_I2C_Slave_Receive_IT+0x20>
 8002c64:	2522      	movs	r5, #34	; 0x22
 8002c66:	f880 5035 	strb.w	r5, [r0, #53]	; 0x35
 8002c6a:	6384      	str	r4, [r0, #56]	; 0x38
 8002c6c:	8542      	strh	r2, [r0, #42]	; 0x2a
 8002c6e:	8502      	strh	r2, [r0, #40]	; 0x28
 8002c70:	681a      	ldr	r2, [r3, #0]
 8002c72:	6241      	str	r1, [r0, #36]	; 0x24
 8002c74:	f442 6280 	orr.w	r2, r2, #1024	; 0x400
 8002c78:	601a      	str	r2, [r3, #0]
 8002c7a:	685a      	ldr	r2, [r3, #4]
 8002c7c:	f880 4034 	strb.w	r4, [r0, #52]	; 0x34
 8002c80:	f442 62e0 	orr.w	r2, r2, #1792	; 0x700
 8002c84:	605a      	str	r2, [r3, #4]
 8002c86:	4620      	mov	r0, r4
 8002c88:	bd30      	pop	{r4, r5, pc}

08002c8a <HAL_I2C_Master_Transmit_DMA>:
 8002c8a:	e92d 41f3 	stmdb	sp!, {r0, r1, r4, r5, r6, r7, r8, lr}
 8002c8e:	4604      	mov	r4, r0
 8002c90:	4688      	mov	r8, r1
 8002c92:	f894 5035 	ldrb.w	r5, [r4, #53]	; 0x35
 8002c96:	b2ed      	uxtb	r5, r5
 8002c98:	2d01      	cmp	r5, #1
 8002c9a:	4618      	mov	r0, r3
 8002c9c:	d10d      	bne.n	8002cba <HAL_I2C_Master_Transmit_DMA+0x30>
 8002c9e:	b132      	cbz	r2, 8002cae <HAL_I2C_Master_Transmit_DMA+0x24>
 8002ca0:	b12b      	cbz	r3, 8002cae <HAL_I2C_Master_Transmit_DMA+0x24>
 8002ca2:	6827      	ldr	r7, [r4, #0]
 8002ca4:	69be      	ldr	r6, [r7, #24]
 8002ca6:	f016 0602 	ands.w	r6, r6, #2
 8002caa:	d106      	bne.n	8002cba <HAL_I2C_Master_Transmit_DMA+0x30>
 8002cac:	e001      	b.n	8002cb2 <HAL_I2C_Master_Transmit_DMA+0x28>
 8002cae:	4628      	mov	r0, r5
 8002cb0:	e031      	b.n	8002d16 <HAL_I2C_Master_Transmit_DMA+0x8c>
 8002cb2:	f894 1034 	ldrb.w	r1, [r4, #52]	; 0x34
 8002cb6:	2901      	cmp	r1, #1
 8002cb8:	d101      	bne.n	8002cbe <HAL_I2C_Master_Transmit_DMA+0x34>
 8002cba:	2002      	movs	r0, #2
 8002cbc:	e02b      	b.n	8002d16 <HAL_I2C_Master_Transmit_DMA+0x8c>
 8002cbe:	2112      	movs	r1, #18
 8002cc0:	f884 1035 	strb.w	r1, [r4, #53]	; 0x35
 8002cc4:	8520      	strh	r0, [r4, #40]	; 0x28
 8002cc6:	63a6      	str	r6, [r4, #56]	; 0x38
 8002cc8:	4914      	ldr	r1, [pc, #80]	; (8002d1c <HAL_I2C_Master_Transmit_DMA+0x92>)
 8002cca:	8560      	strh	r0, [r4, #42]	; 0x2a
 8002ccc:	6ae0      	ldr	r0, [r4, #44]	; 0x2c
 8002cce:	6262      	str	r2, [r4, #36]	; 0x24
 8002cd0:	f884 5034 	strb.w	r5, [r4, #52]	; 0x34
 8002cd4:	63c1      	str	r1, [r0, #60]	; 0x3c
 8002cd6:	4912      	ldr	r1, [pc, #72]	; (8002d20 <HAL_I2C_Master_Transmit_DMA+0x96>)
 8002cd8:	6481      	str	r1, [r0, #72]	; 0x48
 8002cda:	4611      	mov	r1, r2
 8002cdc:	f107 0210 	add.w	r2, r7, #16
 8002ce0:	f7fd fecf 	bl	8000a82 <HAL_DMA_Start_IT>
 8002ce4:	4620      	mov	r0, r4
 8002ce6:	4641      	mov	r1, r8
 8002ce8:	2223      	movs	r2, #35	; 0x23
 8002cea:	f7ff fab8 	bl	800225e <_ZL22I2C_MasterRequestWriteP17I2C_HandleTypeDeftj>
 8002cee:	b130      	cbz	r0, 8002cfe <HAL_I2C_Master_Transmit_DMA+0x74>
 8002cf0:	6ba3      	ldr	r3, [r4, #56]	; 0x38
 8002cf2:	f884 6034 	strb.w	r6, [r4, #52]	; 0x34
 8002cf6:	2b04      	cmp	r3, #4
 8002cf8:	d0d9      	beq.n	8002cae <HAL_I2C_Master_Transmit_DMA+0x24>
 8002cfa:	2003      	movs	r0, #3
 8002cfc:	e00b      	b.n	8002d16 <HAL_I2C_Master_Transmit_DMA+0x8c>
 8002cfe:	6823      	ldr	r3, [r4, #0]
 8002d00:	685a      	ldr	r2, [r3, #4]
 8002d02:	f442 6200 	orr.w	r2, r2, #2048	; 0x800
 8002d06:	605a      	str	r2, [r3, #4]
 8002d08:	695a      	ldr	r2, [r3, #20]
 8002d0a:	9201      	str	r2, [sp, #4]
 8002d0c:	699b      	ldr	r3, [r3, #24]
 8002d0e:	f884 0034 	strb.w	r0, [r4, #52]	; 0x34
 8002d12:	9301      	str	r3, [sp, #4]
 8002d14:	9b01      	ldr	r3, [sp, #4]
 8002d16:	b002      	add	sp, #8
 8002d18:	e8bd 81f0 	ldmia.w	sp!, {r4, r5, r6, r7, r8, pc}
 8002d1c:	0800381d 	.word	0x0800381d
 8002d20:	080037f7 	.word	0x080037f7

08002d24 <HAL_I2C_Master_Receive_DMA>:
 8002d24:	e92d 41f3 	stmdb	sp!, {r0, r1, r4, r5, r6, r7, r8, lr}
 8002d28:	4604      	mov	r4, r0
 8002d2a:	4688      	mov	r8, r1
 8002d2c:	f894 5035 	ldrb.w	r5, [r4, #53]	; 0x35
 8002d30:	b2ed      	uxtb	r5, r5
 8002d32:	2d01      	cmp	r5, #1
 8002d34:	4610      	mov	r0, r2
 8002d36:	461e      	mov	r6, r3
 8002d38:	d10f      	bne.n	8002d5a <HAL_I2C_Master_Receive_DMA+0x36>
 8002d3a:	b142      	cbz	r2, 8002d4e <HAL_I2C_Master_Receive_DMA+0x2a>
 8002d3c:	b13b      	cbz	r3, 8002d4e <HAL_I2C_Master_Receive_DMA+0x2a>
 8002d3e:	f8d4 c000 	ldr.w	ip, [r4]
 8002d42:	f8dc 7018 	ldr.w	r7, [ip, #24]
 8002d46:	f017 0702 	ands.w	r7, r7, #2
 8002d4a:	d106      	bne.n	8002d5a <HAL_I2C_Master_Receive_DMA+0x36>
 8002d4c:	e001      	b.n	8002d52 <HAL_I2C_Master_Receive_DMA+0x2e>
 8002d4e:	4628      	mov	r0, r5
 8002d50:	e03c      	b.n	8002dcc <HAL_I2C_Master_Receive_DMA+0xa8>
 8002d52:	f894 1034 	ldrb.w	r1, [r4, #52]	; 0x34
 8002d56:	2901      	cmp	r1, #1
 8002d58:	d101      	bne.n	8002d5e <HAL_I2C_Master_Receive_DMA+0x3a>
 8002d5a:	2002      	movs	r0, #2
 8002d5c:	e036      	b.n	8002dcc <HAL_I2C_Master_Receive_DMA+0xa8>
 8002d5e:	2122      	movs	r1, #34	; 0x22
 8002d60:	f884 1035 	strb.w	r1, [r4, #53]	; 0x35
 8002d64:	6260      	str	r0, [r4, #36]	; 0x24
 8002d66:	491b      	ldr	r1, [pc, #108]	; (8002dd4 <HAL_I2C_Master_Receive_DMA+0xb0>)
 8002d68:	6b20      	ldr	r0, [r4, #48]	; 0x30
 8002d6a:	63a7      	str	r7, [r4, #56]	; 0x38
 8002d6c:	f884 5034 	strb.w	r5, [r4, #52]	; 0x34
 8002d70:	8526      	strh	r6, [r4, #40]	; 0x28
 8002d72:	8566      	strh	r6, [r4, #42]	; 0x2a
 8002d74:	63c1      	str	r1, [r0, #60]	; 0x3c
 8002d76:	4918      	ldr	r1, [pc, #96]	; (8002dd8 <HAL_I2C_Master_Receive_DMA+0xb4>)
 8002d78:	6481      	str	r1, [r0, #72]	; 0x48
 8002d7a:	f10c 0110 	add.w	r1, ip, #16
 8002d7e:	f7fd fe80 	bl	8000a82 <HAL_DMA_Start_IT>
 8002d82:	4620      	mov	r0, r4
 8002d84:	4641      	mov	r1, r8
 8002d86:	2223      	movs	r2, #35	; 0x23
 8002d88:	f7ff faa4 	bl	80022d4 <_ZL21I2C_MasterRequestReadP17I2C_HandleTypeDeftj>
 8002d8c:	b130      	cbz	r0, 8002d9c <HAL_I2C_Master_Receive_DMA+0x78>
 8002d8e:	6ba3      	ldr	r3, [r4, #56]	; 0x38
 8002d90:	f884 7034 	strb.w	r7, [r4, #52]	; 0x34
 8002d94:	2b04      	cmp	r3, #4
 8002d96:	d0da      	beq.n	8002d4e <HAL_I2C_Master_Receive_DMA+0x2a>
 8002d98:	2003      	movs	r0, #3
 8002d9a:	e017      	b.n	8002dcc <HAL_I2C_Master_Receive_DMA+0xa8>
 8002d9c:	2e01      	cmp	r6, #1
 8002d9e:	6823      	ldr	r3, [r4, #0]
 8002da0:	d104      	bne.n	8002dac <HAL_I2C_Master_Receive_DMA+0x88>
 8002da2:	681a      	ldr	r2, [r3, #0]
 8002da4:	f422 6280 	bic.w	r2, r2, #1024	; 0x400
 8002da8:	601a      	str	r2, [r3, #0]
 8002daa:	e003      	b.n	8002db4 <HAL_I2C_Master_Receive_DMA+0x90>
 8002dac:	685a      	ldr	r2, [r3, #4]
 8002dae:	f442 5280 	orr.w	r2, r2, #4096	; 0x1000
 8002db2:	605a      	str	r2, [r3, #4]
 8002db4:	685a      	ldr	r2, [r3, #4]
 8002db6:	f442 6200 	orr.w	r2, r2, #2048	; 0x800
 8002dba:	605a      	str	r2, [r3, #4]
 8002dbc:	695a      	ldr	r2, [r3, #20]
 8002dbe:	9201      	str	r2, [sp, #4]
 8002dc0:	699b      	ldr	r3, [r3, #24]
 8002dc2:	9301      	str	r3, [sp, #4]
 8002dc4:	9b01      	ldr	r3, [sp, #4]
 8002dc6:	2300      	movs	r3, #0
 8002dc8:	f884 3034 	strb.w	r3, [r4, #52]	; 0x34
 8002dcc:	b002      	add	sp, #8
 8002dce:	e8bd 81f0 	ldmia.w	sp!, {r4, r5, r6, r7, r8, pc}
 8002dd2:	bf00      	nop
 8002dd4:	08003885 	.word	0x08003885
 8002dd8:	080037f7 	.word	0x080037f7

08002ddc <HAL_I2C_Slave_Transmit_DMA>:
 8002ddc:	b5f0      	push	{r4, r5, r6, r7, lr}
 8002dde:	4604      	mov	r4, r0
 8002de0:	b085      	sub	sp, #20
 8002de2:	f894 5035 	ldrb.w	r5, [r4, #53]	; 0x35
 8002de6:	b2ed      	uxtb	r5, r5
 8002de8:	2d01      	cmp	r5, #1
 8002dea:	4608      	mov	r0, r1
 8002dec:	4613      	mov	r3, r2
 8002dee:	d10c      	bne.n	8002e0a <HAL_I2C_Slave_Transmit_DMA+0x2e>
 8002df0:	2900      	cmp	r1, #0
 8002df2:	d052      	beq.n	8002e9a <HAL_I2C_Slave_Transmit_DMA+0xbe>
 8002df4:	2a00      	cmp	r2, #0
 8002df6:	d050      	beq.n	8002e9a <HAL_I2C_Slave_Transmit_DMA+0xbe>
 8002df8:	6822      	ldr	r2, [r4, #0]
 8002dfa:	6996      	ldr	r6, [r2, #24]
 8002dfc:	f016 0602 	ands.w	r6, r6, #2
 8002e00:	d103      	bne.n	8002e0a <HAL_I2C_Slave_Transmit_DMA+0x2e>
 8002e02:	f894 7034 	ldrb.w	r7, [r4, #52]	; 0x34
 8002e06:	2f01      	cmp	r7, #1
 8002e08:	d101      	bne.n	8002e0e <HAL_I2C_Slave_Transmit_DMA+0x32>
 8002e0a:	2502      	movs	r5, #2
 8002e0c:	e045      	b.n	8002e9a <HAL_I2C_Slave_Transmit_DMA+0xbe>
 8002e0e:	f884 5034 	strb.w	r5, [r4, #52]	; 0x34
 8002e12:	2512      	movs	r5, #18
 8002e14:	f884 5035 	strb.w	r5, [r4, #53]	; 0x35
 8002e18:	6260      	str	r0, [r4, #36]	; 0x24
 8002e1a:	4d21      	ldr	r5, [pc, #132]	; (8002ea0 <HAL_I2C_Slave_Transmit_DMA+0xc4>)
 8002e1c:	6ae0      	ldr	r0, [r4, #44]	; 0x2c
 8002e1e:	63a6      	str	r6, [r4, #56]	; 0x38
 8002e20:	8523      	strh	r3, [r4, #40]	; 0x28
 8002e22:	8563      	strh	r3, [r4, #42]	; 0x2a
 8002e24:	63c5      	str	r5, [r0, #60]	; 0x3c
 8002e26:	4d1f      	ldr	r5, [pc, #124]	; (8002ea4 <HAL_I2C_Slave_Transmit_DMA+0xc8>)
 8002e28:	3210      	adds	r2, #16
 8002e2a:	6485      	str	r5, [r0, #72]	; 0x48
 8002e2c:	f7fd fe29 	bl	8000a82 <HAL_DMA_Start_IT>
 8002e30:	6823      	ldr	r3, [r4, #0]
 8002e32:	491d      	ldr	r1, [pc, #116]	; (8002ea8 <HAL_I2C_Slave_Transmit_DMA+0xcc>)
 8002e34:	685a      	ldr	r2, [r3, #4]
 8002e36:	f442 6200 	orr.w	r2, r2, #2048	; 0x800
 8002e3a:	605a      	str	r2, [r3, #4]
 8002e3c:	681a      	ldr	r2, [r3, #0]
 8002e3e:	f442 6280 	orr.w	r2, r2, #1024	; 0x400
 8002e42:	601a      	str	r2, [r3, #0]
 8002e44:	4620      	mov	r0, r4
 8002e46:	4632      	mov	r2, r6
 8002e48:	f242 7310 	movw	r3, #10000	; 0x2710
 8002e4c:	f7ff f9bd 	bl	80021ca <_ZL26I2C_WaitOnFlagUntilTimeoutP17I2C_HandleTypeDefj10FlagStatusj>
 8002e50:	4605      	mov	r5, r0
 8002e52:	b108      	cbz	r0, 8002e58 <HAL_I2C_Slave_Transmit_DMA+0x7c>
 8002e54:	2503      	movs	r5, #3
 8002e56:	e020      	b.n	8002e9a <HAL_I2C_Slave_Transmit_DMA+0xbe>
 8002e58:	6923      	ldr	r3, [r4, #16]
 8002e5a:	f5b3 4f80 	cmp.w	r3, #16384	; 0x4000
 8002e5e:	6823      	ldr	r3, [r4, #0]
 8002e60:	695a      	ldr	r2, [r3, #20]
 8002e62:	d104      	bne.n	8002e6e <HAL_I2C_Slave_Transmit_DMA+0x92>
 8002e64:	9201      	str	r2, [sp, #4]
 8002e66:	699b      	ldr	r3, [r3, #24]
 8002e68:	9301      	str	r3, [sp, #4]
 8002e6a:	9b01      	ldr	r3, [sp, #4]
 8002e6c:	e012      	b.n	8002e94 <HAL_I2C_Slave_Transmit_DMA+0xb8>
 8002e6e:	9202      	str	r2, [sp, #8]
 8002e70:	699b      	ldr	r3, [r3, #24]
 8002e72:	490d      	ldr	r1, [pc, #52]	; (8002ea8 <HAL_I2C_Slave_Transmit_DMA+0xcc>)
 8002e74:	9302      	str	r3, [sp, #8]
 8002e76:	9b02      	ldr	r3, [sp, #8]
 8002e78:	4620      	mov	r0, r4
 8002e7a:	462a      	mov	r2, r5
 8002e7c:	f242 7310 	movw	r3, #10000	; 0x2710
 8002e80:	f7ff f9a3 	bl	80021ca <_ZL26I2C_WaitOnFlagUntilTimeoutP17I2C_HandleTypeDefj10FlagStatusj>
 8002e84:	2800      	cmp	r0, #0
 8002e86:	d1e5      	bne.n	8002e54 <HAL_I2C_Slave_Transmit_DMA+0x78>
 8002e88:	6823      	ldr	r3, [r4, #0]
 8002e8a:	695a      	ldr	r2, [r3, #20]
 8002e8c:	9203      	str	r2, [sp, #12]
 8002e8e:	699b      	ldr	r3, [r3, #24]
 8002e90:	9303      	str	r3, [sp, #12]
 8002e92:	9b03      	ldr	r3, [sp, #12]
 8002e94:	2300      	movs	r3, #0
 8002e96:	f884 3034 	strb.w	r3, [r4, #52]	; 0x34
 8002e9a:	4628      	mov	r0, r5
 8002e9c:	b005      	add	sp, #20
 8002e9e:	bdf0      	pop	{r4, r5, r6, r7, pc}
 8002ea0:	080038e1 	.word	0x080038e1
 8002ea4:	080037f7 	.word	0x080037f7
 8002ea8:	00010002 	.word	0x00010002

08002eac <HAL_I2C_Slave_Receive_DMA>:
 8002eac:	b573      	push	{r0, r1, r4, r5, r6, lr}
 8002eae:	4604      	mov	r4, r0
 8002eb0:	f890 0035 	ldrb.w	r0, [r0, #53]	; 0x35
 8002eb4:	b2c0      	uxtb	r0, r0
 8002eb6:	2801      	cmp	r0, #1
 8002eb8:	460d      	mov	r5, r1
 8002eba:	4613      	mov	r3, r2
 8002ebc:	d10c      	bne.n	8002ed8 <HAL_I2C_Slave_Receive_DMA+0x2c>
 8002ebe:	2900      	cmp	r1, #0
 8002ec0:	d039      	beq.n	8002f36 <HAL_I2C_Slave_Receive_DMA+0x8a>
 8002ec2:	2a00      	cmp	r2, #0
 8002ec4:	d037      	beq.n	8002f36 <HAL_I2C_Slave_Receive_DMA+0x8a>
 8002ec6:	6821      	ldr	r1, [r4, #0]
 8002ec8:	698e      	ldr	r6, [r1, #24]
 8002eca:	f016 0602 	ands.w	r6, r6, #2
 8002ece:	d103      	bne.n	8002ed8 <HAL_I2C_Slave_Receive_DMA+0x2c>
 8002ed0:	f894 2034 	ldrb.w	r2, [r4, #52]	; 0x34
 8002ed4:	2a01      	cmp	r2, #1
 8002ed6:	d101      	bne.n	8002edc <HAL_I2C_Slave_Receive_DMA+0x30>
 8002ed8:	2002      	movs	r0, #2
 8002eda:	e02c      	b.n	8002f36 <HAL_I2C_Slave_Receive_DMA+0x8a>
 8002edc:	2222      	movs	r2, #34	; 0x22
 8002ede:	f884 2035 	strb.w	r2, [r4, #53]	; 0x35
 8002ee2:	f884 0034 	strb.w	r0, [r4, #52]	; 0x34
 8002ee6:	4a15      	ldr	r2, [pc, #84]	; (8002f3c <HAL_I2C_Slave_Receive_DMA+0x90>)
 8002ee8:	6b20      	ldr	r0, [r4, #48]	; 0x30
 8002eea:	63a6      	str	r6, [r4, #56]	; 0x38
 8002eec:	8523      	strh	r3, [r4, #40]	; 0x28
 8002eee:	8563      	strh	r3, [r4, #42]	; 0x2a
 8002ef0:	6265      	str	r5, [r4, #36]	; 0x24
 8002ef2:	63c2      	str	r2, [r0, #60]	; 0x3c
 8002ef4:	4a12      	ldr	r2, [pc, #72]	; (8002f40 <HAL_I2C_Slave_Receive_DMA+0x94>)
 8002ef6:	3110      	adds	r1, #16
 8002ef8:	6482      	str	r2, [r0, #72]	; 0x48
 8002efa:	462a      	mov	r2, r5
 8002efc:	f7fd fdc1 	bl	8000a82 <HAL_DMA_Start_IT>
 8002f00:	6823      	ldr	r3, [r4, #0]
 8002f02:	4910      	ldr	r1, [pc, #64]	; (8002f44 <HAL_I2C_Slave_Receive_DMA+0x98>)
 8002f04:	685a      	ldr	r2, [r3, #4]
 8002f06:	f442 6200 	orr.w	r2, r2, #2048	; 0x800
 8002f0a:	605a      	str	r2, [r3, #4]
 8002f0c:	681a      	ldr	r2, [r3, #0]
 8002f0e:	f442 6280 	orr.w	r2, r2, #1024	; 0x400
 8002f12:	601a      	str	r2, [r3, #0]
 8002f14:	4620      	mov	r0, r4
 8002f16:	4632      	mov	r2, r6
 8002f18:	f242 7310 	movw	r3, #10000	; 0x2710
 8002f1c:	f7ff f955 	bl	80021ca <_ZL26I2C_WaitOnFlagUntilTimeoutP17I2C_HandleTypeDefj10FlagStatusj>
 8002f20:	b940      	cbnz	r0, 8002f34 <HAL_I2C_Slave_Receive_DMA+0x88>
 8002f22:	6823      	ldr	r3, [r4, #0]
 8002f24:	695a      	ldr	r2, [r3, #20]
 8002f26:	9201      	str	r2, [sp, #4]
 8002f28:	699b      	ldr	r3, [r3, #24]
 8002f2a:	f884 0034 	strb.w	r0, [r4, #52]	; 0x34
 8002f2e:	9301      	str	r3, [sp, #4]
 8002f30:	9b01      	ldr	r3, [sp, #4]
 8002f32:	e000      	b.n	8002f36 <HAL_I2C_Slave_Receive_DMA+0x8a>
 8002f34:	2003      	movs	r0, #3
 8002f36:	b002      	add	sp, #8
 8002f38:	bd70      	pop	{r4, r5, r6, pc}
 8002f3a:	bf00      	nop
 8002f3c:	0800394d 	.word	0x0800394d
 8002f40:	080037f7 	.word	0x080037f7
 8002f44:	00010002 	.word	0x00010002

08002f48 <HAL_I2C_Mem_Write>:
 8002f48:	e92d 43f7 	stmdb	sp!, {r0, r1, r2, r4, r5, r6, r7, r8, r9, lr}
 8002f4c:	f890 8035 	ldrb.w	r8, [r0, #53]	; 0x35
 8002f50:	9e0a      	ldr	r6, [sp, #40]	; 0x28
 8002f52:	f8bd 502c 	ldrh.w	r5, [sp, #44]	; 0x2c
 8002f56:	f8dd 9030 	ldr.w	r9, [sp, #48]	; 0x30
 8002f5a:	fa5f f888 	uxtb.w	r8, r8
 8002f5e:	f1b8 0f01 	cmp.w	r8, #1
 8002f62:	4604      	mov	r4, r0
 8002f64:	d11e      	bne.n	8002fa4 <HAL_I2C_Mem_Write+0x5c>
 8002f66:	b1de      	cbz	r6, 8002fa0 <HAL_I2C_Mem_Write+0x58>
 8002f68:	b1d5      	cbz	r5, 8002fa0 <HAL_I2C_Mem_Write+0x58>
 8002f6a:	6807      	ldr	r7, [r0, #0]
 8002f6c:	69bf      	ldr	r7, [r7, #24]
 8002f6e:	f017 0702 	ands.w	r7, r7, #2
 8002f72:	d117      	bne.n	8002fa4 <HAL_I2C_Mem_Write+0x5c>
 8002f74:	f890 c034 	ldrb.w	ip, [r0, #52]	; 0x34
 8002f78:	f1bc 0f01 	cmp.w	ip, #1
 8002f7c:	d012      	beq.n	8002fa4 <HAL_I2C_Mem_Write+0x5c>
 8002f7e:	f04f 0e32 	mov.w	lr, #50	; 0x32
 8002f82:	f884 e035 	strb.w	lr, [r4, #53]	; 0x35
 8002f86:	f884 8034 	strb.w	r8, [r4, #52]	; 0x34
 8002f8a:	63a7      	str	r7, [r4, #56]	; 0x38
 8002f8c:	f8cd 9000 	str.w	r9, [sp]
 8002f90:	f7ff fa00 	bl	8002394 <_ZL22I2C_RequestMemoryWriteP17I2C_HandleTypeDeftttj>
 8002f94:	b1a0      	cbz	r0, 8002fc0 <HAL_I2C_Mem_Write+0x78>
 8002f96:	6ba3      	ldr	r3, [r4, #56]	; 0x38
 8002f98:	f884 7034 	strb.w	r7, [r4, #52]	; 0x34
 8002f9c:	2b04      	cmp	r3, #4
 8002f9e:	d118      	bne.n	8002fd2 <HAL_I2C_Mem_Write+0x8a>
 8002fa0:	4640      	mov	r0, r8
 8002fa2:	e03a      	b.n	800301a <HAL_I2C_Mem_Write+0xd2>
 8002fa4:	2002      	movs	r0, #2
 8002fa6:	e038      	b.n	800301a <HAL_I2C_Mem_Write+0xd2>
 8002fa8:	4632      	mov	r2, r6
 8002faa:	6823      	ldr	r3, [r4, #0]
 8002fac:	f812 1b01 	ldrb.w	r1, [r2], #1
 8002fb0:	6119      	str	r1, [r3, #16]
 8002fb2:	6958      	ldr	r0, [r3, #20]
 8002fb4:	1e69      	subs	r1, r5, #1
 8002fb6:	0747      	lsls	r7, r0, #29
 8002fb8:	b289      	uxth	r1, r1
 8002fba:	d40c      	bmi.n	8002fd6 <HAL_I2C_Mem_Write+0x8e>
 8002fbc:	460d      	mov	r5, r1
 8002fbe:	4616      	mov	r6, r2
 8002fc0:	4620      	mov	r0, r4
 8002fc2:	4917      	ldr	r1, [pc, #92]	; (8003020 <HAL_I2C_Mem_Write+0xd8>)
 8002fc4:	b155      	cbz	r5, 8002fdc <HAL_I2C_Mem_Write+0x94>
 8002fc6:	2200      	movs	r2, #0
 8002fc8:	464b      	mov	r3, r9
 8002fca:	f7ff f8fe 	bl	80021ca <_ZL26I2C_WaitOnFlagUntilTimeoutP17I2C_HandleTypeDefj10FlagStatusj>
 8002fce:	2800      	cmp	r0, #0
 8002fd0:	d0ea      	beq.n	8002fa8 <HAL_I2C_Mem_Write+0x60>
 8002fd2:	2003      	movs	r0, #3
 8002fd4:	e021      	b.n	800301a <HAL_I2C_Mem_Write+0xd2>
 8002fd6:	2900      	cmp	r1, #0
 8002fd8:	d0f0      	beq.n	8002fbc <HAL_I2C_Mem_Write+0x74>
 8002fda:	e018      	b.n	800300e <HAL_I2C_Mem_Write+0xc6>
 8002fdc:	462a      	mov	r2, r5
 8002fde:	464b      	mov	r3, r9
 8002fe0:	f7ff f8f3 	bl	80021ca <_ZL26I2C_WaitOnFlagUntilTimeoutP17I2C_HandleTypeDefj10FlagStatusj>
 8002fe4:	2800      	cmp	r0, #0
 8002fe6:	d1f4      	bne.n	8002fd2 <HAL_I2C_Mem_Write+0x8a>
 8002fe8:	6823      	ldr	r3, [r4, #0]
 8002fea:	490e      	ldr	r1, [pc, #56]	; (8003024 <HAL_I2C_Mem_Write+0xdc>)
 8002fec:	681a      	ldr	r2, [r3, #0]
 8002fee:	f442 7200 	orr.w	r2, r2, #512	; 0x200
 8002ff2:	601a      	str	r2, [r3, #0]
 8002ff4:	4620      	mov	r0, r4
 8002ff6:	2201      	movs	r2, #1
 8002ff8:	464b      	mov	r3, r9
 8002ffa:	f7ff f8e6 	bl	80021ca <_ZL26I2C_WaitOnFlagUntilTimeoutP17I2C_HandleTypeDefj10FlagStatusj>
 8002ffe:	2800      	cmp	r0, #0
 8003000:	d1e7      	bne.n	8002fd2 <HAL_I2C_Mem_Write+0x8a>
 8003002:	2301      	movs	r3, #1
 8003004:	f884 3035 	strb.w	r3, [r4, #53]	; 0x35
 8003008:	f884 5034 	strb.w	r5, [r4, #52]	; 0x34
 800300c:	e005      	b.n	800301a <HAL_I2C_Mem_Write+0xd2>
 800300e:	7872      	ldrb	r2, [r6, #1]
 8003010:	3d02      	subs	r5, #2
 8003012:	611a      	str	r2, [r3, #16]
 8003014:	b2ad      	uxth	r5, r5
 8003016:	3602      	adds	r6, #2
 8003018:	e7d2      	b.n	8002fc0 <HAL_I2C_Mem_Write+0x78>
 800301a:	b003      	add	sp, #12
 800301c:	e8bd 83f0 	ldmia.w	sp!, {r4, r5, r6, r7, r8, r9, pc}
 8003020:	00010080 	.word	0x00010080
 8003024:	00100002 	.word	0x00100002

08003028 <HAL_I2C_Mem_Read>:
 8003028:	e92d 43f0 	stmdb	sp!, {r4, r5, r6, r7, r8, r9, lr}
 800302c:	f890 9035 	ldrb.w	r9, [r0, #53]	; 0x35
 8003030:	b087      	sub	sp, #28
 8003032:	fa5f f989 	uxtb.w	r9, r9
 8003036:	f1b9 0f01 	cmp.w	r9, #1
 800303a:	4604      	mov	r4, r0
 800303c:	9d0e      	ldr	r5, [sp, #56]	; 0x38
 800303e:	f8bd 603c 	ldrh.w	r6, [sp, #60]	; 0x3c
 8003042:	f8dd 8040 	ldr.w	r8, [sp, #64]	; 0x40
 8003046:	d11e      	bne.n	8003086 <HAL_I2C_Mem_Read+0x5e>
 8003048:	b1dd      	cbz	r5, 8003082 <HAL_I2C_Mem_Read+0x5a>
 800304a:	b1d6      	cbz	r6, 8003082 <HAL_I2C_Mem_Read+0x5a>
 800304c:	6807      	ldr	r7, [r0, #0]
 800304e:	69bf      	ldr	r7, [r7, #24]
 8003050:	f017 0702 	ands.w	r7, r7, #2
 8003054:	d117      	bne.n	8003086 <HAL_I2C_Mem_Read+0x5e>
 8003056:	f890 c034 	ldrb.w	ip, [r0, #52]	; 0x34
 800305a:	f1bc 0f01 	cmp.w	ip, #1
 800305e:	d012      	beq.n	8003086 <HAL_I2C_Mem_Read+0x5e>
 8003060:	f04f 0e42 	mov.w	lr, #66	; 0x42
 8003064:	f884 e035 	strb.w	lr, [r4, #53]	; 0x35
 8003068:	f884 9034 	strb.w	r9, [r4, #52]	; 0x34
 800306c:	63a7      	str	r7, [r4, #56]	; 0x38
 800306e:	f8cd 8000 	str.w	r8, [sp]
 8003072:	f7ff f9dd 	bl	8002430 <_ZL21I2C_RequestMemoryReadP17I2C_HandleTypeDeftttj>
 8003076:	b140      	cbz	r0, 800308a <HAL_I2C_Mem_Read+0x62>
 8003078:	6ba3      	ldr	r3, [r4, #56]	; 0x38
 800307a:	f884 7034 	strb.w	r7, [r4, #52]	; 0x34
 800307e:	2b04      	cmp	r3, #4
 8003080:	d134      	bne.n	80030ec <HAL_I2C_Mem_Read+0xc4>
 8003082:	4648      	mov	r0, r9
 8003084:	e095      	b.n	80031b2 <HAL_I2C_Mem_Read+0x18a>
 8003086:	2002      	movs	r0, #2
 8003088:	e093      	b.n	80031b2 <HAL_I2C_Mem_Read+0x18a>
 800308a:	2e01      	cmp	r6, #1
 800308c:	6822      	ldr	r2, [r4, #0]
 800308e:	d10d      	bne.n	80030ac <HAL_I2C_Mem_Read+0x84>
 8003090:	6813      	ldr	r3, [r2, #0]
 8003092:	f423 6380 	bic.w	r3, r3, #1024	; 0x400
 8003096:	6013      	str	r3, [r2, #0]
 8003098:	6953      	ldr	r3, [r2, #20]
 800309a:	9303      	str	r3, [sp, #12]
 800309c:	6993      	ldr	r3, [r2, #24]
 800309e:	9303      	str	r3, [sp, #12]
 80030a0:	9b03      	ldr	r3, [sp, #12]
 80030a2:	6813      	ldr	r3, [r2, #0]
 80030a4:	f443 7300 	orr.w	r3, r3, #512	; 0x200
 80030a8:	6013      	str	r3, [r2, #0]
 80030aa:	e014      	b.n	80030d6 <HAL_I2C_Mem_Read+0xae>
 80030ac:	2e02      	cmp	r6, #2
 80030ae:	d10d      	bne.n	80030cc <HAL_I2C_Mem_Read+0xa4>
 80030b0:	6813      	ldr	r3, [r2, #0]
 80030b2:	f423 6380 	bic.w	r3, r3, #1024	; 0x400
 80030b6:	6013      	str	r3, [r2, #0]
 80030b8:	6813      	ldr	r3, [r2, #0]
 80030ba:	f443 6300 	orr.w	r3, r3, #2048	; 0x800
 80030be:	6013      	str	r3, [r2, #0]
 80030c0:	6953      	ldr	r3, [r2, #20]
 80030c2:	9304      	str	r3, [sp, #16]
 80030c4:	6993      	ldr	r3, [r2, #24]
 80030c6:	9304      	str	r3, [sp, #16]
 80030c8:	9b04      	ldr	r3, [sp, #16]
 80030ca:	e004      	b.n	80030d6 <HAL_I2C_Mem_Read+0xae>
 80030cc:	6953      	ldr	r3, [r2, #20]
 80030ce:	9305      	str	r3, [sp, #20]
 80030d0:	6993      	ldr	r3, [r2, #24]
 80030d2:	9305      	str	r3, [sp, #20]
 80030d4:	9b05      	ldr	r3, [sp, #20]
 80030d6:	2e03      	cmp	r6, #3
 80030d8:	4620      	mov	r0, r4
 80030da:	d840      	bhi.n	800315e <HAL_I2C_Mem_Read+0x136>
 80030dc:	2e01      	cmp	r6, #1
 80030de:	d10b      	bne.n	80030f8 <HAL_I2C_Mem_Read+0xd0>
 80030e0:	4935      	ldr	r1, [pc, #212]	; (80031b8 <HAL_I2C_Mem_Read+0x190>)
 80030e2:	2200      	movs	r2, #0
 80030e4:	4643      	mov	r3, r8
 80030e6:	f7ff f870 	bl	80021ca <_ZL26I2C_WaitOnFlagUntilTimeoutP17I2C_HandleTypeDefj10FlagStatusj>
 80030ea:	b108      	cbz	r0, 80030f0 <HAL_I2C_Mem_Read+0xc8>
 80030ec:	2003      	movs	r0, #3
 80030ee:	e060      	b.n	80031b2 <HAL_I2C_Mem_Read+0x18a>
 80030f0:	6823      	ldr	r3, [r4, #0]
 80030f2:	691b      	ldr	r3, [r3, #16]
 80030f4:	702b      	strb	r3, [r5, #0]
 80030f6:	e04a      	b.n	800318e <HAL_I2C_Mem_Read+0x166>
 80030f8:	2e02      	cmp	r6, #2
 80030fa:	4930      	ldr	r1, [pc, #192]	; (80031bc <HAL_I2C_Mem_Read+0x194>)
 80030fc:	f04f 0200 	mov.w	r2, #0
 8003100:	4643      	mov	r3, r8
 8003102:	d10e      	bne.n	8003122 <HAL_I2C_Mem_Read+0xfa>
 8003104:	f7ff f861 	bl	80021ca <_ZL26I2C_WaitOnFlagUntilTimeoutP17I2C_HandleTypeDefj10FlagStatusj>
 8003108:	2800      	cmp	r0, #0
 800310a:	d1ef      	bne.n	80030ec <HAL_I2C_Mem_Read+0xc4>
 800310c:	6823      	ldr	r3, [r4, #0]
 800310e:	681a      	ldr	r2, [r3, #0]
 8003110:	f442 7200 	orr.w	r2, r2, #512	; 0x200
 8003114:	601a      	str	r2, [r3, #0]
 8003116:	691b      	ldr	r3, [r3, #16]
 8003118:	702b      	strb	r3, [r5, #0]
 800311a:	6823      	ldr	r3, [r4, #0]
 800311c:	691b      	ldr	r3, [r3, #16]
 800311e:	706b      	strb	r3, [r5, #1]
 8003120:	e035      	b.n	800318e <HAL_I2C_Mem_Read+0x166>
 8003122:	f7ff f852 	bl	80021ca <_ZL26I2C_WaitOnFlagUntilTimeoutP17I2C_HandleTypeDefj10FlagStatusj>
 8003126:	4602      	mov	r2, r0
 8003128:	2800      	cmp	r0, #0
 800312a:	d1df      	bne.n	80030ec <HAL_I2C_Mem_Read+0xc4>
 800312c:	6823      	ldr	r3, [r4, #0]
 800312e:	6819      	ldr	r1, [r3, #0]
 8003130:	f421 6180 	bic.w	r1, r1, #1024	; 0x400
 8003134:	6019      	str	r1, [r3, #0]
 8003136:	691b      	ldr	r3, [r3, #16]
 8003138:	4920      	ldr	r1, [pc, #128]	; (80031bc <HAL_I2C_Mem_Read+0x194>)
 800313a:	702b      	strb	r3, [r5, #0]
 800313c:	4620      	mov	r0, r4
 800313e:	4643      	mov	r3, r8
 8003140:	f7ff f843 	bl	80021ca <_ZL26I2C_WaitOnFlagUntilTimeoutP17I2C_HandleTypeDefj10FlagStatusj>
 8003144:	2800      	cmp	r0, #0
 8003146:	d1d1      	bne.n	80030ec <HAL_I2C_Mem_Read+0xc4>
 8003148:	6823      	ldr	r3, [r4, #0]
 800314a:	681a      	ldr	r2, [r3, #0]
 800314c:	f442 7200 	orr.w	r2, r2, #512	; 0x200
 8003150:	601a      	str	r2, [r3, #0]
 8003152:	691b      	ldr	r3, [r3, #16]
 8003154:	706b      	strb	r3, [r5, #1]
 8003156:	6823      	ldr	r3, [r4, #0]
 8003158:	691b      	ldr	r3, [r3, #16]
 800315a:	70ab      	strb	r3, [r5, #2]
 800315c:	e017      	b.n	800318e <HAL_I2C_Mem_Read+0x166>
 800315e:	4916      	ldr	r1, [pc, #88]	; (80031b8 <HAL_I2C_Mem_Read+0x190>)
 8003160:	2200      	movs	r2, #0
 8003162:	4643      	mov	r3, r8
 8003164:	f7ff f831 	bl	80021ca <_ZL26I2C_WaitOnFlagUntilTimeoutP17I2C_HandleTypeDefj10FlagStatusj>
 8003168:	2800      	cmp	r0, #0
 800316a:	d1bf      	bne.n	80030ec <HAL_I2C_Mem_Read+0xc4>
 800316c:	6823      	ldr	r3, [r4, #0]
 800316e:	691b      	ldr	r3, [r3, #16]
 8003170:	702b      	strb	r3, [r5, #0]
 8003172:	6823      	ldr	r3, [r4, #0]
 8003174:	695a      	ldr	r2, [r3, #20]
 8003176:	0752      	lsls	r2, r2, #29
 8003178:	d404      	bmi.n	8003184 <HAL_I2C_Mem_Read+0x15c>
 800317a:	1c6a      	adds	r2, r5, #1
 800317c:	3e01      	subs	r6, #1
 800317e:	b2b6      	uxth	r6, r6
 8003180:	4615      	mov	r5, r2
 8003182:	e7a8      	b.n	80030d6 <HAL_I2C_Mem_Read+0xae>
 8003184:	691b      	ldr	r3, [r3, #16]
 8003186:	1caa      	adds	r2, r5, #2
 8003188:	706b      	strb	r3, [r5, #1]
 800318a:	3e02      	subs	r6, #2
 800318c:	e7f7      	b.n	800317e <HAL_I2C_Mem_Read+0x156>
 800318e:	6823      	ldr	r3, [r4, #0]
 8003190:	490b      	ldr	r1, [pc, #44]	; (80031c0 <HAL_I2C_Mem_Read+0x198>)
 8003192:	681a      	ldr	r2, [r3, #0]
 8003194:	f422 6200 	bic.w	r2, r2, #2048	; 0x800
 8003198:	601a      	str	r2, [r3, #0]
 800319a:	4620      	mov	r0, r4
 800319c:	2201      	movs	r2, #1
 800319e:	4643      	mov	r3, r8
 80031a0:	f7ff f813 	bl	80021ca <_ZL26I2C_WaitOnFlagUntilTimeoutP17I2C_HandleTypeDefj10FlagStatusj>
 80031a4:	2800      	cmp	r0, #0
 80031a6:	d1a1      	bne.n	80030ec <HAL_I2C_Mem_Read+0xc4>
 80031a8:	2301      	movs	r3, #1
 80031aa:	f884 3035 	strb.w	r3, [r4, #53]	; 0x35
 80031ae:	f884 0034 	strb.w	r0, [r4, #52]	; 0x34
 80031b2:	b007      	add	sp, #28
 80031b4:	e8bd 83f0 	ldmia.w	sp!, {r4, r5, r6, r7, r8, r9, pc}
 80031b8:	00010040 	.word	0x00010040
 80031bc:	00010004 	.word	0x00010004
 80031c0:	00100002 	.word	0x00100002

080031c4 <HAL_I2C_Mem_Write_IT>:
 80031c4:	e92d 41f3 	stmdb	sp!, {r0, r1, r4, r5, r6, r7, r8, lr}
 80031c8:	f890 5035 	ldrb.w	r5, [r0, #53]	; 0x35
 80031cc:	f8dd c020 	ldr.w	ip, [sp, #32]
 80031d0:	f8bd 6024 	ldrh.w	r6, [sp, #36]	; 0x24
 80031d4:	b2ed      	uxtb	r5, r5
 80031d6:	2d01      	cmp	r5, #1
 80031d8:	4604      	mov	r4, r0
 80031da:	d110      	bne.n	80031fe <HAL_I2C_Mem_Write_IT+0x3a>
 80031dc:	f1bc 0f00 	cmp.w	ip, #0
 80031e0:	d006      	beq.n	80031f0 <HAL_I2C_Mem_Write_IT+0x2c>
 80031e2:	b12e      	cbz	r6, 80031f0 <HAL_I2C_Mem_Write_IT+0x2c>
 80031e4:	6807      	ldr	r7, [r0, #0]
 80031e6:	69bf      	ldr	r7, [r7, #24]
 80031e8:	f017 0702 	ands.w	r7, r7, #2
 80031ec:	d107      	bne.n	80031fe <HAL_I2C_Mem_Write_IT+0x3a>
 80031ee:	e001      	b.n	80031f4 <HAL_I2C_Mem_Write_IT+0x30>
 80031f0:	4628      	mov	r0, r5
 80031f2:	e024      	b.n	800323e <HAL_I2C_Mem_Write_IT+0x7a>
 80031f4:	f890 8034 	ldrb.w	r8, [r0, #52]	; 0x34
 80031f8:	f1b8 0f01 	cmp.w	r8, #1
 80031fc:	d101      	bne.n	8003202 <HAL_I2C_Mem_Write_IT+0x3e>
 80031fe:	2002      	movs	r0, #2
 8003200:	e01d      	b.n	800323e <HAL_I2C_Mem_Write_IT+0x7a>
 8003202:	f04f 0e32 	mov.w	lr, #50	; 0x32
 8003206:	f884 e035 	strb.w	lr, [r4, #53]	; 0x35
 800320a:	8526      	strh	r6, [r4, #40]	; 0x28
 800320c:	63a7      	str	r7, [r4, #56]	; 0x38
 800320e:	8566      	strh	r6, [r4, #42]	; 0x2a
 8003210:	2623      	movs	r6, #35	; 0x23
 8003212:	f884 5034 	strb.w	r5, [r4, #52]	; 0x34
 8003216:	f8c4 c024 	str.w	ip, [r4, #36]	; 0x24
 800321a:	9600      	str	r6, [sp, #0]
 800321c:	f7ff f8ba 	bl	8002394 <_ZL22I2C_RequestMemoryWriteP17I2C_HandleTypeDeftttj>
 8003220:	b130      	cbz	r0, 8003230 <HAL_I2C_Mem_Write_IT+0x6c>
 8003222:	6ba3      	ldr	r3, [r4, #56]	; 0x38
 8003224:	f884 7034 	strb.w	r7, [r4, #52]	; 0x34
 8003228:	2b04      	cmp	r3, #4
 800322a:	d0e1      	beq.n	80031f0 <HAL_I2C_Mem_Write_IT+0x2c>
 800322c:	2003      	movs	r0, #3
 800322e:	e006      	b.n	800323e <HAL_I2C_Mem_Write_IT+0x7a>
 8003230:	6823      	ldr	r3, [r4, #0]
 8003232:	f884 0034 	strb.w	r0, [r4, #52]	; 0x34
 8003236:	685a      	ldr	r2, [r3, #4]
 8003238:	f442 62e0 	orr.w	r2, r2, #1792	; 0x700
 800323c:	605a      	str	r2, [r3, #4]
 800323e:	b002      	add	sp, #8
 8003240:	e8bd 81f0 	ldmia.w	sp!, {r4, r5, r6, r7, r8, pc}

08003244 <HAL_I2C_Mem_Read_IT>:
 8003244:	e92d 41f0 	stmdb	sp!, {r4, r5, r6, r7, r8, lr}
 8003248:	f890 5035 	ldrb.w	r5, [r0, #53]	; 0x35
 800324c:	b086      	sub	sp, #24
 800324e:	b2ed      	uxtb	r5, r5
 8003250:	2d01      	cmp	r5, #1
 8003252:	4604      	mov	r4, r0
 8003254:	f8dd c030 	ldr.w	ip, [sp, #48]	; 0x30
 8003258:	f8bd 6034 	ldrh.w	r6, [sp, #52]	; 0x34
 800325c:	d110      	bne.n	8003280 <HAL_I2C_Mem_Read_IT+0x3c>
 800325e:	f1bc 0f00 	cmp.w	ip, #0
 8003262:	d006      	beq.n	8003272 <HAL_I2C_Mem_Read_IT+0x2e>
 8003264:	b12e      	cbz	r6, 8003272 <HAL_I2C_Mem_Read_IT+0x2e>
 8003266:	6807      	ldr	r7, [r0, #0]
 8003268:	69bf      	ldr	r7, [r7, #24]
 800326a:	f017 0702 	ands.w	r7, r7, #2
 800326e:	d107      	bne.n	8003280 <HAL_I2C_Mem_Read_IT+0x3c>
 8003270:	e001      	b.n	8003276 <HAL_I2C_Mem_Read_IT+0x32>
 8003272:	4628      	mov	r0, r5
 8003274:	e051      	b.n	800331a <HAL_I2C_Mem_Read_IT+0xd6>
 8003276:	f890 8034 	ldrb.w	r8, [r0, #52]	; 0x34
 800327a:	f1b8 0f01 	cmp.w	r8, #1
 800327e:	d101      	bne.n	8003284 <HAL_I2C_Mem_Read_IT+0x40>
 8003280:	2002      	movs	r0, #2
 8003282:	e04a      	b.n	800331a <HAL_I2C_Mem_Read_IT+0xd6>
 8003284:	f04f 0e42 	mov.w	lr, #66	; 0x42
 8003288:	f884 e035 	strb.w	lr, [r4, #53]	; 0x35
 800328c:	8526      	strh	r6, [r4, #40]	; 0x28
 800328e:	63a7      	str	r7, [r4, #56]	; 0x38
 8003290:	8566      	strh	r6, [r4, #42]	; 0x2a
 8003292:	2623      	movs	r6, #35	; 0x23
 8003294:	f884 5034 	strb.w	r5, [r4, #52]	; 0x34
 8003298:	f8c4 c024 	str.w	ip, [r4, #36]	; 0x24
 800329c:	9600      	str	r6, [sp, #0]
 800329e:	f7ff f8c7 	bl	8002430 <_ZL21I2C_RequestMemoryReadP17I2C_HandleTypeDeftttj>
 80032a2:	b130      	cbz	r0, 80032b2 <HAL_I2C_Mem_Read_IT+0x6e>
 80032a4:	6ba3      	ldr	r3, [r4, #56]	; 0x38
 80032a6:	f884 7034 	strb.w	r7, [r4, #52]	; 0x34
 80032aa:	2b04      	cmp	r3, #4
 80032ac:	d0e1      	beq.n	8003272 <HAL_I2C_Mem_Read_IT+0x2e>
 80032ae:	2003      	movs	r0, #3
 80032b0:	e033      	b.n	800331a <HAL_I2C_Mem_Read_IT+0xd6>
 80032b2:	8d63      	ldrh	r3, [r4, #42]	; 0x2a
 80032b4:	b29b      	uxth	r3, r3
 80032b6:	2b01      	cmp	r3, #1
 80032b8:	6823      	ldr	r3, [r4, #0]
 80032ba:	d10d      	bne.n	80032d8 <HAL_I2C_Mem_Read_IT+0x94>
 80032bc:	681a      	ldr	r2, [r3, #0]
 80032be:	f422 6280 	bic.w	r2, r2, #1024	; 0x400
 80032c2:	601a      	str	r2, [r3, #0]
 80032c4:	695a      	ldr	r2, [r3, #20]
 80032c6:	9203      	str	r2, [sp, #12]
 80032c8:	699a      	ldr	r2, [r3, #24]
 80032ca:	9203      	str	r2, [sp, #12]
 80032cc:	9a03      	ldr	r2, [sp, #12]
 80032ce:	681a      	ldr	r2, [r3, #0]
 80032d0:	f442 7200 	orr.w	r2, r2, #512	; 0x200
 80032d4:	601a      	str	r2, [r3, #0]
 80032d6:	e019      	b.n	800330c <HAL_I2C_Mem_Read_IT+0xc8>
 80032d8:	8d62      	ldrh	r2, [r4, #42]	; 0x2a
 80032da:	b292      	uxth	r2, r2
 80032dc:	2a02      	cmp	r2, #2
 80032de:	681a      	ldr	r2, [r3, #0]
 80032e0:	d10c      	bne.n	80032fc <HAL_I2C_Mem_Read_IT+0xb8>
 80032e2:	f422 6280 	bic.w	r2, r2, #1024	; 0x400
 80032e6:	601a      	str	r2, [r3, #0]
 80032e8:	681a      	ldr	r2, [r3, #0]
 80032ea:	f442 6200 	orr.w	r2, r2, #2048	; 0x800
 80032ee:	601a      	str	r2, [r3, #0]
 80032f0:	695a      	ldr	r2, [r3, #20]
 80032f2:	9204      	str	r2, [sp, #16]
 80032f4:	699a      	ldr	r2, [r3, #24]
 80032f6:	9204      	str	r2, [sp, #16]
 80032f8:	9a04      	ldr	r2, [sp, #16]
 80032fa:	e007      	b.n	800330c <HAL_I2C_Mem_Read_IT+0xc8>
 80032fc:	f442 6280 	orr.w	r2, r2, #1024	; 0x400
 8003300:	601a      	str	r2, [r3, #0]
 8003302:	695a      	ldr	r2, [r3, #20]
 8003304:	9205      	str	r2, [sp, #20]
 8003306:	699a      	ldr	r2, [r3, #24]
 8003308:	9205      	str	r2, [sp, #20]
 800330a:	9a05      	ldr	r2, [sp, #20]
 800330c:	2200      	movs	r2, #0
 800330e:	f884 2034 	strb.w	r2, [r4, #52]	; 0x34
 8003312:	685a      	ldr	r2, [r3, #4]
 8003314:	f442 62e0 	orr.w	r2, r2, #1792	; 0x700
 8003318:	605a      	str	r2, [r3, #4]
 800331a:	b006      	add	sp, #24
 800331c:	e8bd 81f0 	ldmia.w	sp!, {r4, r5, r6, r7, r8, pc}

08003320 <HAL_I2C_Mem_Write_DMA>:
 8003320:	e92d 47f3 	stmdb	sp!, {r0, r1, r4, r5, r6, r7, r8, r9, sl, lr}
 8003324:	f890 5035 	ldrb.w	r5, [r0, #53]	; 0x35
 8003328:	f8bd 602c 	ldrh.w	r6, [sp, #44]	; 0x2c
 800332c:	b2ed      	uxtb	r5, r5
 800332e:	2d01      	cmp	r5, #1
 8003330:	4688      	mov	r8, r1
 8003332:	4604      	mov	r4, r0
 8003334:	4691      	mov	r9, r2
 8003336:	469a      	mov	sl, r3
 8003338:	990a      	ldr	r1, [sp, #40]	; 0x28
 800333a:	d10d      	bne.n	8003358 <HAL_I2C_Mem_Write_DMA+0x38>
 800333c:	b131      	cbz	r1, 800334c <HAL_I2C_Mem_Write_DMA+0x2c>
 800333e:	b12e      	cbz	r6, 800334c <HAL_I2C_Mem_Write_DMA+0x2c>
 8003340:	6802      	ldr	r2, [r0, #0]
 8003342:	6997      	ldr	r7, [r2, #24]
 8003344:	f017 0702 	ands.w	r7, r7, #2
 8003348:	d106      	bne.n	8003358 <HAL_I2C_Mem_Write_DMA+0x38>
 800334a:	e001      	b.n	8003350 <HAL_I2C_Mem_Write_DMA+0x30>
 800334c:	4628      	mov	r0, r5
 800334e:	e02e      	b.n	80033ae <HAL_I2C_Mem_Write_DMA+0x8e>
 8003350:	f890 3034 	ldrb.w	r3, [r0, #52]	; 0x34
 8003354:	2b01      	cmp	r3, #1
 8003356:	d101      	bne.n	800335c <HAL_I2C_Mem_Write_DMA+0x3c>
 8003358:	2002      	movs	r0, #2
 800335a:	e028      	b.n	80033ae <HAL_I2C_Mem_Write_DMA+0x8e>
 800335c:	2332      	movs	r3, #50	; 0x32
 800335e:	f884 3035 	strb.w	r3, [r4, #53]	; 0x35
 8003362:	6ae0      	ldr	r0, [r4, #44]	; 0x2c
 8003364:	4b13      	ldr	r3, [pc, #76]	; (80033b4 <HAL_I2C_Mem_Write_DMA+0x94>)
 8003366:	63a7      	str	r7, [r4, #56]	; 0x38
 8003368:	6261      	str	r1, [r4, #36]	; 0x24
 800336a:	f884 5034 	strb.w	r5, [r4, #52]	; 0x34
 800336e:	8526      	strh	r6, [r4, #40]	; 0x28
 8003370:	8566      	strh	r6, [r4, #42]	; 0x2a
 8003372:	63c3      	str	r3, [r0, #60]	; 0x3c
 8003374:	4b10      	ldr	r3, [pc, #64]	; (80033b8 <HAL_I2C_Mem_Write_DMA+0x98>)
 8003376:	3210      	adds	r2, #16
 8003378:	6483      	str	r3, [r0, #72]	; 0x48
 800337a:	4633      	mov	r3, r6
 800337c:	f7fd fb81 	bl	8000a82 <HAL_DMA_Start_IT>
 8003380:	2323      	movs	r3, #35	; 0x23
 8003382:	9300      	str	r3, [sp, #0]
 8003384:	4620      	mov	r0, r4
 8003386:	4641      	mov	r1, r8
 8003388:	464a      	mov	r2, r9
 800338a:	4653      	mov	r3, sl
 800338c:	f7ff f802 	bl	8002394 <_ZL22I2C_RequestMemoryWriteP17I2C_HandleTypeDeftttj>
 8003390:	b130      	cbz	r0, 80033a0 <HAL_I2C_Mem_Write_DMA+0x80>
 8003392:	6ba3      	ldr	r3, [r4, #56]	; 0x38
 8003394:	f884 7034 	strb.w	r7, [r4, #52]	; 0x34
 8003398:	2b04      	cmp	r3, #4
 800339a:	d0d7      	beq.n	800334c <HAL_I2C_Mem_Write_DMA+0x2c>
 800339c:	2003      	movs	r0, #3
 800339e:	e006      	b.n	80033ae <HAL_I2C_Mem_Write_DMA+0x8e>
 80033a0:	6823      	ldr	r3, [r4, #0]
 80033a2:	685a      	ldr	r2, [r3, #4]
 80033a4:	f442 6200 	orr.w	r2, r2, #2048	; 0x800
 80033a8:	605a      	str	r2, [r3, #4]
 80033aa:	f884 0034 	strb.w	r0, [r4, #52]	; 0x34
 80033ae:	b002      	add	sp, #8
 80033b0:	e8bd 87f0 	ldmia.w	sp!, {r4, r5, r6, r7, r8, r9, sl, pc}
 80033b4:	080039c5 	.word	0x080039c5
 80033b8:	080037f7 	.word	0x080037f7

080033bc <HAL_I2C_Mem_Read_DMA>:
 80033bc:	e92d 47ff 	stmdb	sp!, {r0, r1, r2, r3, r4, r5, r6, r7, r8, r9, sl, lr}
 80033c0:	f890 5035 	ldrb.w	r5, [r0, #53]	; 0x35
 80033c4:	f8bd 6034 	ldrh.w	r6, [sp, #52]	; 0x34
 80033c8:	b2ed      	uxtb	r5, r5
 80033ca:	2d01      	cmp	r5, #1
 80033cc:	4691      	mov	r9, r2
 80033ce:	4604      	mov	r4, r0
 80033d0:	4688      	mov	r8, r1
 80033d2:	469a      	mov	sl, r3
 80033d4:	9a0c      	ldr	r2, [sp, #48]	; 0x30
 80033d6:	d10d      	bne.n	80033f4 <HAL_I2C_Mem_Read_DMA+0x38>
 80033d8:	b132      	cbz	r2, 80033e8 <HAL_I2C_Mem_Read_DMA+0x2c>
 80033da:	b12e      	cbz	r6, 80033e8 <HAL_I2C_Mem_Read_DMA+0x2c>
 80033dc:	6801      	ldr	r1, [r0, #0]
 80033de:	698f      	ldr	r7, [r1, #24]
 80033e0:	f017 0702 	ands.w	r7, r7, #2
 80033e4:	d106      	bne.n	80033f4 <HAL_I2C_Mem_Read_DMA+0x38>
 80033e6:	e001      	b.n	80033ec <HAL_I2C_Mem_Read_DMA+0x30>
 80033e8:	4628      	mov	r0, r5
 80033ea:	e03f      	b.n	800346c <HAL_I2C_Mem_Read_DMA+0xb0>
 80033ec:	f890 3034 	ldrb.w	r3, [r0, #52]	; 0x34
 80033f0:	2b01      	cmp	r3, #1
 80033f2:	d101      	bne.n	80033f8 <HAL_I2C_Mem_Read_DMA+0x3c>
 80033f4:	2002      	movs	r0, #2
 80033f6:	e039      	b.n	800346c <HAL_I2C_Mem_Read_DMA+0xb0>
 80033f8:	2342      	movs	r3, #66	; 0x42
 80033fa:	f884 3035 	strb.w	r3, [r4, #53]	; 0x35
 80033fe:	6b20      	ldr	r0, [r4, #48]	; 0x30
 8003400:	4b1c      	ldr	r3, [pc, #112]	; (8003474 <HAL_I2C_Mem_Read_DMA+0xb8>)
 8003402:	63a7      	str	r7, [r4, #56]	; 0x38
 8003404:	6262      	str	r2, [r4, #36]	; 0x24
 8003406:	f884 5034 	strb.w	r5, [r4, #52]	; 0x34
 800340a:	8526      	strh	r6, [r4, #40]	; 0x28
 800340c:	8566      	strh	r6, [r4, #42]	; 0x2a
 800340e:	63c3      	str	r3, [r0, #60]	; 0x3c
 8003410:	4b19      	ldr	r3, [pc, #100]	; (8003478 <HAL_I2C_Mem_Read_DMA+0xbc>)
 8003412:	3110      	adds	r1, #16
 8003414:	6483      	str	r3, [r0, #72]	; 0x48
 8003416:	4633      	mov	r3, r6
 8003418:	f7fd fb33 	bl	8000a82 <HAL_DMA_Start_IT>
 800341c:	2323      	movs	r3, #35	; 0x23
 800341e:	9300      	str	r3, [sp, #0]
 8003420:	4620      	mov	r0, r4
 8003422:	4641      	mov	r1, r8
 8003424:	464a      	mov	r2, r9
 8003426:	4653      	mov	r3, sl
 8003428:	f7ff f802 	bl	8002430 <_ZL21I2C_RequestMemoryReadP17I2C_HandleTypeDeftttj>
 800342c:	b130      	cbz	r0, 800343c <HAL_I2C_Mem_Read_DMA+0x80>
 800342e:	6ba3      	ldr	r3, [r4, #56]	; 0x38
 8003430:	f884 7034 	strb.w	r7, [r4, #52]	; 0x34
 8003434:	2b04      	cmp	r3, #4
 8003436:	d0d7      	beq.n	80033e8 <HAL_I2C_Mem_Read_DMA+0x2c>
 8003438:	2003      	movs	r0, #3
 800343a:	e017      	b.n	800346c <HAL_I2C_Mem_Read_DMA+0xb0>
 800343c:	2e01      	cmp	r6, #1
 800343e:	6823      	ldr	r3, [r4, #0]
 8003440:	d104      	bne.n	800344c <HAL_I2C_Mem_Read_DMA+0x90>
 8003442:	681a      	ldr	r2, [r3, #0]
 8003444:	f422 6280 	bic.w	r2, r2, #1024	; 0x400
 8003448:	601a      	str	r2, [r3, #0]
 800344a:	e003      	b.n	8003454 <HAL_I2C_Mem_Read_DMA+0x98>
 800344c:	685a      	ldr	r2, [r3, #4]
 800344e:	f442 5280 	orr.w	r2, r2, #4096	; 0x1000
 8003452:	605a      	str	r2, [r3, #4]
 8003454:	685a      	ldr	r2, [r3, #4]
 8003456:	f442 6200 	orr.w	r2, r2, #2048	; 0x800
 800345a:	605a      	str	r2, [r3, #4]
 800345c:	695a      	ldr	r2, [r3, #20]
 800345e:	9203      	str	r2, [sp, #12]
 8003460:	699b      	ldr	r3, [r3, #24]
 8003462:	9303      	str	r3, [sp, #12]
 8003464:	9b03      	ldr	r3, [sp, #12]
 8003466:	2300      	movs	r3, #0
 8003468:	f884 3034 	strb.w	r3, [r4, #52]	; 0x34
 800346c:	b004      	add	sp, #16
 800346e:	e8bd 87f0 	ldmia.w	sp!, {r4, r5, r6, r7, r8, r9, sl, pc}
 8003472:	bf00      	nop
 8003474:	08003a2d 	.word	0x08003a2d
 8003478:	080037f7 	.word	0x080037f7

0800347c <HAL_I2C_IsDeviceReady>:
 800347c:	e92d 43f7 	stmdb	sp!, {r0, r1, r2, r4, r5, r6, r7, r8, r9, lr}
 8003480:	461e      	mov	r6, r3
 8003482:	f890 3035 	ldrb.w	r3, [r0, #53]	; 0x35
 8003486:	b2db      	uxtb	r3, r3
 8003488:	2b01      	cmp	r3, #1
 800348a:	4604      	mov	r4, r0
 800348c:	4688      	mov	r8, r1
 800348e:	4691      	mov	r9, r2
 8003490:	d104      	bne.n	800349c <HAL_I2C_IsDeviceReady+0x20>
 8003492:	6802      	ldr	r2, [r0, #0]
 8003494:	6997      	ldr	r7, [r2, #24]
 8003496:	f017 0702 	ands.w	r7, r7, #2
 800349a:	d001      	beq.n	80034a0 <HAL_I2C_IsDeviceReady+0x24>
 800349c:	2002      	movs	r0, #2
 800349e:	e06d      	b.n	800357c <HAL_I2C_IsDeviceReady+0x100>
 80034a0:	f890 2034 	ldrb.w	r2, [r0, #52]	; 0x34
 80034a4:	2a01      	cmp	r2, #1
 80034a6:	d0f9      	beq.n	800349c <HAL_I2C_IsDeviceReady+0x20>
 80034a8:	f884 3034 	strb.w	r3, [r4, #52]	; 0x34
 80034ac:	2302      	movs	r3, #2
 80034ae:	f884 3035 	strb.w	r3, [r4, #53]	; 0x35
 80034b2:	63a7      	str	r7, [r4, #56]	; 0x38
 80034b4:	6823      	ldr	r3, [r4, #0]
 80034b6:	681a      	ldr	r2, [r3, #0]
 80034b8:	f442 7280 	orr.w	r2, r2, #256	; 0x100
 80034bc:	601a      	str	r2, [r3, #0]
 80034be:	4620      	mov	r0, r4
 80034c0:	f04f 1101 	mov.w	r1, #65537	; 0x10001
 80034c4:	2200      	movs	r2, #0
 80034c6:	4633      	mov	r3, r6
 80034c8:	f7fe fe7f 	bl	80021ca <_ZL26I2C_WaitOnFlagUntilTimeoutP17I2C_HandleTypeDefj10FlagStatusj>
 80034cc:	b108      	cbz	r0, 80034d2 <HAL_I2C_IsDeviceReady+0x56>
 80034ce:	2003      	movs	r0, #3
 80034d0:	e054      	b.n	800357c <HAL_I2C_IsDeviceReady+0x100>
 80034d2:	6823      	ldr	r3, [r4, #0]
 80034d4:	f008 02fe 	and.w	r2, r8, #254	; 0xfe
 80034d8:	611a      	str	r2, [r3, #16]
 80034da:	f7fc ff13 	bl	8000304 <HAL_GetTick>
 80034de:	4605      	mov	r5, r0
 80034e0:	6823      	ldr	r3, [r4, #0]
 80034e2:	6959      	ldr	r1, [r3, #20]
 80034e4:	695a      	ldr	r2, [r3, #20]
 80034e6:	f894 3035 	ldrb.w	r3, [r4, #53]	; 0x35
 80034ea:	f3c1 0140 	ubfx	r1, r1, #1, #1
 80034ee:	f3c2 2280 	ubfx	r2, r2, #10, #1
 80034f2:	b2db      	uxtb	r3, r3
 80034f4:	b949      	cbnz	r1, 800350a <HAL_I2C_IsDeviceReady+0x8e>
 80034f6:	b942      	cbnz	r2, 800350a <HAL_I2C_IsDeviceReady+0x8e>
 80034f8:	2b03      	cmp	r3, #3
 80034fa:	d006      	beq.n	800350a <HAL_I2C_IsDeviceReady+0x8e>
 80034fc:	b16e      	cbz	r6, 800351a <HAL_I2C_IsDeviceReady+0x9e>
 80034fe:	f7fc ff01 	bl	8000304 <HAL_GetTick>
 8003502:	1b40      	subs	r0, r0, r5
 8003504:	42b0      	cmp	r0, r6
 8003506:	d808      	bhi.n	800351a <HAL_I2C_IsDeviceReady+0x9e>
 8003508:	e7ea      	b.n	80034e0 <HAL_I2C_IsDeviceReady+0x64>
 800350a:	2501      	movs	r5, #1
 800350c:	6820      	ldr	r0, [r4, #0]
 800350e:	f884 5035 	strb.w	r5, [r4, #53]	; 0x35
 8003512:	6943      	ldr	r3, [r0, #20]
 8003514:	0799      	lsls	r1, r3, #30
 8003516:	d51a      	bpl.n	800354e <HAL_I2C_IsDeviceReady+0xd2>
 8003518:	e003      	b.n	8003522 <HAL_I2C_IsDeviceReady+0xa6>
 800351a:	2303      	movs	r3, #3
 800351c:	f884 3035 	strb.w	r3, [r4, #53]	; 0x35
 8003520:	e7de      	b.n	80034e0 <HAL_I2C_IsDeviceReady+0x64>
 8003522:	6803      	ldr	r3, [r0, #0]
 8003524:	4917      	ldr	r1, [pc, #92]	; (8003584 <HAL_I2C_IsDeviceReady+0x108>)
 8003526:	f443 7300 	orr.w	r3, r3, #512	; 0x200
 800352a:	6003      	str	r3, [r0, #0]
 800352c:	6943      	ldr	r3, [r0, #20]
 800352e:	9301      	str	r3, [sp, #4]
 8003530:	6983      	ldr	r3, [r0, #24]
 8003532:	9301      	str	r3, [sp, #4]
 8003534:	9b01      	ldr	r3, [sp, #4]
 8003536:	4620      	mov	r0, r4
 8003538:	462a      	mov	r2, r5
 800353a:	4633      	mov	r3, r6
 800353c:	f7fe fe45 	bl	80021ca <_ZL26I2C_WaitOnFlagUntilTimeoutP17I2C_HandleTypeDefj10FlagStatusj>
 8003540:	2800      	cmp	r0, #0
 8003542:	d1c4      	bne.n	80034ce <HAL_I2C_IsDeviceReady+0x52>
 8003544:	f884 5035 	strb.w	r5, [r4, #53]	; 0x35
 8003548:	f884 0034 	strb.w	r0, [r4, #52]	; 0x34
 800354c:	e016      	b.n	800357c <HAL_I2C_IsDeviceReady+0x100>
 800354e:	6803      	ldr	r3, [r0, #0]
 8003550:	490c      	ldr	r1, [pc, #48]	; (8003584 <HAL_I2C_IsDeviceReady+0x108>)
 8003552:	f443 7300 	orr.w	r3, r3, #512	; 0x200
 8003556:	6003      	str	r3, [r0, #0]
 8003558:	f46f 6380 	mvn.w	r3, #1024	; 0x400
 800355c:	6143      	str	r3, [r0, #20]
 800355e:	462a      	mov	r2, r5
 8003560:	4620      	mov	r0, r4
 8003562:	4633      	mov	r3, r6
 8003564:	f7fe fe31 	bl	80021ca <_ZL26I2C_WaitOnFlagUntilTimeoutP17I2C_HandleTypeDefj10FlagStatusj>
 8003568:	2800      	cmp	r0, #0
 800356a:	d1b0      	bne.n	80034ce <HAL_I2C_IsDeviceReady+0x52>
 800356c:	3701      	adds	r7, #1
 800356e:	454f      	cmp	r7, r9
 8003570:	d3a0      	bcc.n	80034b4 <HAL_I2C_IsDeviceReady+0x38>
 8003572:	f884 0034 	strb.w	r0, [r4, #52]	; 0x34
 8003576:	f884 5035 	strb.w	r5, [r4, #53]	; 0x35
 800357a:	4628      	mov	r0, r5
 800357c:	b003      	add	sp, #12
 800357e:	e8bd 83f0 	ldmia.w	sp!, {r4, r5, r6, r7, r8, r9, pc}
 8003582:	bf00      	nop
 8003584:	00100002 	.word	0x00100002

08003588 <HAL_I2C_MasterTxCpltCallback>:
 8003588:	4770      	bx	lr

0800358a <HAL_I2C_MasterRxCpltCallback>:
 800358a:	4770      	bx	lr

0800358c <HAL_I2C_SlaveTxCpltCallback>:
 800358c:	4770      	bx	lr

0800358e <HAL_I2C_SlaveRxCpltCallback>:
 800358e:	4770      	bx	lr

08003590 <HAL_I2C_MemTxCpltCallback>:
 8003590:	4770      	bx	lr

08003592 <HAL_I2C_MemRxCpltCallback>:
 8003592:	4770      	bx	lr

08003594 <HAL_I2C_EV_IRQHandler>:
 8003594:	6803      	ldr	r3, [r0, #0]
 8003596:	699a      	ldr	r2, [r3, #24]
 8003598:	b573      	push	{r0, r1, r4, r5, r6, lr}
 800359a:	07d6      	lsls	r6, r2, #31
 800359c:	4604      	mov	r4, r0
 800359e:	d504      	bpl.n	80035aa <HAL_I2C_EV_IRQHandler+0x16>
 80035a0:	699a      	ldr	r2, [r3, #24]
 80035a2:	0755      	lsls	r5, r2, #29
 80035a4:	f100 80e3 	bmi.w	800376e <HAL_I2C_EV_IRQHandler+0x1da>
 80035a8:	e06f      	b.n	800368a <HAL_I2C_EV_IRQHandler+0xf6>
 80035aa:	695e      	ldr	r6, [r3, #20]
 80035ac:	685d      	ldr	r5, [r3, #4]
 80035ae:	6959      	ldr	r1, [r3, #20]
 80035b0:	699a      	ldr	r2, [r3, #24]
 80035b2:	07b6      	lsls	r6, r6, #30
 80035b4:	f3c5 2540 	ubfx	r5, r5, #9, #1
 80035b8:	f001 0110 	and.w	r1, r1, #16
 80035bc:	f002 0204 	and.w	r2, r2, #4
 80035c0:	d506      	bpl.n	80035d0 <HAL_I2C_EV_IRQHandler+0x3c>
 80035c2:	b325      	cbz	r5, 800360e <HAL_I2C_EV_IRQHandler+0x7a>
 80035c4:	695a      	ldr	r2, [r3, #20]
 80035c6:	9200      	str	r2, [sp, #0]
 80035c8:	699b      	ldr	r3, [r3, #24]
 80035ca:	9300      	str	r3, [sp, #0]
 80035cc:	9b00      	ldr	r3, [sp, #0]
 80035ce:	e10d      	b.n	80037ec <HAL_I2C_EV_IRQHandler+0x258>
 80035d0:	b1e9      	cbz	r1, 800360e <HAL_I2C_EV_IRQHandler+0x7a>
 80035d2:	b1e5      	cbz	r5, 800360e <HAL_I2C_EV_IRQHandler+0x7a>
 80035d4:	685a      	ldr	r2, [r3, #4]
 80035d6:	4986      	ldr	r1, [pc, #536]	; (80037f0 <HAL_I2C_EV_IRQHandler+0x25c>)
 80035d8:	f422 62e0 	bic.w	r2, r2, #1792	; 0x700
 80035dc:	605a      	str	r2, [r3, #4]
 80035de:	695a      	ldr	r2, [r3, #20]
 80035e0:	9201      	str	r2, [sp, #4]
 80035e2:	681a      	ldr	r2, [r3, #0]
 80035e4:	f042 0201 	orr.w	r2, r2, #1
 80035e8:	601a      	str	r2, [r3, #0]
 80035ea:	9a01      	ldr	r2, [sp, #4]
 80035ec:	681a      	ldr	r2, [r3, #0]
 80035ee:	f422 6280 	bic.w	r2, r2, #1024	; 0x400
 80035f2:	601a      	str	r2, [r3, #0]
 80035f4:	462a      	mov	r2, r5
 80035f6:	2323      	movs	r3, #35	; 0x23
 80035f8:	f7fe fde7 	bl	80021ca <_ZL26I2C_WaitOnFlagUntilTimeoutP17I2C_HandleTypeDefj10FlagStatusj>
 80035fc:	2800      	cmp	r0, #0
 80035fe:	f040 80f5 	bne.w	80037ec <HAL_I2C_EV_IRQHandler+0x258>
 8003602:	f884 5035 	strb.w	r5, [r4, #53]	; 0x35
 8003606:	4620      	mov	r0, r4
 8003608:	f7ff ffc1 	bl	800358e <HAL_I2C_SlaveRxCpltCallback>
 800360c:	e0ee      	b.n	80037ec <HAL_I2C_EV_IRQHandler+0x258>
 800360e:	695d      	ldr	r5, [r3, #20]
 8003610:	6858      	ldr	r0, [r3, #4]
 8003612:	b1d2      	cbz	r2, 800364a <HAL_I2C_EV_IRQHandler+0xb6>
 8003614:	695a      	ldr	r2, [r3, #20]
 8003616:	6859      	ldr	r1, [r3, #4]
 8003618:	062d      	lsls	r5, r5, #24
 800361a:	f3c2 0280 	ubfx	r2, r2, #2, #1
 800361e:	d503      	bpl.n	8003628 <HAL_I2C_EV_IRQHandler+0x94>
 8003620:	0540      	lsls	r0, r0, #21
 8003622:	d501      	bpl.n	8003628 <HAL_I2C_EV_IRQHandler+0x94>
 8003624:	b91a      	cbnz	r2, 800362e <HAL_I2C_EV_IRQHandler+0x9a>
 8003626:	e005      	b.n	8003634 <HAL_I2C_EV_IRQHandler+0xa0>
 8003628:	2a00      	cmp	r2, #0
 800362a:	f000 80df 	beq.w	80037ec <HAL_I2C_EV_IRQHandler+0x258>
 800362e:	058e      	lsls	r6, r1, #22
 8003630:	f140 80dc 	bpl.w	80037ec <HAL_I2C_EV_IRQHandler+0x258>
 8003634:	8d62      	ldrh	r2, [r4, #42]	; 0x2a
 8003636:	b292      	uxth	r2, r2
 8003638:	2a00      	cmp	r2, #0
 800363a:	f000 80d7 	beq.w	80037ec <HAL_I2C_EV_IRQHandler+0x258>
 800363e:	6a62      	ldr	r2, [r4, #36]	; 0x24
 8003640:	1c51      	adds	r1, r2, #1
 8003642:	6261      	str	r1, [r4, #36]	; 0x24
 8003644:	7812      	ldrb	r2, [r2, #0]
 8003646:	611a      	str	r2, [r3, #16]
 8003648:	e019      	b.n	800367e <HAL_I2C_EV_IRQHandler+0xea>
 800364a:	695a      	ldr	r2, [r3, #20]
 800364c:	6859      	ldr	r1, [r3, #4]
 800364e:	066d      	lsls	r5, r5, #25
 8003650:	f3c2 0280 	ubfx	r2, r2, #2, #1
 8003654:	d503      	bpl.n	800365e <HAL_I2C_EV_IRQHandler+0xca>
 8003656:	0540      	lsls	r0, r0, #21
 8003658:	d501      	bpl.n	800365e <HAL_I2C_EV_IRQHandler+0xca>
 800365a:	b91a      	cbnz	r2, 8003664 <HAL_I2C_EV_IRQHandler+0xd0>
 800365c:	e005      	b.n	800366a <HAL_I2C_EV_IRQHandler+0xd6>
 800365e:	2a00      	cmp	r2, #0
 8003660:	f000 80c4 	beq.w	80037ec <HAL_I2C_EV_IRQHandler+0x258>
 8003664:	058e      	lsls	r6, r1, #22
 8003666:	f140 80c1 	bpl.w	80037ec <HAL_I2C_EV_IRQHandler+0x258>
 800366a:	8d62      	ldrh	r2, [r4, #42]	; 0x2a
 800366c:	b292      	uxth	r2, r2
 800366e:	2a00      	cmp	r2, #0
 8003670:	f000 80bc 	beq.w	80037ec <HAL_I2C_EV_IRQHandler+0x258>
 8003674:	6a62      	ldr	r2, [r4, #36]	; 0x24
 8003676:	691b      	ldr	r3, [r3, #16]
 8003678:	1c51      	adds	r1, r2, #1
 800367a:	6261      	str	r1, [r4, #36]	; 0x24
 800367c:	7013      	strb	r3, [r2, #0]
 800367e:	8d63      	ldrh	r3, [r4, #42]	; 0x2a
 8003680:	b29b      	uxth	r3, r3
 8003682:	3b01      	subs	r3, #1
 8003684:	b29b      	uxth	r3, r3
 8003686:	8563      	strh	r3, [r4, #42]	; 0x2a
 8003688:	e0b0      	b.n	80037ec <HAL_I2C_EV_IRQHandler+0x258>
 800368a:	695d      	ldr	r5, [r3, #20]
 800368c:	685e      	ldr	r6, [r3, #4]
 800368e:	695a      	ldr	r2, [r3, #20]
 8003690:	6859      	ldr	r1, [r3, #4]
 8003692:	066d      	lsls	r5, r5, #25
 8003694:	f3c2 0280 	ubfx	r2, r2, #2, #1
 8003698:	d51c      	bpl.n	80036d4 <HAL_I2C_EV_IRQHandler+0x140>
 800369a:	0575      	lsls	r5, r6, #21
 800369c:	d51a      	bpl.n	80036d4 <HAL_I2C_EV_IRQHandler+0x140>
 800369e:	b9e2      	cbnz	r2, 80036da <HAL_I2C_EV_IRQHandler+0x146>
 80036a0:	8d62      	ldrh	r2, [r4, #42]	; 0x2a
 80036a2:	b292      	uxth	r2, r2
 80036a4:	2a03      	cmp	r2, #3
 80036a6:	d8e5      	bhi.n	8003674 <HAL_I2C_EV_IRQHandler+0xe0>
 80036a8:	3a02      	subs	r2, #2
 80036aa:	2a01      	cmp	r2, #1
 80036ac:	685a      	ldr	r2, [r3, #4]
 80036ae:	d803      	bhi.n	80036b8 <HAL_I2C_EV_IRQHandler+0x124>
 80036b0:	f422 6280 	bic.w	r2, r2, #1024	; 0x400
 80036b4:	605a      	str	r2, [r3, #4]
 80036b6:	e099      	b.n	80037ec <HAL_I2C_EV_IRQHandler+0x258>
 80036b8:	f422 62e0 	bic.w	r2, r2, #1792	; 0x700
 80036bc:	605a      	str	r2, [r3, #4]
 80036be:	6a62      	ldr	r2, [r4, #36]	; 0x24
 80036c0:	691b      	ldr	r3, [r3, #16]
 80036c2:	1c51      	adds	r1, r2, #1
 80036c4:	6261      	str	r1, [r4, #36]	; 0x24
 80036c6:	7013      	strb	r3, [r2, #0]
 80036c8:	8d63      	ldrh	r3, [r4, #42]	; 0x2a
 80036ca:	b29b      	uxth	r3, r3
 80036cc:	3b01      	subs	r3, #1
 80036ce:	b29b      	uxth	r3, r3
 80036d0:	8563      	strh	r3, [r4, #42]	; 0x2a
 80036d2:	e031      	b.n	8003738 <HAL_I2C_EV_IRQHandler+0x1a4>
 80036d4:	2a00      	cmp	r2, #0
 80036d6:	f000 8089 	beq.w	80037ec <HAL_I2C_EV_IRQHandler+0x258>
 80036da:	058a      	lsls	r2, r1, #22
 80036dc:	f140 8086 	bpl.w	80037ec <HAL_I2C_EV_IRQHandler+0x258>
 80036e0:	8d62      	ldrh	r2, [r4, #42]	; 0x2a
 80036e2:	b292      	uxth	r2, r2
 80036e4:	2a03      	cmp	r2, #3
 80036e6:	6a62      	ldr	r2, [r4, #36]	; 0x24
 80036e8:	d104      	bne.n	80036f4 <HAL_I2C_EV_IRQHandler+0x160>
 80036ea:	6819      	ldr	r1, [r3, #0]
 80036ec:	f421 6180 	bic.w	r1, r1, #1024	; 0x400
 80036f0:	6019      	str	r1, [r3, #0]
 80036f2:	e7c0      	b.n	8003676 <HAL_I2C_EV_IRQHandler+0xe2>
 80036f4:	8d61      	ldrh	r1, [r4, #42]	; 0x2a
 80036f6:	b289      	uxth	r1, r1
 80036f8:	2902      	cmp	r1, #2
 80036fa:	d1bc      	bne.n	8003676 <HAL_I2C_EV_IRQHandler+0xe2>
 80036fc:	6819      	ldr	r1, [r3, #0]
 80036fe:	f441 7100 	orr.w	r1, r1, #512	; 0x200
 8003702:	6019      	str	r1, [r3, #0]
 8003704:	691b      	ldr	r3, [r3, #16]
 8003706:	1c51      	adds	r1, r2, #1
 8003708:	6261      	str	r1, [r4, #36]	; 0x24
 800370a:	7013      	strb	r3, [r2, #0]
 800370c:	8d63      	ldrh	r3, [r4, #42]	; 0x2a
 800370e:	b29b      	uxth	r3, r3
 8003710:	3b01      	subs	r3, #1
 8003712:	b29b      	uxth	r3, r3
 8003714:	8563      	strh	r3, [r4, #42]	; 0x2a
 8003716:	6a63      	ldr	r3, [r4, #36]	; 0x24
 8003718:	1c5a      	adds	r2, r3, #1
 800371a:	6262      	str	r2, [r4, #36]	; 0x24
 800371c:	6822      	ldr	r2, [r4, #0]
 800371e:	6912      	ldr	r2, [r2, #16]
 8003720:	701a      	strb	r2, [r3, #0]
 8003722:	8d63      	ldrh	r3, [r4, #42]	; 0x2a
 8003724:	b29b      	uxth	r3, r3
 8003726:	3b01      	subs	r3, #1
 8003728:	b29b      	uxth	r3, r3
 800372a:	8563      	strh	r3, [r4, #42]	; 0x2a
 800372c:	6823      	ldr	r3, [r4, #0]
 800372e:	685a      	ldr	r2, [r3, #4]
 8003730:	f422 7240 	bic.w	r2, r2, #768	; 0x300
 8003734:	605a      	str	r2, [r3, #4]
 8003736:	4620      	mov	r0, r4
 8003738:	492d      	ldr	r1, [pc, #180]	; (80037f0 <HAL_I2C_EV_IRQHandler+0x25c>)
 800373a:	2201      	movs	r2, #1
 800373c:	2323      	movs	r3, #35	; 0x23
 800373e:	f7fe fd44 	bl	80021ca <_ZL26I2C_WaitOnFlagUntilTimeoutP17I2C_HandleTypeDefj10FlagStatusj>
 8003742:	2800      	cmp	r0, #0
 8003744:	d152      	bne.n	80037ec <HAL_I2C_EV_IRQHandler+0x258>
 8003746:	6823      	ldr	r3, [r4, #0]
 8003748:	681a      	ldr	r2, [r3, #0]
 800374a:	f422 6200 	bic.w	r2, r2, #2048	; 0x800
 800374e:	601a      	str	r2, [r3, #0]
 8003750:	f894 3035 	ldrb.w	r3, [r4, #53]	; 0x35
 8003754:	2b42      	cmp	r3, #66	; 0x42
 8003756:	f04f 0301 	mov.w	r3, #1
 800375a:	f884 3035 	strb.w	r3, [r4, #53]	; 0x35
 800375e:	4620      	mov	r0, r4
 8003760:	d102      	bne.n	8003768 <HAL_I2C_EV_IRQHandler+0x1d4>
 8003762:	f7ff ff16 	bl	8003592 <HAL_I2C_MemRxCpltCallback>
 8003766:	e041      	b.n	80037ec <HAL_I2C_EV_IRQHandler+0x258>
 8003768:	f7ff ff0f 	bl	800358a <HAL_I2C_MasterRxCpltCallback>
 800376c:	e03e      	b.n	80037ec <HAL_I2C_EV_IRQHandler+0x258>
 800376e:	6958      	ldr	r0, [r3, #20]
 8003770:	685d      	ldr	r5, [r3, #4]
 8003772:	695a      	ldr	r2, [r3, #20]
 8003774:	6859      	ldr	r1, [r3, #4]
 8003776:	0600      	lsls	r0, r0, #24
 8003778:	f3c2 0280 	ubfx	r2, r2, #2, #1
 800377c:	d511      	bpl.n	80037a2 <HAL_I2C_EV_IRQHandler+0x20e>
 800377e:	0568      	lsls	r0, r5, #21
 8003780:	d50f      	bpl.n	80037a2 <HAL_I2C_EV_IRQHandler+0x20e>
 8003782:	b97a      	cbnz	r2, 80037a4 <HAL_I2C_EV_IRQHandler+0x210>
 8003784:	6a62      	ldr	r2, [r4, #36]	; 0x24
 8003786:	1c51      	adds	r1, r2, #1
 8003788:	6261      	str	r1, [r4, #36]	; 0x24
 800378a:	7812      	ldrb	r2, [r2, #0]
 800378c:	611a      	str	r2, [r3, #16]
 800378e:	8d62      	ldrh	r2, [r4, #42]	; 0x2a
 8003790:	b292      	uxth	r2, r2
 8003792:	3a01      	subs	r2, #1
 8003794:	b292      	uxth	r2, r2
 8003796:	8562      	strh	r2, [r4, #42]	; 0x2a
 8003798:	8d62      	ldrh	r2, [r4, #42]	; 0x2a
 800379a:	b292      	uxth	r2, r2
 800379c:	bb32      	cbnz	r2, 80037ec <HAL_I2C_EV_IRQHandler+0x258>
 800379e:	685a      	ldr	r2, [r3, #4]
 80037a0:	e786      	b.n	80036b0 <HAL_I2C_EV_IRQHandler+0x11c>
 80037a2:	b31a      	cbz	r2, 80037ec <HAL_I2C_EV_IRQHandler+0x258>
 80037a4:	058e      	lsls	r6, r1, #22
 80037a6:	d521      	bpl.n	80037ec <HAL_I2C_EV_IRQHandler+0x258>
 80037a8:	8d62      	ldrh	r2, [r4, #42]	; 0x2a
 80037aa:	b292      	uxth	r2, r2
 80037ac:	2a00      	cmp	r2, #0
 80037ae:	f47f af46 	bne.w	800363e <HAL_I2C_EV_IRQHandler+0xaa>
 80037b2:	685a      	ldr	r2, [r3, #4]
 80037b4:	490e      	ldr	r1, [pc, #56]	; (80037f0 <HAL_I2C_EV_IRQHandler+0x25c>)
 80037b6:	f422 62e0 	bic.w	r2, r2, #1792	; 0x700
 80037ba:	605a      	str	r2, [r3, #4]
 80037bc:	681a      	ldr	r2, [r3, #0]
 80037be:	f442 7200 	orr.w	r2, r2, #512	; 0x200
 80037c2:	601a      	str	r2, [r3, #0]
 80037c4:	4620      	mov	r0, r4
 80037c6:	2201      	movs	r2, #1
 80037c8:	2323      	movs	r3, #35	; 0x23
 80037ca:	f7fe fcfe 	bl	80021ca <_ZL26I2C_WaitOnFlagUntilTimeoutP17I2C_HandleTypeDefj10FlagStatusj>
 80037ce:	b968      	cbnz	r0, 80037ec <HAL_I2C_EV_IRQHandler+0x258>
 80037d0:	f894 3035 	ldrb.w	r3, [r4, #53]	; 0x35
 80037d4:	2b32      	cmp	r3, #50	; 0x32
 80037d6:	f04f 0301 	mov.w	r3, #1
 80037da:	f884 3035 	strb.w	r3, [r4, #53]	; 0x35
 80037de:	4620      	mov	r0, r4
 80037e0:	d102      	bne.n	80037e8 <HAL_I2C_EV_IRQHandler+0x254>
 80037e2:	f7ff fed5 	bl	8003590 <HAL_I2C_MemTxCpltCallback>
 80037e6:	e001      	b.n	80037ec <HAL_I2C_EV_IRQHandler+0x258>
 80037e8:	f7ff fece 	bl	8003588 <HAL_I2C_MasterTxCpltCallback>
 80037ec:	b002      	add	sp, #8
 80037ee:	bd70      	pop	{r4, r5, r6, pc}
 80037f0:	00100002 	.word	0x00100002

080037f4 <HAL_I2C_ErrorCallback>:
 80037f4:	4770      	bx	lr

080037f6 <_ZL12I2C_DMAErrorP19__DMA_HandleTypeDef>:
 80037f6:	6b80      	ldr	r0, [r0, #56]	; 0x38
 80037f8:	b508      	push	{r3, lr}
 80037fa:	6803      	ldr	r3, [r0, #0]
 80037fc:	681a      	ldr	r2, [r3, #0]
 80037fe:	f422 6280 	bic.w	r2, r2, #1024	; 0x400
 8003802:	601a      	str	r2, [r3, #0]
 8003804:	2300      	movs	r3, #0
 8003806:	8543      	strh	r3, [r0, #42]	; 0x2a
 8003808:	2301      	movs	r3, #1
 800380a:	f880 3035 	strb.w	r3, [r0, #53]	; 0x35
 800380e:	6b83      	ldr	r3, [r0, #56]	; 0x38
 8003810:	f043 0310 	orr.w	r3, r3, #16
 8003814:	6383      	str	r3, [r0, #56]	; 0x38
 8003816:	f7ff ffed 	bl	80037f4 <HAL_I2C_ErrorCallback>
 800381a:	bd08      	pop	{r3, pc}

0800381c <_ZL25I2C_DMAMasterTransmitCpltP19__DMA_HandleTypeDef>:
 800381c:	b510      	push	{r4, lr}
 800381e:	6b84      	ldr	r4, [r0, #56]	; 0x38
 8003820:	4916      	ldr	r1, [pc, #88]	; (800387c <_ZL25I2C_DMAMasterTransmitCpltP19__DMA_HandleTypeDef+0x60>)
 8003822:	4620      	mov	r0, r4
 8003824:	2200      	movs	r2, #0
 8003826:	2323      	movs	r3, #35	; 0x23
 8003828:	f7fe fccf 	bl	80021ca <_ZL26I2C_WaitOnFlagUntilTimeoutP17I2C_HandleTypeDefj10FlagStatusj>
 800382c:	b118      	cbz	r0, 8003836 <_ZL25I2C_DMAMasterTransmitCpltP19__DMA_HandleTypeDef+0x1a>
 800382e:	6ba3      	ldr	r3, [r4, #56]	; 0x38
 8003830:	f043 0320 	orr.w	r3, r3, #32
 8003834:	63a3      	str	r3, [r4, #56]	; 0x38
 8003836:	6823      	ldr	r3, [r4, #0]
 8003838:	4911      	ldr	r1, [pc, #68]	; (8003880 <_ZL25I2C_DMAMasterTransmitCpltP19__DMA_HandleTypeDef+0x64>)
 800383a:	681a      	ldr	r2, [r3, #0]
 800383c:	f442 7200 	orr.w	r2, r2, #512	; 0x200
 8003840:	601a      	str	r2, [r3, #0]
 8003842:	685a      	ldr	r2, [r3, #4]
 8003844:	f422 6200 	bic.w	r2, r2, #2048	; 0x800
 8003848:	605a      	str	r2, [r3, #4]
 800384a:	2300      	movs	r3, #0
 800384c:	8563      	strh	r3, [r4, #42]	; 0x2a
 800384e:	4620      	mov	r0, r4
 8003850:	2201      	movs	r2, #1
 8003852:	2323      	movs	r3, #35	; 0x23
 8003854:	f7fe fcb9 	bl	80021ca <_ZL26I2C_WaitOnFlagUntilTimeoutP17I2C_HandleTypeDefj10FlagStatusj>
 8003858:	b118      	cbz	r0, 8003862 <_ZL25I2C_DMAMasterTransmitCpltP19__DMA_HandleTypeDef+0x46>
 800385a:	6ba3      	ldr	r3, [r4, #56]	; 0x38
 800385c:	f043 0320 	orr.w	r3, r3, #32
 8003860:	63a3      	str	r3, [r4, #56]	; 0x38
 8003862:	2301      	movs	r3, #1
 8003864:	f884 3035 	strb.w	r3, [r4, #53]	; 0x35
 8003868:	6ba3      	ldr	r3, [r4, #56]	; 0x38
 800386a:	4620      	mov	r0, r4
 800386c:	b113      	cbz	r3, 8003874 <_ZL25I2C_DMAMasterTransmitCpltP19__DMA_HandleTypeDef+0x58>
 800386e:	f7ff ffc1 	bl	80037f4 <HAL_I2C_ErrorCallback>
 8003872:	bd10      	pop	{r4, pc}
 8003874:	f7ff fe88 	bl	8003588 <HAL_I2C_MasterTxCpltCallback>
 8003878:	bd10      	pop	{r4, pc}
 800387a:	bf00      	nop
 800387c:	00010004 	.word	0x00010004
 8003880:	00100002 	.word	0x00100002

08003884 <_ZL24I2C_DMAMasterReceiveCpltP19__DMA_HandleTypeDef>:
 8003884:	b510      	push	{r4, lr}
 8003886:	6b84      	ldr	r4, [r0, #56]	; 0x38
 8003888:	4914      	ldr	r1, [pc, #80]	; (80038dc <_ZL24I2C_DMAMasterReceiveCpltP19__DMA_HandleTypeDef+0x58>)
 800388a:	6823      	ldr	r3, [r4, #0]
 800388c:	681a      	ldr	r2, [r3, #0]
 800388e:	f442 7200 	orr.w	r2, r2, #512	; 0x200
 8003892:	601a      	str	r2, [r3, #0]
 8003894:	685a      	ldr	r2, [r3, #4]
 8003896:	f422 5280 	bic.w	r2, r2, #4096	; 0x1000
 800389a:	605a      	str	r2, [r3, #4]
 800389c:	681a      	ldr	r2, [r3, #0]
 800389e:	f422 6280 	bic.w	r2, r2, #1024	; 0x400
 80038a2:	601a      	str	r2, [r3, #0]
 80038a4:	685a      	ldr	r2, [r3, #4]
 80038a6:	f422 6200 	bic.w	r2, r2, #2048	; 0x800
 80038aa:	605a      	str	r2, [r3, #4]
 80038ac:	2300      	movs	r3, #0
 80038ae:	8563      	strh	r3, [r4, #42]	; 0x2a
 80038b0:	4620      	mov	r0, r4
 80038b2:	2201      	movs	r2, #1
 80038b4:	2323      	movs	r3, #35	; 0x23
 80038b6:	f7fe fc88 	bl	80021ca <_ZL26I2C_WaitOnFlagUntilTimeoutP17I2C_HandleTypeDefj10FlagStatusj>
 80038ba:	b118      	cbz	r0, 80038c4 <_ZL24I2C_DMAMasterReceiveCpltP19__DMA_HandleTypeDef+0x40>
 80038bc:	6ba3      	ldr	r3, [r4, #56]	; 0x38
 80038be:	f043 0320 	orr.w	r3, r3, #32
 80038c2:	63a3      	str	r3, [r4, #56]	; 0x38
 80038c4:	2301      	movs	r3, #1
 80038c6:	f884 3035 	strb.w	r3, [r4, #53]	; 0x35
 80038ca:	6ba3      	ldr	r3, [r4, #56]	; 0x38
 80038cc:	4620      	mov	r0, r4
 80038ce:	b113      	cbz	r3, 80038d6 <_ZL24I2C_DMAMasterReceiveCpltP19__DMA_HandleTypeDef+0x52>
 80038d0:	f7ff ff90 	bl	80037f4 <HAL_I2C_ErrorCallback>
 80038d4:	bd10      	pop	{r4, pc}
 80038d6:	f7ff fe58 	bl	800358a <HAL_I2C_MasterRxCpltCallback>
 80038da:	bd10      	pop	{r4, pc}
 80038dc:	00100002 	.word	0x00100002

080038e0 <_ZL24I2C_DMASlaveTransmitCpltP19__DMA_HandleTypeDef>:
 80038e0:	b510      	push	{r4, lr}
 80038e2:	6b84      	ldr	r4, [r0, #56]	; 0x38
 80038e4:	f44f 3182 	mov.w	r1, #66560	; 0x10400
 80038e8:	4620      	mov	r0, r4
 80038ea:	2200      	movs	r2, #0
 80038ec:	2323      	movs	r3, #35	; 0x23
 80038ee:	f7fe fc6c 	bl	80021ca <_ZL26I2C_WaitOnFlagUntilTimeoutP17I2C_HandleTypeDefj10FlagStatusj>
 80038f2:	b118      	cbz	r0, 80038fc <_ZL24I2C_DMASlaveTransmitCpltP19__DMA_HandleTypeDef+0x1c>
 80038f4:	6ba3      	ldr	r3, [r4, #56]	; 0x38
 80038f6:	f043 0320 	orr.w	r3, r3, #32
 80038fa:	63a3      	str	r3, [r4, #56]	; 0x38
 80038fc:	6823      	ldr	r3, [r4, #0]
 80038fe:	4912      	ldr	r1, [pc, #72]	; (8003948 <_ZL24I2C_DMASlaveTransmitCpltP19__DMA_HandleTypeDef+0x68>)
 8003900:	f46f 6280 	mvn.w	r2, #1024	; 0x400
 8003904:	615a      	str	r2, [r3, #20]
 8003906:	681a      	ldr	r2, [r3, #0]
 8003908:	f422 6280 	bic.w	r2, r2, #1024	; 0x400
 800390c:	601a      	str	r2, [r3, #0]
 800390e:	685a      	ldr	r2, [r3, #4]
 8003910:	f422 6200 	bic.w	r2, r2, #2048	; 0x800
 8003914:	605a      	str	r2, [r3, #4]
 8003916:	2300      	movs	r3, #0
 8003918:	8563      	strh	r3, [r4, #42]	; 0x2a
 800391a:	4620      	mov	r0, r4
 800391c:	2201      	movs	r2, #1
 800391e:	2323      	movs	r3, #35	; 0x23
 8003920:	f7fe fc53 	bl	80021ca <_ZL26I2C_WaitOnFlagUntilTimeoutP17I2C_HandleTypeDefj10FlagStatusj>
 8003924:	b118      	cbz	r0, 800392e <_ZL24I2C_DMASlaveTransmitCpltP19__DMA_HandleTypeDef+0x4e>
 8003926:	6ba3      	ldr	r3, [r4, #56]	; 0x38
 8003928:	f043 0320 	orr.w	r3, r3, #32
 800392c:	63a3      	str	r3, [r4, #56]	; 0x38
 800392e:	2301      	movs	r3, #1
 8003930:	f884 3035 	strb.w	r3, [r4, #53]	; 0x35
 8003934:	6ba3      	ldr	r3, [r4, #56]	; 0x38
 8003936:	4620      	mov	r0, r4
 8003938:	b113      	cbz	r3, 8003940 <_ZL24I2C_DMASlaveTransmitCpltP19__DMA_HandleTypeDef+0x60>
 800393a:	f7ff ff5b 	bl	80037f4 <HAL_I2C_ErrorCallback>
 800393e:	bd10      	pop	{r4, pc}
 8003940:	f7ff fe24 	bl	800358c <HAL_I2C_SlaveTxCpltCallback>
 8003944:	bd10      	pop	{r4, pc}
 8003946:	bf00      	nop
 8003948:	00100002 	.word	0x00100002

0800394c <_ZL23I2C_DMASlaveReceiveCpltP19__DMA_HandleTypeDef>:
 800394c:	b513      	push	{r0, r1, r4, lr}
 800394e:	6b84      	ldr	r4, [r0, #56]	; 0x38
 8003950:	491a      	ldr	r1, [pc, #104]	; (80039bc <_ZL23I2C_DMASlaveReceiveCpltP19__DMA_HandleTypeDef+0x70>)
 8003952:	4620      	mov	r0, r4
 8003954:	2200      	movs	r2, #0
 8003956:	2323      	movs	r3, #35	; 0x23
 8003958:	f7fe fc37 	bl	80021ca <_ZL26I2C_WaitOnFlagUntilTimeoutP17I2C_HandleTypeDefj10FlagStatusj>
 800395c:	b118      	cbz	r0, 8003966 <_ZL23I2C_DMASlaveReceiveCpltP19__DMA_HandleTypeDef+0x1a>
 800395e:	6ba3      	ldr	r3, [r4, #56]	; 0x38
 8003960:	f043 0320 	orr.w	r3, r3, #32
 8003964:	63a3      	str	r3, [r4, #56]	; 0x38
 8003966:	6823      	ldr	r3, [r4, #0]
 8003968:	4915      	ldr	r1, [pc, #84]	; (80039c0 <_ZL23I2C_DMASlaveReceiveCpltP19__DMA_HandleTypeDef+0x74>)
 800396a:	695a      	ldr	r2, [r3, #20]
 800396c:	9201      	str	r2, [sp, #4]
 800396e:	681a      	ldr	r2, [r3, #0]
 8003970:	f042 0201 	orr.w	r2, r2, #1
 8003974:	601a      	str	r2, [r3, #0]
 8003976:	9a01      	ldr	r2, [sp, #4]
 8003978:	681a      	ldr	r2, [r3, #0]
 800397a:	f422 6280 	bic.w	r2, r2, #1024	; 0x400
 800397e:	601a      	str	r2, [r3, #0]
 8003980:	685a      	ldr	r2, [r3, #4]
 8003982:	f422 6200 	bic.w	r2, r2, #2048	; 0x800
 8003986:	605a      	str	r2, [r3, #4]
 8003988:	2300      	movs	r3, #0
 800398a:	8563      	strh	r3, [r4, #42]	; 0x2a
 800398c:	4620      	mov	r0, r4
 800398e:	2201      	movs	r2, #1
 8003990:	2323      	movs	r3, #35	; 0x23
 8003992:	f7fe fc1a 	bl	80021ca <_ZL26I2C_WaitOnFlagUntilTimeoutP17I2C_HandleTypeDefj10FlagStatusj>
 8003996:	b118      	cbz	r0, 80039a0 <_ZL23I2C_DMASlaveReceiveCpltP19__DMA_HandleTypeDef+0x54>
 8003998:	6ba3      	ldr	r3, [r4, #56]	; 0x38
 800399a:	f043 0320 	orr.w	r3, r3, #32
 800399e:	63a3      	str	r3, [r4, #56]	; 0x38
 80039a0:	2301      	movs	r3, #1
 80039a2:	f884 3035 	strb.w	r3, [r4, #53]	; 0x35
 80039a6:	6ba3      	ldr	r3, [r4, #56]	; 0x38
 80039a8:	4620      	mov	r0, r4
 80039aa:	b113      	cbz	r3, 80039b2 <_ZL23I2C_DMASlaveReceiveCpltP19__DMA_HandleTypeDef+0x66>
 80039ac:	f7ff ff22 	bl	80037f4 <HAL_I2C_ErrorCallback>
 80039b0:	e001      	b.n	80039b6 <_ZL23I2C_DMASlaveReceiveCpltP19__DMA_HandleTypeDef+0x6a>
 80039b2:	f7ff fdec 	bl	800358e <HAL_I2C_SlaveRxCpltCallback>
 80039b6:	b002      	add	sp, #8
 80039b8:	bd10      	pop	{r4, pc}
 80039ba:	bf00      	nop
 80039bc:	00010010 	.word	0x00010010
 80039c0:	00100002 	.word	0x00100002

080039c4 <_ZL22I2C_DMAMemTransmitCpltP19__DMA_HandleTypeDef>:
 80039c4:	b510      	push	{r4, lr}
 80039c6:	6b84      	ldr	r4, [r0, #56]	; 0x38
 80039c8:	4916      	ldr	r1, [pc, #88]	; (8003a24 <_ZL22I2C_DMAMemTransmitCpltP19__DMA_HandleTypeDef+0x60>)
 80039ca:	4620      	mov	r0, r4
 80039cc:	2200      	movs	r2, #0
 80039ce:	2323      	movs	r3, #35	; 0x23
 80039d0:	f7fe fbfb 	bl	80021ca <_ZL26I2C_WaitOnFlagUntilTimeoutP17I2C_HandleTypeDefj10FlagStatusj>
 80039d4:	b118      	cbz	r0, 80039de <_ZL22I2C_DMAMemTransmitCpltP19__DMA_HandleTypeDef+0x1a>
 80039d6:	6ba3      	ldr	r3, [r4, #56]	; 0x38
 80039d8:	f043 0320 	orr.w	r3, r3, #32
 80039dc:	63a3      	str	r3, [r4, #56]	; 0x38
 80039de:	6823      	ldr	r3, [r4, #0]
 80039e0:	4911      	ldr	r1, [pc, #68]	; (8003a28 <_ZL22I2C_DMAMemTransmitCpltP19__DMA_HandleTypeDef+0x64>)
 80039e2:	681a      	ldr	r2, [r3, #0]
 80039e4:	f442 7200 	orr.w	r2, r2, #512	; 0x200
 80039e8:	601a      	str	r2, [r3, #0]
 80039ea:	685a      	ldr	r2, [r3, #4]
 80039ec:	f422 6200 	bic.w	r2, r2, #2048	; 0x800
 80039f0:	605a      	str	r2, [r3, #4]
 80039f2:	2300      	movs	r3, #0
 80039f4:	8563      	strh	r3, [r4, #42]	; 0x2a
 80039f6:	4620      	mov	r0, r4
 80039f8:	2201      	movs	r2, #1
 80039fa:	2323      	movs	r3, #35	; 0x23
 80039fc:	f7fe fbe5 	bl	80021ca <_ZL26I2C_WaitOnFlagUntilTimeoutP17I2C_HandleTypeDefj10FlagStatusj>
 8003a00:	b118      	cbz	r0, 8003a0a <_ZL22I2C_DMAMemTransmitCpltP19__DMA_HandleTypeDef+0x46>
 8003a02:	6ba3      	ldr	r3, [r4, #56]	; 0x38
 8003a04:	f043 0320 	orr.w	r3, r3, #32
 8003a08:	63a3      	str	r3, [r4, #56]	; 0x38
 8003a0a:	2301      	movs	r3, #1
 8003a0c:	f884 3035 	strb.w	r3, [r4, #53]	; 0x35
 8003a10:	6ba3      	ldr	r3, [r4, #56]	; 0x38
 8003a12:	4620      	mov	r0, r4
 8003a14:	b113      	cbz	r3, 8003a1c <_ZL22I2C_DMAMemTransmitCpltP19__DMA_HandleTypeDef+0x58>
 8003a16:	f7ff feed 	bl	80037f4 <HAL_I2C_ErrorCallback>
 8003a1a:	bd10      	pop	{r4, pc}
 8003a1c:	f7ff fdb8 	bl	8003590 <HAL_I2C_MemTxCpltCallback>
 8003a20:	bd10      	pop	{r4, pc}
 8003a22:	bf00      	nop
 8003a24:	00010004 	.word	0x00010004
 8003a28:	00100002 	.word	0x00100002

08003a2c <_ZL21I2C_DMAMemReceiveCpltP19__DMA_HandleTypeDef>:
 8003a2c:	b510      	push	{r4, lr}
 8003a2e:	6b84      	ldr	r4, [r0, #56]	; 0x38
 8003a30:	4914      	ldr	r1, [pc, #80]	; (8003a84 <_ZL21I2C_DMAMemReceiveCpltP19__DMA_HandleTypeDef+0x58>)
 8003a32:	6823      	ldr	r3, [r4, #0]
 8003a34:	681a      	ldr	r2, [r3, #0]
 8003a36:	f442 7200 	orr.w	r2, r2, #512	; 0x200
 8003a3a:	601a      	str	r2, [r3, #0]
 8003a3c:	685a      	ldr	r2, [r3, #4]
 8003a3e:	f422 5280 	bic.w	r2, r2, #4096	; 0x1000
 8003a42:	605a      	str	r2, [r3, #4]
 8003a44:	681a      	ldr	r2, [r3, #0]
 8003a46:	f422 6280 	bic.w	r2, r2, #1024	; 0x400
 8003a4a:	601a      	str	r2, [r3, #0]
 8003a4c:	685a      	ldr	r2, [r3, #4]
 8003a4e:	f422 6200 	bic.w	r2, r2, #2048	; 0x800
 8003a52:	605a      	str	r2, [r3, #4]
 8003a54:	2300      	movs	r3, #0
 8003a56:	8563      	strh	r3, [r4, #42]	; 0x2a
 8003a58:	4620      	mov	r0, r4
 8003a5a:	2201      	movs	r2, #1
 8003a5c:	2323      	movs	r3, #35	; 0x23
 8003a5e:	f7fe fbb4 	bl	80021ca <_ZL26I2C_WaitOnFlagUntilTimeoutP17I2C_HandleTypeDefj10FlagStatusj>
 8003a62:	b118      	cbz	r0, 8003a6c <_ZL21I2C_DMAMemReceiveCpltP19__DMA_HandleTypeDef+0x40>
 8003a64:	6ba3      	ldr	r3, [r4, #56]	; 0x38
 8003a66:	f043 0320 	orr.w	r3, r3, #32
 8003a6a:	63a3      	str	r3, [r4, #56]	; 0x38
 8003a6c:	2301      	movs	r3, #1
 8003a6e:	f884 3035 	strb.w	r3, [r4, #53]	; 0x35
 8003a72:	6ba3      	ldr	r3, [r4, #56]	; 0x38
 8003a74:	4620      	mov	r0, r4
 8003a76:	b113      	cbz	r3, 8003a7e <_ZL21I2C_DMAMemReceiveCpltP19__DMA_HandleTypeDef+0x52>
 8003a78:	f7ff febc 	bl	80037f4 <HAL_I2C_ErrorCallback>
 8003a7c:	bd10      	pop	{r4, pc}
 8003a7e:	f7ff fd88 	bl	8003592 <HAL_I2C_MemRxCpltCallback>
 8003a82:	bd10      	pop	{r4, pc}
 8003a84:	00100002 	.word	0x00100002

08003a88 <HAL_I2C_ER_IRQHandler>:
 8003a88:	6803      	ldr	r3, [r0, #0]
 8003a8a:	695a      	ldr	r2, [r3, #20]
 8003a8c:	6859      	ldr	r1, [r3, #4]
 8003a8e:	05c9      	lsls	r1, r1, #23
 8003a90:	b510      	push	{r4, lr}
 8003a92:	4604      	mov	r4, r0
 8003a94:	d508      	bpl.n	8003aa8 <HAL_I2C_ER_IRQHandler+0x20>
 8003a96:	05d2      	lsls	r2, r2, #23
 8003a98:	d506      	bpl.n	8003aa8 <HAL_I2C_ER_IRQHandler+0x20>
 8003a9a:	6ba2      	ldr	r2, [r4, #56]	; 0x38
 8003a9c:	f042 0201 	orr.w	r2, r2, #1
 8003aa0:	63a2      	str	r2, [r4, #56]	; 0x38
 8003aa2:	f46f 7280 	mvn.w	r2, #256	; 0x100
 8003aa6:	615a      	str	r2, [r3, #20]
 8003aa8:	695a      	ldr	r2, [r3, #20]
 8003aaa:	6859      	ldr	r1, [r3, #4]
 8003aac:	05c8      	lsls	r0, r1, #23
 8003aae:	d508      	bpl.n	8003ac2 <HAL_I2C_ER_IRQHandler+0x3a>
 8003ab0:	0590      	lsls	r0, r2, #22
 8003ab2:	d506      	bpl.n	8003ac2 <HAL_I2C_ER_IRQHandler+0x3a>
 8003ab4:	6ba2      	ldr	r2, [r4, #56]	; 0x38
 8003ab6:	f042 0202 	orr.w	r2, r2, #2
 8003aba:	63a2      	str	r2, [r4, #56]	; 0x38
 8003abc:	f46f 7200 	mvn.w	r2, #512	; 0x200
 8003ac0:	615a      	str	r2, [r3, #20]
 8003ac2:	695a      	ldr	r2, [r3, #20]
 8003ac4:	6859      	ldr	r1, [r3, #4]
 8003ac6:	05c9      	lsls	r1, r1, #23
 8003ac8:	d525      	bpl.n	8003b16 <HAL_I2C_ER_IRQHandler+0x8e>
 8003aca:	0551      	lsls	r1, r2, #21
 8003acc:	d523      	bpl.n	8003b16 <HAL_I2C_ER_IRQHandler+0x8e>
 8003ace:	6998      	ldr	r0, [r3, #24]
 8003ad0:	8d61      	ldrh	r1, [r4, #42]	; 0x2a
 8003ad2:	f894 2035 	ldrb.w	r2, [r4, #53]	; 0x35
 8003ad6:	07c0      	lsls	r0, r0, #31
 8003ad8:	b289      	uxth	r1, r1
 8003ada:	b2d2      	uxtb	r2, r2
 8003adc:	d436      	bmi.n	8003b4c <HAL_I2C_ER_IRQHandler+0xc4>
 8003ade:	2900      	cmp	r1, #0
 8003ae0:	d134      	bne.n	8003b4c <HAL_I2C_ER_IRQHandler+0xc4>
 8003ae2:	2a12      	cmp	r2, #18
 8003ae4:	d132      	bne.n	8003b4c <HAL_I2C_ER_IRQHandler+0xc4>
 8003ae6:	685a      	ldr	r2, [r3, #4]
 8003ae8:	491d      	ldr	r1, [pc, #116]	; (8003b60 <HAL_I2C_ER_IRQHandler+0xd8>)
 8003aea:	f422 62e0 	bic.w	r2, r2, #1792	; 0x700
 8003aee:	605a      	str	r2, [r3, #4]
 8003af0:	f46f 6280 	mvn.w	r2, #1024	; 0x400
 8003af4:	615a      	str	r2, [r3, #20]
 8003af6:	681a      	ldr	r2, [r3, #0]
 8003af8:	f422 6280 	bic.w	r2, r2, #1024	; 0x400
 8003afc:	601a      	str	r2, [r3, #0]
 8003afe:	4620      	mov	r0, r4
 8003b00:	2201      	movs	r2, #1
 8003b02:	2323      	movs	r3, #35	; 0x23
 8003b04:	f7fe fb61 	bl	80021ca <_ZL26I2C_WaitOnFlagUntilTimeoutP17I2C_HandleTypeDefj10FlagStatusj>
 8003b08:	b928      	cbnz	r0, 8003b16 <HAL_I2C_ER_IRQHandler+0x8e>
 8003b0a:	2301      	movs	r3, #1
 8003b0c:	f884 3035 	strb.w	r3, [r4, #53]	; 0x35
 8003b10:	4620      	mov	r0, r4
 8003b12:	f7ff fd3b 	bl	800358c <HAL_I2C_SlaveTxCpltCallback>
 8003b16:	6823      	ldr	r3, [r4, #0]
 8003b18:	695a      	ldr	r2, [r3, #20]
 8003b1a:	6859      	ldr	r1, [r3, #4]
 8003b1c:	05c9      	lsls	r1, r1, #23
 8003b1e:	d508      	bpl.n	8003b32 <HAL_I2C_ER_IRQHandler+0xaa>
 8003b20:	0512      	lsls	r2, r2, #20
 8003b22:	d506      	bpl.n	8003b32 <HAL_I2C_ER_IRQHandler+0xaa>
 8003b24:	6ba2      	ldr	r2, [r4, #56]	; 0x38
 8003b26:	f042 0208 	orr.w	r2, r2, #8
 8003b2a:	63a2      	str	r2, [r4, #56]	; 0x38
 8003b2c:	f46f 6200 	mvn.w	r2, #2048	; 0x800
 8003b30:	615a      	str	r2, [r3, #20]
 8003b32:	6ba2      	ldr	r2, [r4, #56]	; 0x38
 8003b34:	b192      	cbz	r2, 8003b5c <HAL_I2C_ER_IRQHandler+0xd4>
 8003b36:	2201      	movs	r2, #1
 8003b38:	f884 2035 	strb.w	r2, [r4, #53]	; 0x35
 8003b3c:	681a      	ldr	r2, [r3, #0]
 8003b3e:	f422 6200 	bic.w	r2, r2, #2048	; 0x800
 8003b42:	601a      	str	r2, [r3, #0]
 8003b44:	4620      	mov	r0, r4
 8003b46:	f7ff fe55 	bl	80037f4 <HAL_I2C_ErrorCallback>
 8003b4a:	bd10      	pop	{r4, pc}
 8003b4c:	6ba2      	ldr	r2, [r4, #56]	; 0x38
 8003b4e:	f042 0204 	orr.w	r2, r2, #4
 8003b52:	63a2      	str	r2, [r4, #56]	; 0x38
 8003b54:	f46f 6280 	mvn.w	r2, #1024	; 0x400
 8003b58:	615a      	str	r2, [r3, #20]
 8003b5a:	e7dc      	b.n	8003b16 <HAL_I2C_ER_IRQHandler+0x8e>
 8003b5c:	bd10      	pop	{r4, pc}
 8003b5e:	bf00      	nop
 8003b60:	00100002 	.word	0x00100002

08003b64 <HAL_I2C_GetState>:
 8003b64:	f890 0035 	ldrb.w	r0, [r0, #53]	; 0x35
 8003b68:	4770      	bx	lr

08003b6a <HAL_I2C_GetError>:
 8003b6a:	6b80      	ldr	r0, [r0, #56]	; 0x38
 8003b6c:	4770      	bx	lr
 8003b6e:	bf00      	nop

08003b70 <HAL_MspInit>:
 8003b70:	4770      	bx	lr

08003b72 <HAL_MspDeInit>:
 8003b72:	4770      	bx	lr

08003b74 <_Z15HAL_PPP_MspInitv>:
 8003b74:	4770      	bx	lr

08003b76 <_Z17HAL_PPP_MspDeInitv>:
 8003b76:	4770      	bx	lr

08003b78 <HAL_RCC_DeInit>:
 8003b78:	4b10      	ldr	r3, [pc, #64]	; (8003bbc <HAL_RCC_DeInit+0x44>)
 8003b7a:	681a      	ldr	r2, [r3, #0]
 8003b7c:	f042 0281 	orr.w	r2, r2, #129	; 0x81
 8003b80:	601a      	str	r2, [r3, #0]
 8003b82:	2200      	movs	r2, #0
 8003b84:	609a      	str	r2, [r3, #8]
 8003b86:	6819      	ldr	r1, [r3, #0]
 8003b88:	f021 61a1 	bic.w	r1, r1, #84410368	; 0x5080000
 8003b8c:	f421 3180 	bic.w	r1, r1, #65536	; 0x10000
 8003b90:	6019      	str	r1, [r3, #0]
 8003b92:	605a      	str	r2, [r3, #4]
 8003b94:	6858      	ldr	r0, [r3, #4]
 8003b96:	490a      	ldr	r1, [pc, #40]	; (8003bc0 <HAL_RCC_DeInit+0x48>)
 8003b98:	4301      	orrs	r1, r0
 8003b9a:	6059      	str	r1, [r3, #4]
 8003b9c:	f8c3 2084 	str.w	r2, [r3, #132]	; 0x84
 8003ba0:	f8d3 1084 	ldr.w	r1, [r3, #132]	; 0x84
 8003ba4:	f041 5100 	orr.w	r1, r1, #536870912	; 0x20000000
 8003ba8:	f441 5140 	orr.w	r1, r1, #12288	; 0x3000
 8003bac:	f8c3 1084 	str.w	r1, [r3, #132]	; 0x84
 8003bb0:	6819      	ldr	r1, [r3, #0]
 8003bb2:	f421 2180 	bic.w	r1, r1, #262144	; 0x40000
 8003bb6:	6019      	str	r1, [r3, #0]
 8003bb8:	60da      	str	r2, [r3, #12]
 8003bba:	4770      	bx	lr
 8003bbc:	40023800 	.word	0x40023800
 8003bc0:	04003010 	.word	0x04003010

08003bc4 <HAL_RCC_OscConfig>:
 8003bc4:	6803      	ldr	r3, [r0, #0]
 8003bc6:	b537      	push	{r0, r1, r2, r4, r5, lr}
 8003bc8:	07dd      	lsls	r5, r3, #31
 8003bca:	4604      	mov	r4, r0
 8003bcc:	d403      	bmi.n	8003bd6 <HAL_RCC_OscConfig+0x12>
 8003bce:	6823      	ldr	r3, [r4, #0]
 8003bd0:	0798      	lsls	r0, r3, #30
 8003bd2:	d412      	bmi.n	8003bfa <HAL_RCC_OscConfig+0x36>
 8003bd4:	e02b      	b.n	8003c2e <HAL_RCC_OscConfig+0x6a>
 8003bd6:	4ba5      	ldr	r3, [pc, #660]	; (8003e6c <HAL_RCC_OscConfig+0x2a8>)
 8003bd8:	689a      	ldr	r2, [r3, #8]
 8003bda:	f002 020c 	and.w	r2, r2, #12
 8003bde:	2a04      	cmp	r2, #4
 8003be0:	f000 80e8 	beq.w	8003db4 <HAL_RCC_OscConfig+0x1f0>
 8003be4:	689a      	ldr	r2, [r3, #8]
 8003be6:	f002 020c 	and.w	r2, r2, #12
 8003bea:	2a08      	cmp	r2, #8
 8003bec:	f040 8106 	bne.w	8003dfc <HAL_RCC_OscConfig+0x238>
 8003bf0:	685b      	ldr	r3, [r3, #4]
 8003bf2:	0259      	lsls	r1, r3, #9
 8003bf4:	f100 80de 	bmi.w	8003db4 <HAL_RCC_OscConfig+0x1f0>
 8003bf8:	e100      	b.n	8003dfc <HAL_RCC_OscConfig+0x238>
 8003bfa:	4b9c      	ldr	r3, [pc, #624]	; (8003e6c <HAL_RCC_OscConfig+0x2a8>)
 8003bfc:	689a      	ldr	r2, [r3, #8]
 8003bfe:	f012 0f0c 	tst.w	r2, #12
 8003c02:	f000 813f 	beq.w	8003e84 <HAL_RCC_OscConfig+0x2c0>
 8003c06:	689a      	ldr	r2, [r3, #8]
 8003c08:	f002 020c 	and.w	r2, r2, #12
 8003c0c:	2a08      	cmp	r2, #8
 8003c0e:	f040 8141 	bne.w	8003e94 <HAL_RCC_OscConfig+0x2d0>
 8003c12:	685b      	ldr	r3, [r3, #4]
 8003c14:	0259      	lsls	r1, r3, #9
 8003c16:	f140 8135 	bpl.w	8003e84 <HAL_RCC_OscConfig+0x2c0>
 8003c1a:	e13b      	b.n	8003e94 <HAL_RCC_OscConfig+0x2d0>
 8003c1c:	6013      	str	r3, [r2, #0]
 8003c1e:	f7fc fb71 	bl	8000304 <HAL_GetTick>
 8003c22:	4605      	mov	r5, r0
 8003c24:	4b91      	ldr	r3, [pc, #580]	; (8003e6c <HAL_RCC_OscConfig+0x2a8>)
 8003c26:	681b      	ldr	r3, [r3, #0]
 8003c28:	079b      	lsls	r3, r3, #30
 8003c2a:	f100 8147 	bmi.w	8003ebc <HAL_RCC_OscConfig+0x2f8>
 8003c2e:	6823      	ldr	r3, [r4, #0]
 8003c30:	071d      	lsls	r5, r3, #28
 8003c32:	d403      	bmi.n	8003c3c <HAL_RCC_OscConfig+0x78>
 8003c34:	6823      	ldr	r3, [r4, #0]
 8003c36:	0758      	lsls	r0, r3, #29
 8003c38:	d54d      	bpl.n	8003cd6 <HAL_RCC_OscConfig+0x112>
 8003c3a:	e020      	b.n	8003c7e <HAL_RCC_OscConfig+0xba>
 8003c3c:	6962      	ldr	r2, [r4, #20]
 8003c3e:	4b8c      	ldr	r3, [pc, #560]	; (8003e70 <HAL_RCC_OscConfig+0x2ac>)
 8003c40:	b17a      	cbz	r2, 8003c62 <HAL_RCC_OscConfig+0x9e>
 8003c42:	2201      	movs	r2, #1
 8003c44:	601a      	str	r2, [r3, #0]
 8003c46:	f7fc fb5d 	bl	8000304 <HAL_GetTick>
 8003c4a:	4605      	mov	r5, r0
 8003c4c:	4b87      	ldr	r3, [pc, #540]	; (8003e6c <HAL_RCC_OscConfig+0x2a8>)
 8003c4e:	6f5b      	ldr	r3, [r3, #116]	; 0x74
 8003c50:	0799      	lsls	r1, r3, #30
 8003c52:	d4ef      	bmi.n	8003c34 <HAL_RCC_OscConfig+0x70>
 8003c54:	f7fc fb56 	bl	8000304 <HAL_GetTick>
 8003c58:	1b40      	subs	r0, r0, r5
 8003c5a:	2864      	cmp	r0, #100	; 0x64
 8003c5c:	d9f6      	bls.n	8003c4c <HAL_RCC_OscConfig+0x88>
 8003c5e:	2003      	movs	r0, #3
 8003c60:	e142      	b.n	8003ee8 <HAL_RCC_OscConfig+0x324>
 8003c62:	601a      	str	r2, [r3, #0]
 8003c64:	f7fc fb4e 	bl	8000304 <HAL_GetTick>
 8003c68:	4605      	mov	r5, r0
 8003c6a:	4b80      	ldr	r3, [pc, #512]	; (8003e6c <HAL_RCC_OscConfig+0x2a8>)
 8003c6c:	6f5b      	ldr	r3, [r3, #116]	; 0x74
 8003c6e:	079a      	lsls	r2, r3, #30
 8003c70:	d5e0      	bpl.n	8003c34 <HAL_RCC_OscConfig+0x70>
 8003c72:	f7fc fb47 	bl	8000304 <HAL_GetTick>
 8003c76:	1b40      	subs	r0, r0, r5
 8003c78:	2864      	cmp	r0, #100	; 0x64
 8003c7a:	d9f6      	bls.n	8003c6a <HAL_RCC_OscConfig+0xa6>
 8003c7c:	e7ef      	b.n	8003c5e <HAL_RCC_OscConfig+0x9a>
 8003c7e:	4b7b      	ldr	r3, [pc, #492]	; (8003e6c <HAL_RCC_OscConfig+0x2a8>)
 8003c80:	6c1a      	ldr	r2, [r3, #64]	; 0x40
 8003c82:	f042 5280 	orr.w	r2, r2, #268435456	; 0x10000000
 8003c86:	641a      	str	r2, [r3, #64]	; 0x40
 8003c88:	6c1b      	ldr	r3, [r3, #64]	; 0x40
 8003c8a:	f003 5380 	and.w	r3, r3, #268435456	; 0x10000000
 8003c8e:	9301      	str	r3, [sp, #4]
 8003c90:	9b01      	ldr	r3, [sp, #4]
 8003c92:	4b78      	ldr	r3, [pc, #480]	; (8003e74 <HAL_RCC_OscConfig+0x2b0>)
 8003c94:	681a      	ldr	r2, [r3, #0]
 8003c96:	f442 7280 	orr.w	r2, r2, #256	; 0x100
 8003c9a:	601a      	str	r2, [r3, #0]
 8003c9c:	f7fc fb32 	bl	8000304 <HAL_GetTick>
 8003ca0:	4605      	mov	r5, r0
 8003ca2:	4b74      	ldr	r3, [pc, #464]	; (8003e74 <HAL_RCC_OscConfig+0x2b0>)
 8003ca4:	681b      	ldr	r3, [r3, #0]
 8003ca6:	05db      	lsls	r3, r3, #23
 8003ca8:	d518      	bpl.n	8003cdc <HAL_RCC_OscConfig+0x118>
 8003caa:	4b73      	ldr	r3, [pc, #460]	; (8003e78 <HAL_RCC_OscConfig+0x2b4>)
 8003cac:	2200      	movs	r2, #0
 8003cae:	701a      	strb	r2, [r3, #0]
 8003cb0:	f7fc fb28 	bl	8000304 <HAL_GetTick>
 8003cb4:	4605      	mov	r5, r0
 8003cb6:	4b6d      	ldr	r3, [pc, #436]	; (8003e6c <HAL_RCC_OscConfig+0x2a8>)
 8003cb8:	6f1b      	ldr	r3, [r3, #112]	; 0x70
 8003cba:	0798      	lsls	r0, r3, #30
 8003cbc:	d414      	bmi.n	8003ce8 <HAL_RCC_OscConfig+0x124>
 8003cbe:	4b6e      	ldr	r3, [pc, #440]	; (8003e78 <HAL_RCC_OscConfig+0x2b4>)
 8003cc0:	7a22      	ldrb	r2, [r4, #8]
 8003cc2:	701a      	strb	r2, [r3, #0]
 8003cc4:	68a3      	ldr	r3, [r4, #8]
 8003cc6:	b1fb      	cbz	r3, 8003d08 <HAL_RCC_OscConfig+0x144>
 8003cc8:	f7fc fb1c 	bl	8000304 <HAL_GetTick>
 8003ccc:	4605      	mov	r5, r0
 8003cce:	4b67      	ldr	r3, [pc, #412]	; (8003e6c <HAL_RCC_OscConfig+0x2a8>)
 8003cd0:	6f1b      	ldr	r3, [r3, #112]	; 0x70
 8003cd2:	0799      	lsls	r1, r3, #30
 8003cd4:	d510      	bpl.n	8003cf8 <HAL_RCC_OscConfig+0x134>
 8003cd6:	69a3      	ldr	r3, [r4, #24]
 8003cd8:	bb2b      	cbnz	r3, 8003d26 <HAL_RCC_OscConfig+0x162>
 8003cda:	e069      	b.n	8003db0 <HAL_RCC_OscConfig+0x1ec>
 8003cdc:	f7fc fb12 	bl	8000304 <HAL_GetTick>
 8003ce0:	1b40      	subs	r0, r0, r5
 8003ce2:	2864      	cmp	r0, #100	; 0x64
 8003ce4:	d9dd      	bls.n	8003ca2 <HAL_RCC_OscConfig+0xde>
 8003ce6:	e7ba      	b.n	8003c5e <HAL_RCC_OscConfig+0x9a>
 8003ce8:	f7fc fb0c 	bl	8000304 <HAL_GetTick>
 8003cec:	f241 3388 	movw	r3, #5000	; 0x1388
 8003cf0:	1b40      	subs	r0, r0, r5
 8003cf2:	4298      	cmp	r0, r3
 8003cf4:	d9df      	bls.n	8003cb6 <HAL_RCC_OscConfig+0xf2>
 8003cf6:	e7b2      	b.n	8003c5e <HAL_RCC_OscConfig+0x9a>
 8003cf8:	f7fc fb04 	bl	8000304 <HAL_GetTick>
 8003cfc:	f241 3388 	movw	r3, #5000	; 0x1388
 8003d00:	1b40      	subs	r0, r0, r5
 8003d02:	4298      	cmp	r0, r3
 8003d04:	d9e3      	bls.n	8003cce <HAL_RCC_OscConfig+0x10a>
 8003d06:	e7aa      	b.n	8003c5e <HAL_RCC_OscConfig+0x9a>
 8003d08:	f7fc fafc 	bl	8000304 <HAL_GetTick>
 8003d0c:	4605      	mov	r5, r0
 8003d0e:	4b57      	ldr	r3, [pc, #348]	; (8003e6c <HAL_RCC_OscConfig+0x2a8>)
 8003d10:	6f1b      	ldr	r3, [r3, #112]	; 0x70
 8003d12:	079a      	lsls	r2, r3, #30
 8003d14:	d5df      	bpl.n	8003cd6 <HAL_RCC_OscConfig+0x112>
 8003d16:	f7fc faf5 	bl	8000304 <HAL_GetTick>
 8003d1a:	f241 3388 	movw	r3, #5000	; 0x1388
 8003d1e:	1b40      	subs	r0, r0, r5
 8003d20:	4298      	cmp	r0, r3
 8003d22:	d9f4      	bls.n	8003d0e <HAL_RCC_OscConfig+0x14a>
 8003d24:	e79b      	b.n	8003c5e <HAL_RCC_OscConfig+0x9a>
 8003d26:	4a51      	ldr	r2, [pc, #324]	; (8003e6c <HAL_RCC_OscConfig+0x2a8>)
 8003d28:	6892      	ldr	r2, [r2, #8]
 8003d2a:	f002 020c 	and.w	r2, r2, #12
 8003d2e:	2a08      	cmp	r2, #8
 8003d30:	d049      	beq.n	8003dc6 <HAL_RCC_OscConfig+0x202>
 8003d32:	2b02      	cmp	r3, #2
 8003d34:	4b51      	ldr	r3, [pc, #324]	; (8003e7c <HAL_RCC_OscConfig+0x2b8>)
 8003d36:	f04f 0200 	mov.w	r2, #0
 8003d3a:	601a      	str	r2, [r3, #0]
 8003d3c:	d151      	bne.n	8003de2 <HAL_RCC_OscConfig+0x21e>
 8003d3e:	f7fc fae1 	bl	8000304 <HAL_GetTick>
 8003d42:	4605      	mov	r5, r0
 8003d44:	4b49      	ldr	r3, [pc, #292]	; (8003e6c <HAL_RCC_OscConfig+0x2a8>)
 8003d46:	681b      	ldr	r3, [r3, #0]
 8003d48:	019b      	lsls	r3, r3, #6
 8003d4a:	d43e      	bmi.n	8003dca <HAL_RCC_OscConfig+0x206>
 8003d4c:	f647 73c0 	movw	r3, #32704	; 0x7fc0
 8003d50:	fa93 f3a3 	rbit	r3, r3
 8003d54:	fab3 f383 	clz	r3, r3
 8003d58:	f44f 3540 	mov.w	r5, #196608	; 0x30000
 8003d5c:	fa95 f5a5 	rbit	r5, r5
 8003d60:	fab5 f585 	clz	r5, r5
 8003d64:	f04f 6070 	mov.w	r0, #251658240	; 0xf000000
 8003d68:	fa90 f0a0 	rbit	r0, r0
 8003d6c:	fab0 f080 	clz	r0, r0
 8003d70:	6a21      	ldr	r1, [r4, #32]
 8003d72:	69e2      	ldr	r2, [r4, #28]
 8003d74:	430a      	orrs	r2, r1
 8003d76:	b2d9      	uxtb	r1, r3
 8003d78:	6a63      	ldr	r3, [r4, #36]	; 0x24
 8003d7a:	408b      	lsls	r3, r1
 8003d7c:	431a      	orrs	r2, r3
 8003d7e:	6aa3      	ldr	r3, [r4, #40]	; 0x28
 8003d80:	085b      	lsrs	r3, r3, #1
 8003d82:	3b01      	subs	r3, #1
 8003d84:	b2ed      	uxtb	r5, r5
 8003d86:	fa03 f505 	lsl.w	r5, r3, r5
 8003d8a:	ea42 0305 	orr.w	r3, r2, r5
 8003d8e:	6ae2      	ldr	r2, [r4, #44]	; 0x2c
 8003d90:	b2c0      	uxtb	r0, r0
 8003d92:	fa02 f000 	lsl.w	r0, r2, r0
 8003d96:	4303      	orrs	r3, r0
 8003d98:	4834      	ldr	r0, [pc, #208]	; (8003e6c <HAL_RCC_OscConfig+0x2a8>)
 8003d9a:	6043      	str	r3, [r0, #4]
 8003d9c:	4b37      	ldr	r3, [pc, #220]	; (8003e7c <HAL_RCC_OscConfig+0x2b8>)
 8003d9e:	2201      	movs	r2, #1
 8003da0:	601a      	str	r2, [r3, #0]
 8003da2:	f7fc faaf 	bl	8000304 <HAL_GetTick>
 8003da6:	4604      	mov	r4, r0
 8003da8:	4b30      	ldr	r3, [pc, #192]	; (8003e6c <HAL_RCC_OscConfig+0x2a8>)
 8003daa:	681b      	ldr	r3, [r3, #0]
 8003dac:	019d      	lsls	r5, r3, #6
 8003dae:	d512      	bpl.n	8003dd6 <HAL_RCC_OscConfig+0x212>
 8003db0:	2000      	movs	r0, #0
 8003db2:	e099      	b.n	8003ee8 <HAL_RCC_OscConfig+0x324>
 8003db4:	4b2d      	ldr	r3, [pc, #180]	; (8003e6c <HAL_RCC_OscConfig+0x2a8>)
 8003db6:	681b      	ldr	r3, [r3, #0]
 8003db8:	0399      	lsls	r1, r3, #14
 8003dba:	f57f af08 	bpl.w	8003bce <HAL_RCC_OscConfig+0xa>
 8003dbe:	6863      	ldr	r3, [r4, #4]
 8003dc0:	2b00      	cmp	r3, #0
 8003dc2:	f47f af04 	bne.w	8003bce <HAL_RCC_OscConfig+0xa>
 8003dc6:	2001      	movs	r0, #1
 8003dc8:	e08e      	b.n	8003ee8 <HAL_RCC_OscConfig+0x324>
 8003dca:	f7fc fa9b 	bl	8000304 <HAL_GetTick>
 8003dce:	1b40      	subs	r0, r0, r5
 8003dd0:	2864      	cmp	r0, #100	; 0x64
 8003dd2:	d9b7      	bls.n	8003d44 <HAL_RCC_OscConfig+0x180>
 8003dd4:	e743      	b.n	8003c5e <HAL_RCC_OscConfig+0x9a>
 8003dd6:	f7fc fa95 	bl	8000304 <HAL_GetTick>
 8003dda:	1b00      	subs	r0, r0, r4
 8003ddc:	2864      	cmp	r0, #100	; 0x64
 8003dde:	d9e3      	bls.n	8003da8 <HAL_RCC_OscConfig+0x1e4>
 8003de0:	e73d      	b.n	8003c5e <HAL_RCC_OscConfig+0x9a>
 8003de2:	f7fc fa8f 	bl	8000304 <HAL_GetTick>
 8003de6:	4604      	mov	r4, r0
 8003de8:	4b20      	ldr	r3, [pc, #128]	; (8003e6c <HAL_RCC_OscConfig+0x2a8>)
 8003dea:	681b      	ldr	r3, [r3, #0]
 8003dec:	0198      	lsls	r0, r3, #6
 8003dee:	d5df      	bpl.n	8003db0 <HAL_RCC_OscConfig+0x1ec>
 8003df0:	f7fc fa88 	bl	8000304 <HAL_GetTick>
 8003df4:	1b00      	subs	r0, r0, r4
 8003df6:	2864      	cmp	r0, #100	; 0x64
 8003df8:	d9f6      	bls.n	8003de8 <HAL_RCC_OscConfig+0x224>
 8003dfa:	e730      	b.n	8003c5e <HAL_RCC_OscConfig+0x9a>
 8003dfc:	4b20      	ldr	r3, [pc, #128]	; (8003e80 <HAL_RCC_OscConfig+0x2bc>)
 8003dfe:	2200      	movs	r2, #0
 8003e00:	701a      	strb	r2, [r3, #0]
 8003e02:	f7fc fa7f 	bl	8000304 <HAL_GetTick>
 8003e06:	4605      	mov	r5, r0
 8003e08:	4b18      	ldr	r3, [pc, #96]	; (8003e6c <HAL_RCC_OscConfig+0x2a8>)
 8003e0a:	681b      	ldr	r3, [r3, #0]
 8003e0c:	039a      	lsls	r2, r3, #14
 8003e0e:	d507      	bpl.n	8003e20 <HAL_RCC_OscConfig+0x25c>
 8003e10:	f7fc fa78 	bl	8000304 <HAL_GetTick>
 8003e14:	f241 3388 	movw	r3, #5000	; 0x1388
 8003e18:	1b40      	subs	r0, r0, r5
 8003e1a:	4298      	cmp	r0, r3
 8003e1c:	d9f4      	bls.n	8003e08 <HAL_RCC_OscConfig+0x244>
 8003e1e:	e71e      	b.n	8003c5e <HAL_RCC_OscConfig+0x9a>
 8003e20:	4b17      	ldr	r3, [pc, #92]	; (8003e80 <HAL_RCC_OscConfig+0x2bc>)
 8003e22:	7922      	ldrb	r2, [r4, #4]
 8003e24:	701a      	strb	r2, [r3, #0]
 8003e26:	6863      	ldr	r3, [r4, #4]
 8003e28:	b17b      	cbz	r3, 8003e4a <HAL_RCC_OscConfig+0x286>
 8003e2a:	f7fc fa6b 	bl	8000304 <HAL_GetTick>
 8003e2e:	4605      	mov	r5, r0
 8003e30:	4b0e      	ldr	r3, [pc, #56]	; (8003e6c <HAL_RCC_OscConfig+0x2a8>)
 8003e32:	681b      	ldr	r3, [r3, #0]
 8003e34:	039b      	lsls	r3, r3, #14
 8003e36:	f53f aeca 	bmi.w	8003bce <HAL_RCC_OscConfig+0xa>
 8003e3a:	f7fc fa63 	bl	8000304 <HAL_GetTick>
 8003e3e:	f241 3388 	movw	r3, #5000	; 0x1388
 8003e42:	1b40      	subs	r0, r0, r5
 8003e44:	4298      	cmp	r0, r3
 8003e46:	d9f3      	bls.n	8003e30 <HAL_RCC_OscConfig+0x26c>
 8003e48:	e709      	b.n	8003c5e <HAL_RCC_OscConfig+0x9a>
 8003e4a:	f7fc fa5b 	bl	8000304 <HAL_GetTick>
 8003e4e:	4605      	mov	r5, r0
 8003e50:	4b06      	ldr	r3, [pc, #24]	; (8003e6c <HAL_RCC_OscConfig+0x2a8>)
 8003e52:	681b      	ldr	r3, [r3, #0]
 8003e54:	0398      	lsls	r0, r3, #14
 8003e56:	f57f aeba 	bpl.w	8003bce <HAL_RCC_OscConfig+0xa>
 8003e5a:	f7fc fa53 	bl	8000304 <HAL_GetTick>
 8003e5e:	f241 3388 	movw	r3, #5000	; 0x1388
 8003e62:	1b40      	subs	r0, r0, r5
 8003e64:	4298      	cmp	r0, r3
 8003e66:	d9f3      	bls.n	8003e50 <HAL_RCC_OscConfig+0x28c>
 8003e68:	e6f9      	b.n	8003c5e <HAL_RCC_OscConfig+0x9a>
 8003e6a:	bf00      	nop
 8003e6c:	40023800 	.word	0x40023800
 8003e70:	42470e80 	.word	0x42470e80
 8003e74:	40007000 	.word	0x40007000
 8003e78:	40023870 	.word	0x40023870
 8003e7c:	42470060 	.word	0x42470060
 8003e80:	40023802 	.word	0x40023802
 8003e84:	4b19      	ldr	r3, [pc, #100]	; (8003eec <HAL_RCC_OscConfig+0x328>)
 8003e86:	681a      	ldr	r2, [r3, #0]
 8003e88:	0792      	lsls	r2, r2, #30
 8003e8a:	d51e      	bpl.n	8003eca <HAL_RCC_OscConfig+0x306>
 8003e8c:	68e2      	ldr	r2, [r4, #12]
 8003e8e:	2a01      	cmp	r2, #1
 8003e90:	d199      	bne.n	8003dc6 <HAL_RCC_OscConfig+0x202>
 8003e92:	e01a      	b.n	8003eca <HAL_RCC_OscConfig+0x306>
 8003e94:	68e3      	ldr	r3, [r4, #12]
 8003e96:	4a16      	ldr	r2, [pc, #88]	; (8003ef0 <HAL_RCC_OscConfig+0x32c>)
 8003e98:	2b00      	cmp	r3, #0
 8003e9a:	f43f aebf 	beq.w	8003c1c <HAL_RCC_OscConfig+0x58>
 8003e9e:	2301      	movs	r3, #1
 8003ea0:	6013      	str	r3, [r2, #0]
 8003ea2:	f7fc fa2f 	bl	8000304 <HAL_GetTick>
 8003ea6:	4605      	mov	r5, r0
 8003ea8:	4b10      	ldr	r3, [pc, #64]	; (8003eec <HAL_RCC_OscConfig+0x328>)
 8003eaa:	681a      	ldr	r2, [r3, #0]
 8003eac:	0792      	lsls	r2, r2, #30
 8003eae:	d40c      	bmi.n	8003eca <HAL_RCC_OscConfig+0x306>
 8003eb0:	f7fc fa28 	bl	8000304 <HAL_GetTick>
 8003eb4:	1b40      	subs	r0, r0, r5
 8003eb6:	2864      	cmp	r0, #100	; 0x64
 8003eb8:	d9f6      	bls.n	8003ea8 <HAL_RCC_OscConfig+0x2e4>
 8003eba:	e6d0      	b.n	8003c5e <HAL_RCC_OscConfig+0x9a>
 8003ebc:	f7fc fa22 	bl	8000304 <HAL_GetTick>
 8003ec0:	1b40      	subs	r0, r0, r5
 8003ec2:	2864      	cmp	r0, #100	; 0x64
 8003ec4:	f67f aeae 	bls.w	8003c24 <HAL_RCC_OscConfig+0x60>
 8003ec8:	e6c9      	b.n	8003c5e <HAL_RCC_OscConfig+0x9a>
 8003eca:	681a      	ldr	r2, [r3, #0]
 8003ecc:	21f8      	movs	r1, #248	; 0xf8
 8003ece:	fa91 f1a1 	rbit	r1, r1
 8003ed2:	fab1 f181 	clz	r1, r1
 8003ed6:	6923      	ldr	r3, [r4, #16]
 8003ed8:	b2c9      	uxtb	r1, r1
 8003eda:	f022 02f8 	bic.w	r2, r2, #248	; 0xf8
 8003ede:	408b      	lsls	r3, r1
 8003ee0:	4313      	orrs	r3, r2
 8003ee2:	4a02      	ldr	r2, [pc, #8]	; (8003eec <HAL_RCC_OscConfig+0x328>)
 8003ee4:	6013      	str	r3, [r2, #0]
 8003ee6:	e6a2      	b.n	8003c2e <HAL_RCC_OscConfig+0x6a>
 8003ee8:	b003      	add	sp, #12
 8003eea:	bd30      	pop	{r4, r5, pc}
 8003eec:	40023800 	.word	0x40023800
 8003ef0:	42470000 	.word	0x42470000

08003ef4 <HAL_RCC_ClockConfig>:
 8003ef4:	4b7e      	ldr	r3, [pc, #504]	; (80040f0 <HAL_RCC_ClockConfig+0x1fc>)
 8003ef6:	681a      	ldr	r2, [r3, #0]
 8003ef8:	f002 020f 	and.w	r2, r2, #15
 8003efc:	4291      	cmp	r1, r2
 8003efe:	b570      	push	{r4, r5, r6, lr}
 8003f00:	4604      	mov	r4, r0
 8003f02:	460d      	mov	r5, r1
 8003f04:	d977      	bls.n	8003ff6 <HAL_RCC_ClockConfig+0x102>
 8003f06:	b2ca      	uxtb	r2, r1
 8003f08:	701a      	strb	r2, [r3, #0]
 8003f0a:	681b      	ldr	r3, [r3, #0]
 8003f0c:	f003 030f 	and.w	r3, r3, #15
 8003f10:	428b      	cmp	r3, r1
 8003f12:	d001      	beq.n	8003f18 <HAL_RCC_ClockConfig+0x24>
 8003f14:	2001      	movs	r0, #1
 8003f16:	bd70      	pop	{r4, r5, r6, pc}
 8003f18:	6803      	ldr	r3, [r0, #0]
 8003f1a:	079d      	lsls	r5, r3, #30
 8003f1c:	d506      	bpl.n	8003f2c <HAL_RCC_ClockConfig+0x38>
 8003f1e:	4a75      	ldr	r2, [pc, #468]	; (80040f4 <HAL_RCC_ClockConfig+0x200>)
 8003f20:	68a1      	ldr	r1, [r4, #8]
 8003f22:	6890      	ldr	r0, [r2, #8]
 8003f24:	f020 00f0 	bic.w	r0, r0, #240	; 0xf0
 8003f28:	4301      	orrs	r1, r0
 8003f2a:	6091      	str	r1, [r2, #8]
 8003f2c:	07d8      	lsls	r0, r3, #31
 8003f2e:	d40b      	bmi.n	8003f48 <HAL_RCC_ClockConfig+0x54>
 8003f30:	6823      	ldr	r3, [r4, #0]
 8003f32:	0759      	lsls	r1, r3, #29
 8003f34:	f140 80cc 	bpl.w	80040d0 <HAL_RCC_ClockConfig+0x1dc>
 8003f38:	4a6e      	ldr	r2, [pc, #440]	; (80040f4 <HAL_RCC_ClockConfig+0x200>)
 8003f3a:	68e1      	ldr	r1, [r4, #12]
 8003f3c:	6890      	ldr	r0, [r2, #8]
 8003f3e:	f420 50e0 	bic.w	r0, r0, #7168	; 0x1c00
 8003f42:	4301      	orrs	r1, r0
 8003f44:	6091      	str	r1, [r2, #8]
 8003f46:	e0c3      	b.n	80040d0 <HAL_RCC_ClockConfig+0x1dc>
 8003f48:	6863      	ldr	r3, [r4, #4]
 8003f4a:	4a6a      	ldr	r2, [pc, #424]	; (80040f4 <HAL_RCC_ClockConfig+0x200>)
 8003f4c:	2b01      	cmp	r3, #1
 8003f4e:	d103      	bne.n	8003f58 <HAL_RCC_ClockConfig+0x64>
 8003f50:	6812      	ldr	r2, [r2, #0]
 8003f52:	f412 3f00 	tst.w	r2, #131072	; 0x20000
 8003f56:	e008      	b.n	8003f6a <HAL_RCC_ClockConfig+0x76>
 8003f58:	1e99      	subs	r1, r3, #2
 8003f5a:	2901      	cmp	r1, #1
 8003f5c:	6812      	ldr	r2, [r2, #0]
 8003f5e:	d802      	bhi.n	8003f66 <HAL_RCC_ClockConfig+0x72>
 8003f60:	f012 7f00 	tst.w	r2, #33554432	; 0x2000000
 8003f64:	e001      	b.n	8003f6a <HAL_RCC_ClockConfig+0x76>
 8003f66:	f012 0f02 	tst.w	r2, #2
 8003f6a:	d0d3      	beq.n	8003f14 <HAL_RCC_ClockConfig+0x20>
 8003f6c:	4a61      	ldr	r2, [pc, #388]	; (80040f4 <HAL_RCC_ClockConfig+0x200>)
 8003f6e:	6891      	ldr	r1, [r2, #8]
 8003f70:	f021 0103 	bic.w	r1, r1, #3
 8003f74:	430b      	orrs	r3, r1
 8003f76:	6093      	str	r3, [r2, #8]
 8003f78:	f7fc f9c4 	bl	8000304 <HAL_GetTick>
 8003f7c:	6863      	ldr	r3, [r4, #4]
 8003f7e:	2b01      	cmp	r3, #1
 8003f80:	4605      	mov	r5, r0
 8003f82:	d10e      	bne.n	8003fa2 <HAL_RCC_ClockConfig+0xae>
 8003f84:	4b5b      	ldr	r3, [pc, #364]	; (80040f4 <HAL_RCC_ClockConfig+0x200>)
 8003f86:	689b      	ldr	r3, [r3, #8]
 8003f88:	f003 030c 	and.w	r3, r3, #12
 8003f8c:	2b04      	cmp	r3, #4
 8003f8e:	d0cf      	beq.n	8003f30 <HAL_RCC_ClockConfig+0x3c>
 8003f90:	f7fc f9b8 	bl	8000304 <HAL_GetTick>
 8003f94:	f241 3388 	movw	r3, #5000	; 0x1388
 8003f98:	1b40      	subs	r0, r0, r5
 8003f9a:	4298      	cmp	r0, r3
 8003f9c:	d9f2      	bls.n	8003f84 <HAL_RCC_ClockConfig+0x90>
 8003f9e:	2003      	movs	r0, #3
 8003fa0:	bd70      	pop	{r4, r5, r6, pc}
 8003fa2:	2b02      	cmp	r3, #2
 8003fa4:	d10d      	bne.n	8003fc2 <HAL_RCC_ClockConfig+0xce>
 8003fa6:	4b53      	ldr	r3, [pc, #332]	; (80040f4 <HAL_RCC_ClockConfig+0x200>)
 8003fa8:	689b      	ldr	r3, [r3, #8]
 8003faa:	f003 030c 	and.w	r3, r3, #12
 8003fae:	2b08      	cmp	r3, #8
 8003fb0:	d0be      	beq.n	8003f30 <HAL_RCC_ClockConfig+0x3c>
 8003fb2:	f7fc f9a7 	bl	8000304 <HAL_GetTick>
 8003fb6:	f241 3388 	movw	r3, #5000	; 0x1388
 8003fba:	1b40      	subs	r0, r0, r5
 8003fbc:	4298      	cmp	r0, r3
 8003fbe:	d9f2      	bls.n	8003fa6 <HAL_RCC_ClockConfig+0xb2>
 8003fc0:	e7ed      	b.n	8003f9e <HAL_RCC_ClockConfig+0xaa>
 8003fc2:	2b03      	cmp	r3, #3
 8003fc4:	d005      	beq.n	8003fd2 <HAL_RCC_ClockConfig+0xde>
 8003fc6:	4b4b      	ldr	r3, [pc, #300]	; (80040f4 <HAL_RCC_ClockConfig+0x200>)
 8003fc8:	689b      	ldr	r3, [r3, #8]
 8003fca:	f013 0f0c 	tst.w	r3, #12
 8003fce:	d10a      	bne.n	8003fe6 <HAL_RCC_ClockConfig+0xf2>
 8003fd0:	e7ae      	b.n	8003f30 <HAL_RCC_ClockConfig+0x3c>
 8003fd2:	4b48      	ldr	r3, [pc, #288]	; (80040f4 <HAL_RCC_ClockConfig+0x200>)
 8003fd4:	689b      	ldr	r3, [r3, #8]
 8003fd6:	f7fc f995 	bl	8000304 <HAL_GetTick>
 8003fda:	f241 3388 	movw	r3, #5000	; 0x1388
 8003fde:	1b40      	subs	r0, r0, r5
 8003fe0:	4298      	cmp	r0, r3
 8003fe2:	d9f6      	bls.n	8003fd2 <HAL_RCC_ClockConfig+0xde>
 8003fe4:	e7db      	b.n	8003f9e <HAL_RCC_ClockConfig+0xaa>
 8003fe6:	f7fc f98d 	bl	8000304 <HAL_GetTick>
 8003fea:	f241 3388 	movw	r3, #5000	; 0x1388
 8003fee:	1b40      	subs	r0, r0, r5
 8003ff0:	4298      	cmp	r0, r3
 8003ff2:	d9e8      	bls.n	8003fc6 <HAL_RCC_ClockConfig+0xd2>
 8003ff4:	e7d3      	b.n	8003f9e <HAL_RCC_ClockConfig+0xaa>
 8003ff6:	6803      	ldr	r3, [r0, #0]
 8003ff8:	079a      	lsls	r2, r3, #30
 8003ffa:	d506      	bpl.n	800400a <HAL_RCC_ClockConfig+0x116>
 8003ffc:	4a3d      	ldr	r2, [pc, #244]	; (80040f4 <HAL_RCC_ClockConfig+0x200>)
 8003ffe:	68a1      	ldr	r1, [r4, #8]
 8004000:	6890      	ldr	r0, [r2, #8]
 8004002:	f020 00f0 	bic.w	r0, r0, #240	; 0xf0
 8004006:	4301      	orrs	r1, r0
 8004008:	6091      	str	r1, [r2, #8]
 800400a:	07db      	lsls	r3, r3, #31
 800400c:	d409      	bmi.n	8004022 <HAL_RCC_ClockConfig+0x12e>
 800400e:	4b38      	ldr	r3, [pc, #224]	; (80040f0 <HAL_RCC_ClockConfig+0x1fc>)
 8004010:	b2ea      	uxtb	r2, r5
 8004012:	701a      	strb	r2, [r3, #0]
 8004014:	681b      	ldr	r3, [r3, #0]
 8004016:	f003 030f 	and.w	r3, r3, #15
 800401a:	42ab      	cmp	r3, r5
 800401c:	f47f af7a 	bne.w	8003f14 <HAL_RCC_ClockConfig+0x20>
 8004020:	e786      	b.n	8003f30 <HAL_RCC_ClockConfig+0x3c>
 8004022:	6863      	ldr	r3, [r4, #4]
 8004024:	4a33      	ldr	r2, [pc, #204]	; (80040f4 <HAL_RCC_ClockConfig+0x200>)
 8004026:	2b01      	cmp	r3, #1
 8004028:	d103      	bne.n	8004032 <HAL_RCC_ClockConfig+0x13e>
 800402a:	6812      	ldr	r2, [r2, #0]
 800402c:	f412 3f00 	tst.w	r2, #131072	; 0x20000
 8004030:	e008      	b.n	8004044 <HAL_RCC_ClockConfig+0x150>
 8004032:	1e99      	subs	r1, r3, #2
 8004034:	2901      	cmp	r1, #1
 8004036:	6812      	ldr	r2, [r2, #0]
 8004038:	d802      	bhi.n	8004040 <HAL_RCC_ClockConfig+0x14c>
 800403a:	f012 7f00 	tst.w	r2, #33554432	; 0x2000000
 800403e:	e001      	b.n	8004044 <HAL_RCC_ClockConfig+0x150>
 8004040:	f012 0f02 	tst.w	r2, #2
 8004044:	f43f af66 	beq.w	8003f14 <HAL_RCC_ClockConfig+0x20>
 8004048:	4a2a      	ldr	r2, [pc, #168]	; (80040f4 <HAL_RCC_ClockConfig+0x200>)
 800404a:	6891      	ldr	r1, [r2, #8]
 800404c:	f021 0103 	bic.w	r1, r1, #3
 8004050:	430b      	orrs	r3, r1
 8004052:	6093      	str	r3, [r2, #8]
 8004054:	f7fc f956 	bl	8000304 <HAL_GetTick>
 8004058:	6863      	ldr	r3, [r4, #4]
 800405a:	2b01      	cmp	r3, #1
 800405c:	4606      	mov	r6, r0
 800405e:	d10d      	bne.n	800407c <HAL_RCC_ClockConfig+0x188>
 8004060:	4b24      	ldr	r3, [pc, #144]	; (80040f4 <HAL_RCC_ClockConfig+0x200>)
 8004062:	689b      	ldr	r3, [r3, #8]
 8004064:	f003 030c 	and.w	r3, r3, #12
 8004068:	2b04      	cmp	r3, #4
 800406a:	d0d0      	beq.n	800400e <HAL_RCC_ClockConfig+0x11a>
 800406c:	f7fc f94a 	bl	8000304 <HAL_GetTick>
 8004070:	f241 3388 	movw	r3, #5000	; 0x1388
 8004074:	1b80      	subs	r0, r0, r6
 8004076:	4298      	cmp	r0, r3
 8004078:	d9f2      	bls.n	8004060 <HAL_RCC_ClockConfig+0x16c>
 800407a:	e790      	b.n	8003f9e <HAL_RCC_ClockConfig+0xaa>
 800407c:	2b02      	cmp	r3, #2
 800407e:	d10d      	bne.n	800409c <HAL_RCC_ClockConfig+0x1a8>
 8004080:	4b1c      	ldr	r3, [pc, #112]	; (80040f4 <HAL_RCC_ClockConfig+0x200>)
 8004082:	689b      	ldr	r3, [r3, #8]
 8004084:	f003 030c 	and.w	r3, r3, #12
 8004088:	2b08      	cmp	r3, #8
 800408a:	d0c0      	beq.n	800400e <HAL_RCC_ClockConfig+0x11a>
 800408c:	f7fc f93a 	bl	8000304 <HAL_GetTick>
 8004090:	f241 3388 	movw	r3, #5000	; 0x1388
 8004094:	1b80      	subs	r0, r0, r6
 8004096:	4298      	cmp	r0, r3
 8004098:	d9f2      	bls.n	8004080 <HAL_RCC_ClockConfig+0x18c>
 800409a:	e780      	b.n	8003f9e <HAL_RCC_ClockConfig+0xaa>
 800409c:	2b03      	cmp	r3, #3
 800409e:	d005      	beq.n	80040ac <HAL_RCC_ClockConfig+0x1b8>
 80040a0:	4b14      	ldr	r3, [pc, #80]	; (80040f4 <HAL_RCC_ClockConfig+0x200>)
 80040a2:	689b      	ldr	r3, [r3, #8]
 80040a4:	f013 0f0c 	tst.w	r3, #12
 80040a8:	d10a      	bne.n	80040c0 <HAL_RCC_ClockConfig+0x1cc>
 80040aa:	e7b0      	b.n	800400e <HAL_RCC_ClockConfig+0x11a>
 80040ac:	4b11      	ldr	r3, [pc, #68]	; (80040f4 <HAL_RCC_ClockConfig+0x200>)
 80040ae:	689b      	ldr	r3, [r3, #8]
 80040b0:	f7fc f928 	bl	8000304 <HAL_GetTick>
 80040b4:	f241 3388 	movw	r3, #5000	; 0x1388
 80040b8:	1b80      	subs	r0, r0, r6
 80040ba:	4298      	cmp	r0, r3
 80040bc:	d9f6      	bls.n	80040ac <HAL_RCC_ClockConfig+0x1b8>
 80040be:	e76e      	b.n	8003f9e <HAL_RCC_ClockConfig+0xaa>
 80040c0:	f7fc f920 	bl	8000304 <HAL_GetTick>
 80040c4:	f241 3388 	movw	r3, #5000	; 0x1388
 80040c8:	1b80      	subs	r0, r0, r6
 80040ca:	4298      	cmp	r0, r3
 80040cc:	d9e8      	bls.n	80040a0 <HAL_RCC_ClockConfig+0x1ac>
 80040ce:	e766      	b.n	8003f9e <HAL_RCC_ClockConfig+0xaa>
 80040d0:	071e      	lsls	r6, r3, #28
 80040d2:	d507      	bpl.n	80040e4 <HAL_RCC_ClockConfig+0x1f0>
 80040d4:	4b07      	ldr	r3, [pc, #28]	; (80040f4 <HAL_RCC_ClockConfig+0x200>)
 80040d6:	6921      	ldr	r1, [r4, #16]
 80040d8:	689a      	ldr	r2, [r3, #8]
 80040da:	f422 4260 	bic.w	r2, r2, #57344	; 0xe000
 80040de:	ea42 02c1 	orr.w	r2, r2, r1, lsl #3
 80040e2:	609a      	str	r2, [r3, #8]
 80040e4:	200f      	movs	r0, #15
 80040e6:	f7fc f8dd 	bl	80002a4 <HAL_InitTick>
 80040ea:	2000      	movs	r0, #0
 80040ec:	bd70      	pop	{r4, r5, r6, pc}
 80040ee:	bf00      	nop
 80040f0:	40023c00 	.word	0x40023c00
 80040f4:	40023800 	.word	0x40023800

080040f8 <HAL_RCC_MCOConfig>:
 80040f8:	b570      	push	{r4, r5, r6, lr}
 80040fa:	4c20      	ldr	r4, [pc, #128]	; (800417c <HAL_RCC_MCOConfig+0x84>)
 80040fc:	b088      	sub	sp, #32
 80040fe:	460d      	mov	r5, r1
 8004100:	4616      	mov	r6, r2
 8004102:	6b23      	ldr	r3, [r4, #48]	; 0x30
 8004104:	b9d0      	cbnz	r0, 800413c <HAL_RCC_MCOConfig+0x44>
 8004106:	f043 0301 	orr.w	r3, r3, #1
 800410a:	6323      	str	r3, [r4, #48]	; 0x30
 800410c:	6b23      	ldr	r3, [r4, #48]	; 0x30
 800410e:	9005      	str	r0, [sp, #20]
 8004110:	f003 0301 	and.w	r3, r3, #1
 8004114:	9301      	str	r3, [sp, #4]
 8004116:	9b01      	ldr	r3, [sp, #4]
 8004118:	9007      	str	r0, [sp, #28]
 800411a:	f44f 7380 	mov.w	r3, #256	; 0x100
 800411e:	9303      	str	r3, [sp, #12]
 8004120:	2302      	movs	r3, #2
 8004122:	9304      	str	r3, [sp, #16]
 8004124:	4816      	ldr	r0, [pc, #88]	; (8004180 <HAL_RCC_MCOConfig+0x88>)
 8004126:	2303      	movs	r3, #3
 8004128:	a903      	add	r1, sp, #12
 800412a:	9306      	str	r3, [sp, #24]
 800412c:	f7fd fe64 	bl	8001df8 <HAL_GPIO_Init>
 8004130:	68a3      	ldr	r3, [r4, #8]
 8004132:	f023 63ec 	bic.w	r3, r3, #123731968	; 0x7600000
 8004136:	431e      	orrs	r6, r3
 8004138:	4335      	orrs	r5, r6
 800413a:	e01b      	b.n	8004174 <HAL_RCC_MCOConfig+0x7c>
 800413c:	f043 0304 	orr.w	r3, r3, #4
 8004140:	6323      	str	r3, [r4, #48]	; 0x30
 8004142:	6b23      	ldr	r3, [r4, #48]	; 0x30
 8004144:	480f      	ldr	r0, [pc, #60]	; (8004184 <HAL_RCC_MCOConfig+0x8c>)
 8004146:	f003 0304 	and.w	r3, r3, #4
 800414a:	9302      	str	r3, [sp, #8]
 800414c:	9b02      	ldr	r3, [sp, #8]
 800414e:	f44f 7300 	mov.w	r3, #512	; 0x200
 8004152:	9303      	str	r3, [sp, #12]
 8004154:	2302      	movs	r3, #2
 8004156:	9304      	str	r3, [sp, #16]
 8004158:	2303      	movs	r3, #3
 800415a:	9306      	str	r3, [sp, #24]
 800415c:	a903      	add	r1, sp, #12
 800415e:	2300      	movs	r3, #0
 8004160:	9305      	str	r3, [sp, #20]
 8004162:	9307      	str	r3, [sp, #28]
 8004164:	f7fd fe48 	bl	8001df8 <HAL_GPIO_Init>
 8004168:	68a3      	ldr	r3, [r4, #8]
 800416a:	ea45 05c6 	orr.w	r5, r5, r6, lsl #3
 800416e:	f023 4378 	bic.w	r3, r3, #4160749568	; 0xf8000000
 8004172:	431d      	orrs	r5, r3
 8004174:	60a5      	str	r5, [r4, #8]
 8004176:	b008      	add	sp, #32
 8004178:	bd70      	pop	{r4, r5, r6, pc}
 800417a:	bf00      	nop
 800417c:	40023800 	.word	0x40023800
 8004180:	40020000 	.word	0x40020000
 8004184:	40020800 	.word	0x40020800

08004188 <HAL_RCC_EnableCSS>:
 8004188:	4b01      	ldr	r3, [pc, #4]	; (8004190 <HAL_RCC_EnableCSS+0x8>)
 800418a:	2201      	movs	r2, #1
 800418c:	601a      	str	r2, [r3, #0]
 800418e:	4770      	bx	lr
 8004190:	4247004c 	.word	0x4247004c

08004194 <HAL_RCC_DisableCSS>:
 8004194:	4b01      	ldr	r3, [pc, #4]	; (800419c <HAL_RCC_DisableCSS+0x8>)
 8004196:	2200      	movs	r2, #0
 8004198:	601a      	str	r2, [r3, #0]
 800419a:	4770      	bx	lr
 800419c:	4247004c 	.word	0x4247004c

080041a0 <HAL_RCC_GetSysClockFreq>:
 80041a0:	4b1f      	ldr	r3, [pc, #124]	; (8004220 <HAL_RCC_GetSysClockFreq+0x80>)
 80041a2:	689a      	ldr	r2, [r3, #8]
 80041a4:	f002 020c 	and.w	r2, r2, #12
 80041a8:	2a04      	cmp	r2, #4
 80041aa:	d037      	beq.n	800421c <HAL_RCC_GetSysClockFreq+0x7c>
 80041ac:	2a08      	cmp	r2, #8
 80041ae:	d001      	beq.n	80041b4 <HAL_RCC_GetSysClockFreq+0x14>
 80041b0:	481c      	ldr	r0, [pc, #112]	; (8004224 <HAL_RCC_GetSysClockFreq+0x84>)
 80041b2:	4770      	bx	lr
 80041b4:	6859      	ldr	r1, [r3, #4]
 80041b6:	685a      	ldr	r2, [r3, #4]
 80041b8:	6858      	ldr	r0, [r3, #4]
 80041ba:	f412 0f80 	tst.w	r2, #4194304	; 0x400000
 80041be:	f001 013f 	and.w	r1, r1, #63	; 0x3f
 80041c2:	f647 72c0 	movw	r2, #32704	; 0x7fc0
 80041c6:	d00b      	beq.n	80041e0 <HAL_RCC_GetSysClockFreq+0x40>
 80041c8:	fa92 f3a2 	rbit	r3, r2
 80041cc:	fab3 f383 	clz	r3, r3
 80041d0:	b2db      	uxtb	r3, r3
 80041d2:	4002      	ands	r2, r0
 80041d4:	40da      	lsrs	r2, r3
 80041d6:	4b14      	ldr	r3, [pc, #80]	; (8004228 <HAL_RCC_GetSysClockFreq+0x88>)
 80041d8:	fbb3 f3f1 	udiv	r3, r3, r1
 80041dc:	4353      	muls	r3, r2
 80041de:	e00c      	b.n	80041fa <HAL_RCC_GetSysClockFreq+0x5a>
 80041e0:	fa92 f2a2 	rbit	r2, r2
 80041e4:	fab2 f282 	clz	r2, r2
 80041e8:	f647 73c0 	movw	r3, #32704	; 0x7fc0
 80041ec:	4003      	ands	r3, r0
 80041ee:	480d      	ldr	r0, [pc, #52]	; (8004224 <HAL_RCC_GetSysClockFreq+0x84>)
 80041f0:	b2d2      	uxtb	r2, r2
 80041f2:	40d3      	lsrs	r3, r2
 80041f4:	fbb0 f1f1 	udiv	r1, r0, r1
 80041f8:	434b      	muls	r3, r1
 80041fa:	4a09      	ldr	r2, [pc, #36]	; (8004220 <HAL_RCC_GetSysClockFreq+0x80>)
 80041fc:	6850      	ldr	r0, [r2, #4]
 80041fe:	f44f 3240 	mov.w	r2, #196608	; 0x30000
 8004202:	fa92 f2a2 	rbit	r2, r2
 8004206:	fab2 f282 	clz	r2, r2
 800420a:	b2d2      	uxtb	r2, r2
 800420c:	f400 3040 	and.w	r0, r0, #196608	; 0x30000
 8004210:	40d0      	lsrs	r0, r2
 8004212:	3001      	adds	r0, #1
 8004214:	0040      	lsls	r0, r0, #1
 8004216:	fbb3 f0f0 	udiv	r0, r3, r0
 800421a:	4770      	bx	lr
 800421c:	4802      	ldr	r0, [pc, #8]	; (8004228 <HAL_RCC_GetSysClockFreq+0x88>)
 800421e:	4770      	bx	lr
 8004220:	40023800 	.word	0x40023800
 8004224:	00f42400 	.word	0x00f42400
 8004228:	007a1200 	.word	0x007a1200

0800422c <HAL_RCC_GetHCLKFreq>:
 800422c:	b508      	push	{r3, lr}
 800422e:	f7ff ffb7 	bl	80041a0 <HAL_RCC_GetSysClockFreq>
 8004232:	4b09      	ldr	r3, [pc, #36]	; (8004258 <HAL_RCC_GetHCLKFreq+0x2c>)
 8004234:	689a      	ldr	r2, [r3, #8]
 8004236:	23f0      	movs	r3, #240	; 0xf0
 8004238:	fa93 f3a3 	rbit	r3, r3
 800423c:	fab3 f383 	clz	r3, r3
 8004240:	f002 02f0 	and.w	r2, r2, #240	; 0xf0
 8004244:	b2db      	uxtb	r3, r3
 8004246:	fa22 f303 	lsr.w	r3, r2, r3
 800424a:	4a04      	ldr	r2, [pc, #16]	; (800425c <HAL_RCC_GetHCLKFreq+0x30>)
 800424c:	5cd3      	ldrb	r3, [r2, r3]
 800424e:	40d8      	lsrs	r0, r3
 8004250:	4b03      	ldr	r3, [pc, #12]	; (8004260 <HAL_RCC_GetHCLKFreq+0x34>)
 8004252:	6018      	str	r0, [r3, #0]
 8004254:	bd08      	pop	{r3, pc}
 8004256:	bf00      	nop
 8004258:	40023800 	.word	0x40023800
 800425c:	08006dbc 	.word	0x08006dbc
 8004260:	20000000 	.word	0x20000000

08004264 <HAL_RCC_GetPCLK1Freq>:
 8004264:	b508      	push	{r3, lr}
 8004266:	f7ff ffe1 	bl	800422c <HAL_RCC_GetHCLKFreq>
 800426a:	4b08      	ldr	r3, [pc, #32]	; (800428c <HAL_RCC_GetPCLK1Freq+0x28>)
 800426c:	689a      	ldr	r2, [r3, #8]
 800426e:	f44f 53e0 	mov.w	r3, #7168	; 0x1c00
 8004272:	fa93 f3a3 	rbit	r3, r3
 8004276:	fab3 f383 	clz	r3, r3
 800427a:	f402 52e0 	and.w	r2, r2, #7168	; 0x1c00
 800427e:	b2db      	uxtb	r3, r3
 8004280:	fa22 f303 	lsr.w	r3, r2, r3
 8004284:	4a02      	ldr	r2, [pc, #8]	; (8004290 <HAL_RCC_GetPCLK1Freq+0x2c>)
 8004286:	5cd3      	ldrb	r3, [r2, r3]
 8004288:	40d8      	lsrs	r0, r3
 800428a:	bd08      	pop	{r3, pc}
 800428c:	40023800 	.word	0x40023800
 8004290:	08006dbc 	.word	0x08006dbc

08004294 <HAL_RCC_GetPCLK2Freq>:
 8004294:	b508      	push	{r3, lr}
 8004296:	f7ff ffc9 	bl	800422c <HAL_RCC_GetHCLKFreq>
 800429a:	4b08      	ldr	r3, [pc, #32]	; (80042bc <HAL_RCC_GetPCLK2Freq+0x28>)
 800429c:	689a      	ldr	r2, [r3, #8]
 800429e:	f44f 4360 	mov.w	r3, #57344	; 0xe000
 80042a2:	fa93 f3a3 	rbit	r3, r3
 80042a6:	fab3 f383 	clz	r3, r3
 80042aa:	f402 4260 	and.w	r2, r2, #57344	; 0xe000
 80042ae:	b2db      	uxtb	r3, r3
 80042b0:	fa22 f303 	lsr.w	r3, r2, r3
 80042b4:	4a02      	ldr	r2, [pc, #8]	; (80042c0 <HAL_RCC_GetPCLK2Freq+0x2c>)
 80042b6:	5cd3      	ldrb	r3, [r2, r3]
 80042b8:	40d8      	lsrs	r0, r3
 80042ba:	bd08      	pop	{r3, pc}
 80042bc:	40023800 	.word	0x40023800
 80042c0:	08006dbc 	.word	0x08006dbc

080042c4 <HAL_RCC_GetOscConfig>:
 80042c4:	230f      	movs	r3, #15
 80042c6:	6003      	str	r3, [r0, #0]
 80042c8:	4b36      	ldr	r3, [pc, #216]	; (80043a4 <HAL_RCC_GetOscConfig+0xe0>)
 80042ca:	681a      	ldr	r2, [r3, #0]
 80042cc:	0352      	lsls	r2, r2, #13
 80042ce:	d501      	bpl.n	80042d4 <HAL_RCC_GetOscConfig+0x10>
 80042d0:	2205      	movs	r2, #5
 80042d2:	e004      	b.n	80042de <HAL_RCC_GetOscConfig+0x1a>
 80042d4:	681a      	ldr	r2, [r3, #0]
 80042d6:	f412 3280 	ands.w	r2, r2, #65536	; 0x10000
 80042da:	bf18      	it	ne
 80042dc:	2201      	movne	r2, #1
 80042de:	6042      	str	r2, [r0, #4]
 80042e0:	681b      	ldr	r3, [r3, #0]
 80042e2:	f013 0301 	ands.w	r3, r3, #1
 80042e6:	bf18      	it	ne
 80042e8:	2301      	movne	r3, #1
 80042ea:	60c3      	str	r3, [r0, #12]
 80042ec:	4b2d      	ldr	r3, [pc, #180]	; (80043a4 <HAL_RCC_GetOscConfig+0xe0>)
 80042ee:	681a      	ldr	r2, [r3, #0]
 80042f0:	23f8      	movs	r3, #248	; 0xf8
 80042f2:	fa93 f3a3 	rbit	r3, r3
 80042f6:	fab3 f383 	clz	r3, r3
 80042fa:	f002 02f8 	and.w	r2, r2, #248	; 0xf8
 80042fe:	b2db      	uxtb	r3, r3
 8004300:	fa22 f303 	lsr.w	r3, r2, r3
 8004304:	6103      	str	r3, [r0, #16]
 8004306:	4b27      	ldr	r3, [pc, #156]	; (80043a4 <HAL_RCC_GetOscConfig+0xe0>)
 8004308:	6f1a      	ldr	r2, [r3, #112]	; 0x70
 800430a:	0751      	lsls	r1, r2, #29
 800430c:	d501      	bpl.n	8004312 <HAL_RCC_GetOscConfig+0x4e>
 800430e:	2205      	movs	r2, #5
 8004310:	e004      	b.n	800431c <HAL_RCC_GetOscConfig+0x58>
 8004312:	6f1a      	ldr	r2, [r3, #112]	; 0x70
 8004314:	f012 0201 	ands.w	r2, r2, #1
 8004318:	bf18      	it	ne
 800431a:	2201      	movne	r2, #1
 800431c:	6082      	str	r2, [r0, #8]
 800431e:	6f5b      	ldr	r3, [r3, #116]	; 0x74
 8004320:	f013 0301 	ands.w	r3, r3, #1
 8004324:	bf18      	it	ne
 8004326:	2301      	movne	r3, #1
 8004328:	6143      	str	r3, [r0, #20]
 800432a:	4b1e      	ldr	r3, [pc, #120]	; (80043a4 <HAL_RCC_GetOscConfig+0xe0>)
 800432c:	681a      	ldr	r2, [r3, #0]
 800432e:	01d2      	lsls	r2, r2, #7
 8004330:	bf4c      	ite	mi
 8004332:	2202      	movmi	r2, #2
 8004334:	2201      	movpl	r2, #1
 8004336:	6182      	str	r2, [r0, #24]
 8004338:	685a      	ldr	r2, [r3, #4]
 800433a:	f402 0280 	and.w	r2, r2, #4194304	; 0x400000
 800433e:	61c2      	str	r2, [r0, #28]
 8004340:	685a      	ldr	r2, [r3, #4]
 8004342:	f002 023f 	and.w	r2, r2, #63	; 0x3f
 8004346:	6202      	str	r2, [r0, #32]
 8004348:	6859      	ldr	r1, [r3, #4]
 800434a:	f647 72c0 	movw	r2, #32704	; 0x7fc0
 800434e:	fa92 f2a2 	rbit	r2, r2
 8004352:	fab2 f282 	clz	r2, r2
 8004356:	f647 73c0 	movw	r3, #32704	; 0x7fc0
 800435a:	400b      	ands	r3, r1
 800435c:	b2d2      	uxtb	r2, r2
 800435e:	40d3      	lsrs	r3, r2
 8004360:	6243      	str	r3, [r0, #36]	; 0x24
 8004362:	4b10      	ldr	r3, [pc, #64]	; (80043a4 <HAL_RCC_GetOscConfig+0xe0>)
 8004364:	685a      	ldr	r2, [r3, #4]
 8004366:	f44f 3340 	mov.w	r3, #196608	; 0x30000
 800436a:	fa93 f3a3 	rbit	r3, r3
 800436e:	fab3 f383 	clz	r3, r3
 8004372:	f402 3240 	and.w	r2, r2, #196608	; 0x30000
 8004376:	f502 3280 	add.w	r2, r2, #65536	; 0x10000
 800437a:	0052      	lsls	r2, r2, #1
 800437c:	b2db      	uxtb	r3, r3
 800437e:	fa22 f303 	lsr.w	r3, r2, r3
 8004382:	6283      	str	r3, [r0, #40]	; 0x28
 8004384:	4b07      	ldr	r3, [pc, #28]	; (80043a4 <HAL_RCC_GetOscConfig+0xe0>)
 8004386:	685a      	ldr	r2, [r3, #4]
 8004388:	f04f 6370 	mov.w	r3, #251658240	; 0xf000000
 800438c:	fa93 f3a3 	rbit	r3, r3
 8004390:	fab3 f383 	clz	r3, r3
 8004394:	f002 6270 	and.w	r2, r2, #251658240	; 0xf000000
 8004398:	b2db      	uxtb	r3, r3
 800439a:	fa22 f303 	lsr.w	r3, r2, r3
 800439e:	62c3      	str	r3, [r0, #44]	; 0x2c
 80043a0:	4770      	bx	lr
 80043a2:	bf00      	nop
 80043a4:	40023800 	.word	0x40023800

080043a8 <HAL_RCC_GetClockConfig>:
 80043a8:	230f      	movs	r3, #15
 80043aa:	6003      	str	r3, [r0, #0]
 80043ac:	4b0b      	ldr	r3, [pc, #44]	; (80043dc <HAL_RCC_GetClockConfig+0x34>)
 80043ae:	689a      	ldr	r2, [r3, #8]
 80043b0:	f002 0203 	and.w	r2, r2, #3
 80043b4:	6042      	str	r2, [r0, #4]
 80043b6:	689a      	ldr	r2, [r3, #8]
 80043b8:	f002 02f0 	and.w	r2, r2, #240	; 0xf0
 80043bc:	6082      	str	r2, [r0, #8]
 80043be:	689a      	ldr	r2, [r3, #8]
 80043c0:	f402 52e0 	and.w	r2, r2, #7168	; 0x1c00
 80043c4:	60c2      	str	r2, [r0, #12]
 80043c6:	689b      	ldr	r3, [r3, #8]
 80043c8:	f403 4360 	and.w	r3, r3, #57344	; 0xe000
 80043cc:	08db      	lsrs	r3, r3, #3
 80043ce:	6103      	str	r3, [r0, #16]
 80043d0:	4b03      	ldr	r3, [pc, #12]	; (80043e0 <HAL_RCC_GetClockConfig+0x38>)
 80043d2:	681b      	ldr	r3, [r3, #0]
 80043d4:	f003 030f 	and.w	r3, r3, #15
 80043d8:	600b      	str	r3, [r1, #0]
 80043da:	4770      	bx	lr
 80043dc:	40023800 	.word	0x40023800
 80043e0:	40023c00 	.word	0x40023c00

080043e4 <HAL_RCC_CSSCallback>:
 80043e4:	4770      	bx	lr

080043e6 <HAL_RCC_NMI_IRQHandler>:
 80043e6:	b508      	push	{r3, lr}
 80043e8:	4b04      	ldr	r3, [pc, #16]	; (80043fc <HAL_RCC_NMI_IRQHandler+0x16>)
 80043ea:	68db      	ldr	r3, [r3, #12]
 80043ec:	0619      	lsls	r1, r3, #24
 80043ee:	d504      	bpl.n	80043fa <HAL_RCC_NMI_IRQHandler+0x14>
 80043f0:	f7ff fff8 	bl	80043e4 <HAL_RCC_CSSCallback>
 80043f4:	4b02      	ldr	r3, [pc, #8]	; (8004400 <HAL_RCC_NMI_IRQHandler+0x1a>)
 80043f6:	2280      	movs	r2, #128	; 0x80
 80043f8:	701a      	strb	r2, [r3, #0]
 80043fa:	bd08      	pop	{r3, pc}
 80043fc:	40023800 	.word	0x40023800
 8004400:	4002380e 	.word	0x4002380e

08004404 <_ZL26SPI_WaitOnFlagUntilTimeoutP19__SPI_HandleTypeDefj10FlagStatusj>:
 8004404:	e92d 41f0 	stmdb	sp!, {r4, r5, r6, r7, r8, lr}
 8004408:	4604      	mov	r4, r0
 800440a:	460e      	mov	r6, r1
 800440c:	4690      	mov	r8, r2
 800440e:	461d      	mov	r5, r3
 8004410:	f7fb ff78 	bl	8000304 <HAL_GetTick>
 8004414:	4607      	mov	r7, r0
 8004416:	f1b8 0f00 	cmp.w	r8, #0
 800441a:	d115      	bne.n	8004448 <_ZL26SPI_WaitOnFlagUntilTimeoutP19__SPI_HandleTypeDefj10FlagStatusj+0x44>
 800441c:	6822      	ldr	r2, [r4, #0]
 800441e:	6893      	ldr	r3, [r2, #8]
 8004420:	4033      	ands	r3, r6
 8004422:	42b3      	cmp	r3, r6
 8004424:	d015      	beq.n	8004452 <_ZL26SPI_WaitOnFlagUntilTimeoutP19__SPI_HandleTypeDefj10FlagStatusj+0x4e>
 8004426:	1c69      	adds	r1, r5, #1
 8004428:	d0f9      	beq.n	800441e <_ZL26SPI_WaitOnFlagUntilTimeoutP19__SPI_HandleTypeDefj10FlagStatusj+0x1a>
 800442a:	b1ad      	cbz	r5, 8004458 <_ZL26SPI_WaitOnFlagUntilTimeoutP19__SPI_HandleTypeDefj10FlagStatusj+0x54>
 800442c:	f7fb ff6a 	bl	8000304 <HAL_GetTick>
 8004430:	1bc0      	subs	r0, r0, r7
 8004432:	42a8      	cmp	r0, r5
 8004434:	d810      	bhi.n	8004458 <_ZL26SPI_WaitOnFlagUntilTimeoutP19__SPI_HandleTypeDefj10FlagStatusj+0x54>
 8004436:	e7f1      	b.n	800441c <_ZL26SPI_WaitOnFlagUntilTimeoutP19__SPI_HandleTypeDefj10FlagStatusj+0x18>
 8004438:	1c6a      	adds	r2, r5, #1
 800443a:	d006      	beq.n	800444a <_ZL26SPI_WaitOnFlagUntilTimeoutP19__SPI_HandleTypeDefj10FlagStatusj+0x46>
 800443c:	b165      	cbz	r5, 8004458 <_ZL26SPI_WaitOnFlagUntilTimeoutP19__SPI_HandleTypeDefj10FlagStatusj+0x54>
 800443e:	f7fb ff61 	bl	8000304 <HAL_GetTick>
 8004442:	1bc0      	subs	r0, r0, r7
 8004444:	42a8      	cmp	r0, r5
 8004446:	d807      	bhi.n	8004458 <_ZL26SPI_WaitOnFlagUntilTimeoutP19__SPI_HandleTypeDefj10FlagStatusj+0x54>
 8004448:	6823      	ldr	r3, [r4, #0]
 800444a:	689a      	ldr	r2, [r3, #8]
 800444c:	4032      	ands	r2, r6
 800444e:	42b2      	cmp	r2, r6
 8004450:	d0f2      	beq.n	8004438 <_ZL26SPI_WaitOnFlagUntilTimeoutP19__SPI_HandleTypeDefj10FlagStatusj+0x34>
 8004452:	2000      	movs	r0, #0
 8004454:	e8bd 81f0 	ldmia.w	sp!, {r4, r5, r6, r7, r8, pc}
 8004458:	6823      	ldr	r3, [r4, #0]
 800445a:	685a      	ldr	r2, [r3, #4]
 800445c:	f022 02e0 	bic.w	r2, r2, #224	; 0xe0
 8004460:	605a      	str	r2, [r3, #4]
 8004462:	681a      	ldr	r2, [r3, #0]
 8004464:	f022 0240 	bic.w	r2, r2, #64	; 0x40
 8004468:	601a      	str	r2, [r3, #0]
 800446a:	6aa2      	ldr	r2, [r4, #40]	; 0x28
 800446c:	f5b2 5f00 	cmp.w	r2, #8192	; 0x2000
 8004470:	d107      	bne.n	8004482 <_ZL26SPI_WaitOnFlagUntilTimeoutP19__SPI_HandleTypeDefj10FlagStatusj+0x7e>
 8004472:	681a      	ldr	r2, [r3, #0]
 8004474:	f422 5200 	bic.w	r2, r2, #8192	; 0x2000
 8004478:	601a      	str	r2, [r3, #0]
 800447a:	681a      	ldr	r2, [r3, #0]
 800447c:	f442 5200 	orr.w	r2, r2, #8192	; 0x2000
 8004480:	601a      	str	r2, [r3, #0]
 8004482:	2301      	movs	r3, #1
 8004484:	f884 3051 	strb.w	r3, [r4, #81]	; 0x51
 8004488:	2300      	movs	r3, #0
 800448a:	f884 3050 	strb.w	r3, [r4, #80]	; 0x50
 800448e:	2003      	movs	r0, #3
 8004490:	e8bd 81f0 	ldmia.w	sp!, {r4, r5, r6, r7, r8, pc}

08004494 <_ZL25SPI_DMAEndTransmitReceiveP19__SPI_HandleTypeDef>:
 8004494:	6a83      	ldr	r3, [r0, #40]	; 0x28
 8004496:	f5b3 5f00 	cmp.w	r3, #8192	; 0x2000
 800449a:	b513      	push	{r0, r1, r4, lr}
 800449c:	4604      	mov	r4, r0
 800449e:	d11a      	bne.n	80044d6 <_ZL25SPI_DMAEndTransmitReceiveP19__SPI_HandleTypeDef+0x42>
 80044a0:	2101      	movs	r1, #1
 80044a2:	460a      	mov	r2, r1
 80044a4:	230a      	movs	r3, #10
 80044a6:	f7ff ffad 	bl	8004404 <_ZL26SPI_WaitOnFlagUntilTimeoutP19__SPI_HandleTypeDefj10FlagStatusj>
 80044aa:	4602      	mov	r2, r0
 80044ac:	b948      	cbnz	r0, 80044c2 <_ZL25SPI_DMAEndTransmitReceiveP19__SPI_HandleTypeDef+0x2e>
 80044ae:	4620      	mov	r0, r4
 80044b0:	2101      	movs	r1, #1
 80044b2:	230a      	movs	r3, #10
 80044b4:	f7ff ffa6 	bl	8004404 <_ZL26SPI_WaitOnFlagUntilTimeoutP19__SPI_HandleTypeDefj10FlagStatusj>
 80044b8:	b118      	cbz	r0, 80044c2 <_ZL25SPI_DMAEndTransmitReceiveP19__SPI_HandleTypeDef+0x2e>
 80044ba:	6d63      	ldr	r3, [r4, #84]	; 0x54
 80044bc:	f043 0310 	orr.w	r3, r3, #16
 80044c0:	6563      	str	r3, [r4, #84]	; 0x54
 80044c2:	6823      	ldr	r3, [r4, #0]
 80044c4:	68da      	ldr	r2, [r3, #12]
 80044c6:	b292      	uxth	r2, r2
 80044c8:	f8ad 2006 	strh.w	r2, [sp, #6]
 80044cc:	f8bd 2006 	ldrh.w	r2, [sp, #6]
 80044d0:	689a      	ldr	r2, [r3, #8]
 80044d2:	06d0      	lsls	r0, r2, #27
 80044d4:	d424      	bmi.n	8004520 <_ZL25SPI_DMAEndTransmitReceiveP19__SPI_HandleTypeDef+0x8c>
 80044d6:	4620      	mov	r0, r4
 80044d8:	2102      	movs	r1, #2
 80044da:	2200      	movs	r2, #0
 80044dc:	230a      	movs	r3, #10
 80044de:	f7ff ff91 	bl	8004404 <_ZL26SPI_WaitOnFlagUntilTimeoutP19__SPI_HandleTypeDefj10FlagStatusj>
 80044e2:	b118      	cbz	r0, 80044ec <_ZL25SPI_DMAEndTransmitReceiveP19__SPI_HandleTypeDef+0x58>
 80044e4:	6d63      	ldr	r3, [r4, #84]	; 0x54
 80044e6:	f043 0310 	orr.w	r3, r3, #16
 80044ea:	6563      	str	r3, [r4, #84]	; 0x54
 80044ec:	6823      	ldr	r3, [r4, #0]
 80044ee:	685a      	ldr	r2, [r3, #4]
 80044f0:	f022 0202 	bic.w	r2, r2, #2
 80044f4:	605a      	str	r2, [r3, #4]
 80044f6:	4620      	mov	r0, r4
 80044f8:	2180      	movs	r1, #128	; 0x80
 80044fa:	2201      	movs	r2, #1
 80044fc:	230a      	movs	r3, #10
 80044fe:	f7ff ff81 	bl	8004404 <_ZL26SPI_WaitOnFlagUntilTimeoutP19__SPI_HandleTypeDefj10FlagStatusj>
 8004502:	b118      	cbz	r0, 800450c <_ZL25SPI_DMAEndTransmitReceiveP19__SPI_HandleTypeDef+0x78>
 8004504:	6d63      	ldr	r3, [r4, #84]	; 0x54
 8004506:	f043 0310 	orr.w	r3, r3, #16
 800450a:	6563      	str	r3, [r4, #84]	; 0x54
 800450c:	6823      	ldr	r3, [r4, #0]
 800450e:	685a      	ldr	r2, [r3, #4]
 8004510:	f022 0201 	bic.w	r2, r2, #1
 8004514:	605a      	str	r2, [r3, #4]
 8004516:	2300      	movs	r3, #0
 8004518:	86e3      	strh	r3, [r4, #54]	; 0x36
 800451a:	87e3      	strh	r3, [r4, #62]	; 0x3e
 800451c:	b002      	add	sp, #8
 800451e:	bd10      	pop	{r4, pc}
 8004520:	6d62      	ldr	r2, [r4, #84]	; 0x54
 8004522:	f042 0202 	orr.w	r2, r2, #2
 8004526:	6562      	str	r2, [r4, #84]	; 0x54
 8004528:	f06f 0210 	mvn.w	r2, #16
 800452c:	609a      	str	r2, [r3, #8]
 800452e:	e7d2      	b.n	80044d6 <_ZL25SPI_DMAEndTransmitReceiveP19__SPI_HandleTypeDef+0x42>

08004530 <HAL_SPI_MspInit>:
 8004530:	4770      	bx	lr

08004532 <HAL_SPI_Init>:
 8004532:	b510      	push	{r4, lr}
 8004534:	4604      	mov	r4, r0
 8004536:	2800      	cmp	r0, #0
 8004538:	d036      	beq.n	80045a8 <HAL_SPI_Init+0x76>
 800453a:	f890 3051 	ldrb.w	r3, [r0, #81]	; 0x51
 800453e:	f003 02ff 	and.w	r2, r3, #255	; 0xff
 8004542:	b91b      	cbnz	r3, 800454c <HAL_SPI_Init+0x1a>
 8004544:	f880 2050 	strb.w	r2, [r0, #80]	; 0x50
 8004548:	f7ff fff2 	bl	8004530 <HAL_SPI_MspInit>
 800454c:	6861      	ldr	r1, [r4, #4]
 800454e:	68a0      	ldr	r0, [r4, #8]
 8004550:	4308      	orrs	r0, r1
 8004552:	68e1      	ldr	r1, [r4, #12]
 8004554:	4308      	orrs	r0, r1
 8004556:	6921      	ldr	r1, [r4, #16]
 8004558:	2302      	movs	r3, #2
 800455a:	4308      	orrs	r0, r1
 800455c:	6961      	ldr	r1, [r4, #20]
 800455e:	f884 3051 	strb.w	r3, [r4, #81]	; 0x51
 8004562:	6823      	ldr	r3, [r4, #0]
 8004564:	4308      	orrs	r0, r1
 8004566:	69e1      	ldr	r1, [r4, #28]
 8004568:	681a      	ldr	r2, [r3, #0]
 800456a:	4308      	orrs	r0, r1
 800456c:	6a21      	ldr	r1, [r4, #32]
 800456e:	f022 0240 	bic.w	r2, r2, #64	; 0x40
 8004572:	601a      	str	r2, [r3, #0]
 8004574:	4308      	orrs	r0, r1
 8004576:	69a2      	ldr	r2, [r4, #24]
 8004578:	6aa1      	ldr	r1, [r4, #40]	; 0x28
 800457a:	4301      	orrs	r1, r0
 800457c:	f402 7000 	and.w	r0, r2, #512	; 0x200
 8004580:	4301      	orrs	r1, r0
 8004582:	6019      	str	r1, [r3, #0]
 8004584:	0c12      	lsrs	r2, r2, #16
 8004586:	6a61      	ldr	r1, [r4, #36]	; 0x24
 8004588:	f002 0204 	and.w	r2, r2, #4
 800458c:	4311      	orrs	r1, r2
 800458e:	6ae2      	ldr	r2, [r4, #44]	; 0x2c
 8004590:	6059      	str	r1, [r3, #4]
 8004592:	611a      	str	r2, [r3, #16]
 8004594:	69da      	ldr	r2, [r3, #28]
 8004596:	f422 6200 	bic.w	r2, r2, #2048	; 0x800
 800459a:	61da      	str	r2, [r3, #28]
 800459c:	2000      	movs	r0, #0
 800459e:	2301      	movs	r3, #1
 80045a0:	6560      	str	r0, [r4, #84]	; 0x54
 80045a2:	f884 3051 	strb.w	r3, [r4, #81]	; 0x51
 80045a6:	bd10      	pop	{r4, pc}
 80045a8:	2001      	movs	r0, #1
 80045aa:	bd10      	pop	{r4, pc}

080045ac <HAL_SPI_MspDeInit>:
 80045ac:	4770      	bx	lr

080045ae <HAL_SPI_DeInit>:
 80045ae:	b510      	push	{r4, lr}
 80045b0:	4604      	mov	r4, r0
 80045b2:	b168      	cbz	r0, 80045d0 <HAL_SPI_DeInit+0x22>
 80045b4:	6803      	ldr	r3, [r0, #0]
 80045b6:	681a      	ldr	r2, [r3, #0]
 80045b8:	f022 0240 	bic.w	r2, r2, #64	; 0x40
 80045bc:	601a      	str	r2, [r3, #0]
 80045be:	f7ff fff5 	bl	80045ac <HAL_SPI_MspDeInit>
 80045c2:	2000      	movs	r0, #0
 80045c4:	6560      	str	r0, [r4, #84]	; 0x54
 80045c6:	f884 0050 	strb.w	r0, [r4, #80]	; 0x50
 80045ca:	f884 0051 	strb.w	r0, [r4, #81]	; 0x51
 80045ce:	bd10      	pop	{r4, pc}
 80045d0:	2001      	movs	r0, #1
 80045d2:	bd10      	pop	{r4, pc}

080045d4 <HAL_SPI_Transmit>:
 80045d4:	b573      	push	{r0, r1, r4, r5, r6, lr}
 80045d6:	4604      	mov	r4, r0
 80045d8:	f890 0051 	ldrb.w	r0, [r0, #81]	; 0x51
 80045dc:	b2c0      	uxtb	r0, r0
 80045de:	2801      	cmp	r0, #1
 80045e0:	461d      	mov	r5, r3
 80045e2:	f040 80a2 	bne.w	800472a <HAL_SPI_Transmit+0x156>
 80045e6:	2900      	cmp	r1, #0
 80045e8:	f000 80a0 	beq.w	800472c <HAL_SPI_Transmit+0x158>
 80045ec:	2a00      	cmp	r2, #0
 80045ee:	f000 809d 	beq.w	800472c <HAL_SPI_Transmit+0x158>
 80045f2:	f894 3050 	ldrb.w	r3, [r4, #80]	; 0x50
 80045f6:	2b01      	cmp	r3, #1
 80045f8:	f000 8097 	beq.w	800472a <HAL_SPI_Transmit+0x156>
 80045fc:	2312      	movs	r3, #18
 80045fe:	f884 3051 	strb.w	r3, [r4, #81]	; 0x51
 8004602:	6aa3      	ldr	r3, [r4, #40]	; 0x28
 8004604:	f884 0050 	strb.w	r0, [r4, #80]	; 0x50
 8004608:	f5b3 5f00 	cmp.w	r3, #8192	; 0x2000
 800460c:	f04f 0000 	mov.w	r0, #0
 8004610:	6560      	str	r0, [r4, #84]	; 0x54
 8004612:	64e0      	str	r0, [r4, #76]	; 0x4c
 8004614:	64a0      	str	r0, [r4, #72]	; 0x48
 8004616:	87a0      	strh	r0, [r4, #60]	; 0x3c
 8004618:	87e0      	strh	r0, [r4, #62]	; 0x3e
 800461a:	6321      	str	r1, [r4, #48]	; 0x30
 800461c:	86a2      	strh	r2, [r4, #52]	; 0x34
 800461e:	86e2      	strh	r2, [r4, #54]	; 0x36
 8004620:	6820      	ldr	r0, [r4, #0]
 8004622:	d107      	bne.n	8004634 <HAL_SPI_Transmit+0x60>
 8004624:	6803      	ldr	r3, [r0, #0]
 8004626:	f423 5300 	bic.w	r3, r3, #8192	; 0x2000
 800462a:	6003      	str	r3, [r0, #0]
 800462c:	6803      	ldr	r3, [r0, #0]
 800462e:	f443 5300 	orr.w	r3, r3, #8192	; 0x2000
 8004632:	6003      	str	r3, [r0, #0]
 8004634:	68a3      	ldr	r3, [r4, #8]
 8004636:	f5b3 4f00 	cmp.w	r3, #32768	; 0x8000
 800463a:	d103      	bne.n	8004644 <HAL_SPI_Transmit+0x70>
 800463c:	6803      	ldr	r3, [r0, #0]
 800463e:	f443 4380 	orr.w	r3, r3, #16384	; 0x4000
 8004642:	6003      	str	r3, [r0, #0]
 8004644:	6803      	ldr	r3, [r0, #0]
 8004646:	065e      	lsls	r6, r3, #25
 8004648:	d403      	bmi.n	8004652 <HAL_SPI_Transmit+0x7e>
 800464a:	6803      	ldr	r3, [r0, #0]
 800464c:	f043 0340 	orr.w	r3, r3, #64	; 0x40
 8004650:	6003      	str	r3, [r0, #0]
 8004652:	68e6      	ldr	r6, [r4, #12]
 8004654:	6863      	ldr	r3, [r4, #4]
 8004656:	b9f6      	cbnz	r6, 8004696 <HAL_SPI_Transmit+0xc2>
 8004658:	b10b      	cbz	r3, 800465e <HAL_SPI_Transmit+0x8a>
 800465a:	2a01      	cmp	r2, #1
 800465c:	d117      	bne.n	800468e <HAL_SPI_Transmit+0xba>
 800465e:	1c4b      	adds	r3, r1, #1
 8004660:	6323      	str	r3, [r4, #48]	; 0x30
 8004662:	780b      	ldrb	r3, [r1, #0]
 8004664:	3a01      	subs	r2, #1
 8004666:	60c3      	str	r3, [r0, #12]
 8004668:	86e2      	strh	r2, [r4, #54]	; 0x36
 800466a:	e010      	b.n	800468e <HAL_SPI_Transmit+0xba>
 800466c:	4620      	mov	r0, r4
 800466e:	2102      	movs	r1, #2
 8004670:	2200      	movs	r2, #0
 8004672:	462b      	mov	r3, r5
 8004674:	f7ff fec6 	bl	8004404 <_ZL26SPI_WaitOnFlagUntilTimeoutP19__SPI_HandleTypeDefj10FlagStatusj>
 8004678:	2800      	cmp	r0, #0
 800467a:	d13d      	bne.n	80046f8 <HAL_SPI_Transmit+0x124>
 800467c:	6b23      	ldr	r3, [r4, #48]	; 0x30
 800467e:	6822      	ldr	r2, [r4, #0]
 8004680:	1c59      	adds	r1, r3, #1
 8004682:	6321      	str	r1, [r4, #48]	; 0x30
 8004684:	781b      	ldrb	r3, [r3, #0]
 8004686:	60d3      	str	r3, [r2, #12]
 8004688:	8ee3      	ldrh	r3, [r4, #54]	; 0x36
 800468a:	3b01      	subs	r3, #1
 800468c:	86e3      	strh	r3, [r4, #54]	; 0x36
 800468e:	8ee3      	ldrh	r3, [r4, #54]	; 0x36
 8004690:	2b00      	cmp	r3, #0
 8004692:	d1eb      	bne.n	800466c <HAL_SPI_Transmit+0x98>
 8004694:	e01c      	b.n	80046d0 <HAL_SPI_Transmit+0xfc>
 8004696:	b10b      	cbz	r3, 800469c <HAL_SPI_Transmit+0xc8>
 8004698:	2a01      	cmp	r2, #1
 800469a:	d116      	bne.n	80046ca <HAL_SPI_Transmit+0xf6>
 800469c:	f831 3b02 	ldrh.w	r3, [r1], #2
 80046a0:	3a01      	subs	r2, #1
 80046a2:	60c3      	str	r3, [r0, #12]
 80046a4:	6321      	str	r1, [r4, #48]	; 0x30
 80046a6:	86e2      	strh	r2, [r4, #54]	; 0x36
 80046a8:	e00f      	b.n	80046ca <HAL_SPI_Transmit+0xf6>
 80046aa:	4620      	mov	r0, r4
 80046ac:	2102      	movs	r1, #2
 80046ae:	2200      	movs	r2, #0
 80046b0:	462b      	mov	r3, r5
 80046b2:	f7ff fea7 	bl	8004404 <_ZL26SPI_WaitOnFlagUntilTimeoutP19__SPI_HandleTypeDefj10FlagStatusj>
 80046b6:	b9f8      	cbnz	r0, 80046f8 <HAL_SPI_Transmit+0x124>
 80046b8:	6b23      	ldr	r3, [r4, #48]	; 0x30
 80046ba:	6822      	ldr	r2, [r4, #0]
 80046bc:	f833 1b02 	ldrh.w	r1, [r3], #2
 80046c0:	60d1      	str	r1, [r2, #12]
 80046c2:	6323      	str	r3, [r4, #48]	; 0x30
 80046c4:	8ee3      	ldrh	r3, [r4, #54]	; 0x36
 80046c6:	3b01      	subs	r3, #1
 80046c8:	86e3      	strh	r3, [r4, #54]	; 0x36
 80046ca:	8ee3      	ldrh	r3, [r4, #54]	; 0x36
 80046cc:	2b00      	cmp	r3, #0
 80046ce:	d1ec      	bne.n	80046aa <HAL_SPI_Transmit+0xd6>
 80046d0:	6aa3      	ldr	r3, [r4, #40]	; 0x28
 80046d2:	f5b3 5f00 	cmp.w	r3, #8192	; 0x2000
 80046d6:	d104      	bne.n	80046e2 <HAL_SPI_Transmit+0x10e>
 80046d8:	6823      	ldr	r3, [r4, #0]
 80046da:	681a      	ldr	r2, [r3, #0]
 80046dc:	f442 5280 	orr.w	r2, r2, #4096	; 0x1000
 80046e0:	601a      	str	r2, [r3, #0]
 80046e2:	4620      	mov	r0, r4
 80046e4:	2102      	movs	r1, #2
 80046e6:	2200      	movs	r2, #0
 80046e8:	462b      	mov	r3, r5
 80046ea:	f7ff fe8b 	bl	8004404 <_ZL26SPI_WaitOnFlagUntilTimeoutP19__SPI_HandleTypeDefj10FlagStatusj>
 80046ee:	b128      	cbz	r0, 80046fc <HAL_SPI_Transmit+0x128>
 80046f0:	6d63      	ldr	r3, [r4, #84]	; 0x54
 80046f2:	f043 0310 	orr.w	r3, r3, #16
 80046f6:	6563      	str	r3, [r4, #84]	; 0x54
 80046f8:	2003      	movs	r0, #3
 80046fa:	e017      	b.n	800472c <HAL_SPI_Transmit+0x158>
 80046fc:	4620      	mov	r0, r4
 80046fe:	2180      	movs	r1, #128	; 0x80
 8004700:	2201      	movs	r2, #1
 8004702:	462b      	mov	r3, r5
 8004704:	f7ff fe7e 	bl	8004404 <_ZL26SPI_WaitOnFlagUntilTimeoutP19__SPI_HandleTypeDefj10FlagStatusj>
 8004708:	2800      	cmp	r0, #0
 800470a:	d1f1      	bne.n	80046f0 <HAL_SPI_Transmit+0x11c>
 800470c:	68a3      	ldr	r3, [r4, #8]
 800470e:	b92b      	cbnz	r3, 800471c <HAL_SPI_Transmit+0x148>
 8004710:	6823      	ldr	r3, [r4, #0]
 8004712:	68da      	ldr	r2, [r3, #12]
 8004714:	9201      	str	r2, [sp, #4]
 8004716:	689b      	ldr	r3, [r3, #8]
 8004718:	9301      	str	r3, [sp, #4]
 800471a:	9b01      	ldr	r3, [sp, #4]
 800471c:	2301      	movs	r3, #1
 800471e:	f884 3051 	strb.w	r3, [r4, #81]	; 0x51
 8004722:	2300      	movs	r3, #0
 8004724:	f884 3050 	strb.w	r3, [r4, #80]	; 0x50
 8004728:	e000      	b.n	800472c <HAL_SPI_Transmit+0x158>
 800472a:	2002      	movs	r0, #2
 800472c:	b002      	add	sp, #8
 800472e:	bd70      	pop	{r4, r5, r6, pc}

08004730 <HAL_SPI_TransmitReceive>:
 8004730:	b573      	push	{r0, r1, r4, r5, r6, lr}
 8004732:	4604      	mov	r4, r0
 8004734:	f890 0051 	ldrb.w	r0, [r0, #81]	; 0x51
 8004738:	9d06      	ldr	r5, [sp, #24]
 800473a:	b2c0      	uxtb	r0, r0
 800473c:	2801      	cmp	r0, #1
 800473e:	d002      	beq.n	8004746 <HAL_SPI_TransmitReceive+0x16>
 8004740:	2822      	cmp	r0, #34	; 0x22
 8004742:	f040 8140 	bne.w	80049c6 <HAL_SPI_TransmitReceive+0x296>
 8004746:	2900      	cmp	r1, #0
 8004748:	f000 813b 	beq.w	80049c2 <HAL_SPI_TransmitReceive+0x292>
 800474c:	2a00      	cmp	r2, #0
 800474e:	f000 8138 	beq.w	80049c2 <HAL_SPI_TransmitReceive+0x292>
 8004752:	2b00      	cmp	r3, #0
 8004754:	f000 8135 	beq.w	80049c2 <HAL_SPI_TransmitReceive+0x292>
 8004758:	f894 0050 	ldrb.w	r0, [r4, #80]	; 0x50
 800475c:	2801      	cmp	r0, #1
 800475e:	f000 8132 	beq.w	80049c6 <HAL_SPI_TransmitReceive+0x296>
 8004762:	2001      	movs	r0, #1
 8004764:	f884 0050 	strb.w	r0, [r4, #80]	; 0x50
 8004768:	f894 0051 	ldrb.w	r0, [r4, #81]	; 0x51
 800476c:	6aa6      	ldr	r6, [r4, #40]	; 0x28
 800476e:	63a2      	str	r2, [r4, #56]	; 0x38
 8004770:	2801      	cmp	r0, #1
 8004772:	bf04      	itt	eq
 8004774:	2032      	moveq	r0, #50	; 0x32
 8004776:	f884 0051 	strbeq.w	r0, [r4, #81]	; 0x51
 800477a:	2000      	movs	r0, #0
 800477c:	f5b6 5f00 	cmp.w	r6, #8192	; 0x2000
 8004780:	6560      	str	r0, [r4, #84]	; 0x54
 8004782:	87a3      	strh	r3, [r4, #60]	; 0x3c
 8004784:	87e3      	strh	r3, [r4, #62]	; 0x3e
 8004786:	6321      	str	r1, [r4, #48]	; 0x30
 8004788:	86a3      	strh	r3, [r4, #52]	; 0x34
 800478a:	86e3      	strh	r3, [r4, #54]	; 0x36
 800478c:	64a0      	str	r0, [r4, #72]	; 0x48
 800478e:	64e0      	str	r0, [r4, #76]	; 0x4c
 8004790:	6822      	ldr	r2, [r4, #0]
 8004792:	d107      	bne.n	80047a4 <HAL_SPI_TransmitReceive+0x74>
 8004794:	6810      	ldr	r0, [r2, #0]
 8004796:	f420 5000 	bic.w	r0, r0, #8192	; 0x2000
 800479a:	6010      	str	r0, [r2, #0]
 800479c:	6810      	ldr	r0, [r2, #0]
 800479e:	f440 5000 	orr.w	r0, r0, #8192	; 0x2000
 80047a2:	6010      	str	r0, [r2, #0]
 80047a4:	6810      	ldr	r0, [r2, #0]
 80047a6:	0640      	lsls	r0, r0, #25
 80047a8:	d403      	bmi.n	80047b2 <HAL_SPI_TransmitReceive+0x82>
 80047aa:	6810      	ldr	r0, [r2, #0]
 80047ac:	f040 0040 	orr.w	r0, r0, #64	; 0x40
 80047b0:	6010      	str	r0, [r2, #0]
 80047b2:	68e0      	ldr	r0, [r4, #12]
 80047b4:	f5b0 6f00 	cmp.w	r0, #2048	; 0x800
 80047b8:	6860      	ldr	r0, [r4, #4]
 80047ba:	d15e      	bne.n	800487a <HAL_SPI_TransmitReceive+0x14a>
 80047bc:	b120      	cbz	r0, 80047c8 <HAL_SPI_TransmitReceive+0x98>
 80047be:	f5b0 7f82 	cmp.w	r0, #260	; 0x104
 80047c2:	d107      	bne.n	80047d4 <HAL_SPI_TransmitReceive+0xa4>
 80047c4:	2b01      	cmp	r3, #1
 80047c6:	d105      	bne.n	80047d4 <HAL_SPI_TransmitReceive+0xa4>
 80047c8:	f831 0b02 	ldrh.w	r0, [r1], #2
 80047cc:	3b01      	subs	r3, #1
 80047ce:	60d0      	str	r0, [r2, #12]
 80047d0:	6321      	str	r1, [r4, #48]	; 0x30
 80047d2:	86e3      	strh	r3, [r4, #54]	; 0x36
 80047d4:	8ee3      	ldrh	r3, [r4, #54]	; 0x36
 80047d6:	2b00      	cmp	r3, #0
 80047d8:	d130      	bne.n	800483c <HAL_SPI_TransmitReceive+0x10c>
 80047da:	f5b6 5f00 	cmp.w	r6, #8192	; 0x2000
 80047de:	d103      	bne.n	80047e8 <HAL_SPI_TransmitReceive+0xb8>
 80047e0:	6813      	ldr	r3, [r2, #0]
 80047e2:	f443 5380 	orr.w	r3, r3, #4096	; 0x1000
 80047e6:	6013      	str	r3, [r2, #0]
 80047e8:	4620      	mov	r0, r4
 80047ea:	2101      	movs	r1, #1
 80047ec:	2200      	movs	r2, #0
 80047ee:	e037      	b.n	8004860 <HAL_SPI_TransmitReceive+0x130>
 80047f0:	4620      	mov	r0, r4
 80047f2:	2102      	movs	r1, #2
 80047f4:	2200      	movs	r2, #0
 80047f6:	462b      	mov	r3, r5
 80047f8:	f7ff fe04 	bl	8004404 <_ZL26SPI_WaitOnFlagUntilTimeoutP19__SPI_HandleTypeDefj10FlagStatusj>
 80047fc:	2800      	cmp	r0, #0
 80047fe:	f040 80bf 	bne.w	8004980 <HAL_SPI_TransmitReceive+0x250>
 8004802:	6b22      	ldr	r2, [r4, #48]	; 0x30
 8004804:	6823      	ldr	r3, [r4, #0]
 8004806:	f832 1b02 	ldrh.w	r1, [r2], #2
 800480a:	60d9      	str	r1, [r3, #12]
 800480c:	6322      	str	r2, [r4, #48]	; 0x30
 800480e:	8ee2      	ldrh	r2, [r4, #54]	; 0x36
 8004810:	3a01      	subs	r2, #1
 8004812:	b292      	uxth	r2, r2
 8004814:	86e2      	strh	r2, [r4, #54]	; 0x36
 8004816:	b1aa      	cbz	r2, 8004844 <HAL_SPI_TransmitReceive+0x114>
 8004818:	4620      	mov	r0, r4
 800481a:	2101      	movs	r1, #1
 800481c:	2200      	movs	r2, #0
 800481e:	462b      	mov	r3, r5
 8004820:	f7ff fdf0 	bl	8004404 <_ZL26SPI_WaitOnFlagUntilTimeoutP19__SPI_HandleTypeDefj10FlagStatusj>
 8004824:	2800      	cmp	r0, #0
 8004826:	f040 80ab 	bne.w	8004980 <HAL_SPI_TransmitReceive+0x250>
 800482a:	6823      	ldr	r3, [r4, #0]
 800482c:	68da      	ldr	r2, [r3, #12]
 800482e:	6ba3      	ldr	r3, [r4, #56]	; 0x38
 8004830:	f823 2b02 	strh.w	r2, [r3], #2
 8004834:	63a3      	str	r3, [r4, #56]	; 0x38
 8004836:	8fe3      	ldrh	r3, [r4, #62]	; 0x3e
 8004838:	3b01      	subs	r3, #1
 800483a:	87e3      	strh	r3, [r4, #62]	; 0x3e
 800483c:	8ee3      	ldrh	r3, [r4, #54]	; 0x36
 800483e:	2b00      	cmp	r3, #0
 8004840:	d1d6      	bne.n	80047f0 <HAL_SPI_TransmitReceive+0xc0>
 8004842:	e008      	b.n	8004856 <HAL_SPI_TransmitReceive+0x126>
 8004844:	6aa2      	ldr	r2, [r4, #40]	; 0x28
 8004846:	f5b2 5f00 	cmp.w	r2, #8192	; 0x2000
 800484a:	d1e5      	bne.n	8004818 <HAL_SPI_TransmitReceive+0xe8>
 800484c:	681a      	ldr	r2, [r3, #0]
 800484e:	f442 5280 	orr.w	r2, r2, #4096	; 0x1000
 8004852:	601a      	str	r2, [r3, #0]
 8004854:	e7e0      	b.n	8004818 <HAL_SPI_TransmitReceive+0xe8>
 8004856:	6862      	ldr	r2, [r4, #4]
 8004858:	2a00      	cmp	r2, #0
 800485a:	d170      	bne.n	800493e <HAL_SPI_TransmitReceive+0x20e>
 800485c:	4620      	mov	r0, r4
 800485e:	2101      	movs	r1, #1
 8004860:	462b      	mov	r3, r5
 8004862:	f7ff fdcf 	bl	8004404 <_ZL26SPI_WaitOnFlagUntilTimeoutP19__SPI_HandleTypeDefj10FlagStatusj>
 8004866:	2800      	cmp	r0, #0
 8004868:	f040 808a 	bne.w	8004980 <HAL_SPI_TransmitReceive+0x250>
 800486c:	6823      	ldr	r3, [r4, #0]
 800486e:	68da      	ldr	r2, [r3, #12]
 8004870:	6ba3      	ldr	r3, [r4, #56]	; 0x38
 8004872:	f823 2b02 	strh.w	r2, [r3], #2
 8004876:	63a3      	str	r3, [r4, #56]	; 0x38
 8004878:	e05e      	b.n	8004938 <HAL_SPI_TransmitReceive+0x208>
 800487a:	b120      	cbz	r0, 8004886 <HAL_SPI_TransmitReceive+0x156>
 800487c:	f5b0 7f82 	cmp.w	r0, #260	; 0x104
 8004880:	d107      	bne.n	8004892 <HAL_SPI_TransmitReceive+0x162>
 8004882:	2b01      	cmp	r3, #1
 8004884:	d105      	bne.n	8004892 <HAL_SPI_TransmitReceive+0x162>
 8004886:	1c48      	adds	r0, r1, #1
 8004888:	6320      	str	r0, [r4, #48]	; 0x30
 800488a:	7809      	ldrb	r1, [r1, #0]
 800488c:	3b01      	subs	r3, #1
 800488e:	60d1      	str	r1, [r2, #12]
 8004890:	86e3      	strh	r3, [r4, #54]	; 0x36
 8004892:	8ee3      	ldrh	r3, [r4, #54]	; 0x36
 8004894:	2b00      	cmp	r3, #0
 8004896:	d134      	bne.n	8004902 <HAL_SPI_TransmitReceive+0x1d2>
 8004898:	f5b6 5f00 	cmp.w	r6, #8192	; 0x2000
 800489c:	d103      	bne.n	80048a6 <HAL_SPI_TransmitReceive+0x176>
 800489e:	6813      	ldr	r3, [r2, #0]
 80048a0:	f443 5380 	orr.w	r3, r3, #4096	; 0x1000
 80048a4:	6013      	str	r3, [r2, #0]
 80048a6:	4620      	mov	r0, r4
 80048a8:	2101      	movs	r1, #1
 80048aa:	2200      	movs	r2, #0
 80048ac:	462b      	mov	r3, r5
 80048ae:	f7ff fda9 	bl	8004404 <_ZL26SPI_WaitOnFlagUntilTimeoutP19__SPI_HandleTypeDefj10FlagStatusj>
 80048b2:	2800      	cmp	r0, #0
 80048b4:	d164      	bne.n	8004980 <HAL_SPI_TransmitReceive+0x250>
 80048b6:	6ba3      	ldr	r3, [r4, #56]	; 0x38
 80048b8:	e03b      	b.n	8004932 <HAL_SPI_TransmitReceive+0x202>
 80048ba:	4620      	mov	r0, r4
 80048bc:	2102      	movs	r1, #2
 80048be:	2200      	movs	r2, #0
 80048c0:	462b      	mov	r3, r5
 80048c2:	f7ff fd9f 	bl	8004404 <_ZL26SPI_WaitOnFlagUntilTimeoutP19__SPI_HandleTypeDefj10FlagStatusj>
 80048c6:	2800      	cmp	r0, #0
 80048c8:	d15a      	bne.n	8004980 <HAL_SPI_TransmitReceive+0x250>
 80048ca:	6b22      	ldr	r2, [r4, #48]	; 0x30
 80048cc:	6823      	ldr	r3, [r4, #0]
 80048ce:	1c51      	adds	r1, r2, #1
 80048d0:	6321      	str	r1, [r4, #48]	; 0x30
 80048d2:	7812      	ldrb	r2, [r2, #0]
 80048d4:	60da      	str	r2, [r3, #12]
 80048d6:	8ee2      	ldrh	r2, [r4, #54]	; 0x36
 80048d8:	3a01      	subs	r2, #1
 80048da:	b292      	uxth	r2, r2
 80048dc:	86e2      	strh	r2, [r4, #54]	; 0x36
 80048de:	b1a2      	cbz	r2, 800490a <HAL_SPI_TransmitReceive+0x1da>
 80048e0:	4620      	mov	r0, r4
 80048e2:	2101      	movs	r1, #1
 80048e4:	2200      	movs	r2, #0
 80048e6:	462b      	mov	r3, r5
 80048e8:	f7ff fd8c 	bl	8004404 <_ZL26SPI_WaitOnFlagUntilTimeoutP19__SPI_HandleTypeDefj10FlagStatusj>
 80048ec:	2800      	cmp	r0, #0
 80048ee:	d147      	bne.n	8004980 <HAL_SPI_TransmitReceive+0x250>
 80048f0:	6ba3      	ldr	r3, [r4, #56]	; 0x38
 80048f2:	1c5a      	adds	r2, r3, #1
 80048f4:	63a2      	str	r2, [r4, #56]	; 0x38
 80048f6:	6822      	ldr	r2, [r4, #0]
 80048f8:	68d2      	ldr	r2, [r2, #12]
 80048fa:	701a      	strb	r2, [r3, #0]
 80048fc:	8fe3      	ldrh	r3, [r4, #62]	; 0x3e
 80048fe:	3b01      	subs	r3, #1
 8004900:	87e3      	strh	r3, [r4, #62]	; 0x3e
 8004902:	8ee3      	ldrh	r3, [r4, #54]	; 0x36
 8004904:	2b00      	cmp	r3, #0
 8004906:	d1d8      	bne.n	80048ba <HAL_SPI_TransmitReceive+0x18a>
 8004908:	e008      	b.n	800491c <HAL_SPI_TransmitReceive+0x1ec>
 800490a:	6aa2      	ldr	r2, [r4, #40]	; 0x28
 800490c:	f5b2 5f00 	cmp.w	r2, #8192	; 0x2000
 8004910:	d1e6      	bne.n	80048e0 <HAL_SPI_TransmitReceive+0x1b0>
 8004912:	681a      	ldr	r2, [r3, #0]
 8004914:	f442 5280 	orr.w	r2, r2, #4096	; 0x1000
 8004918:	601a      	str	r2, [r3, #0]
 800491a:	e7e1      	b.n	80048e0 <HAL_SPI_TransmitReceive+0x1b0>
 800491c:	6862      	ldr	r2, [r4, #4]
 800491e:	b972      	cbnz	r2, 800493e <HAL_SPI_TransmitReceive+0x20e>
 8004920:	4620      	mov	r0, r4
 8004922:	2101      	movs	r1, #1
 8004924:	462b      	mov	r3, r5
 8004926:	f7ff fd6d 	bl	8004404 <_ZL26SPI_WaitOnFlagUntilTimeoutP19__SPI_HandleTypeDefj10FlagStatusj>
 800492a:	bb48      	cbnz	r0, 8004980 <HAL_SPI_TransmitReceive+0x250>
 800492c:	6ba3      	ldr	r3, [r4, #56]	; 0x38
 800492e:	1c5a      	adds	r2, r3, #1
 8004930:	63a2      	str	r2, [r4, #56]	; 0x38
 8004932:	6822      	ldr	r2, [r4, #0]
 8004934:	68d2      	ldr	r2, [r2, #12]
 8004936:	701a      	strb	r2, [r3, #0]
 8004938:	8fe3      	ldrh	r3, [r4, #62]	; 0x3e
 800493a:	3b01      	subs	r3, #1
 800493c:	87e3      	strh	r3, [r4, #62]	; 0x3e
 800493e:	6aa3      	ldr	r3, [r4, #40]	; 0x28
 8004940:	f5b3 5f00 	cmp.w	r3, #8192	; 0x2000
 8004944:	d111      	bne.n	800496a <HAL_SPI_TransmitReceive+0x23a>
 8004946:	4620      	mov	r0, r4
 8004948:	2101      	movs	r1, #1
 800494a:	2200      	movs	r2, #0
 800494c:	462b      	mov	r3, r5
 800494e:	f7ff fd59 	bl	8004404 <_ZL26SPI_WaitOnFlagUntilTimeoutP19__SPI_HandleTypeDefj10FlagStatusj>
 8004952:	b118      	cbz	r0, 800495c <HAL_SPI_TransmitReceive+0x22c>
 8004954:	6d63      	ldr	r3, [r4, #84]	; 0x54
 8004956:	f043 0302 	orr.w	r3, r3, #2
 800495a:	e010      	b.n	800497e <HAL_SPI_TransmitReceive+0x24e>
 800495c:	6823      	ldr	r3, [r4, #0]
 800495e:	68db      	ldr	r3, [r3, #12]
 8004960:	b29b      	uxth	r3, r3
 8004962:	f8ad 3006 	strh.w	r3, [sp, #6]
 8004966:	f8bd 3006 	ldrh.w	r3, [sp, #6]
 800496a:	4620      	mov	r0, r4
 800496c:	2180      	movs	r1, #128	; 0x80
 800496e:	2201      	movs	r2, #1
 8004970:	462b      	mov	r3, r5
 8004972:	f7ff fd47 	bl	8004404 <_ZL26SPI_WaitOnFlagUntilTimeoutP19__SPI_HandleTypeDefj10FlagStatusj>
 8004976:	b128      	cbz	r0, 8004984 <HAL_SPI_TransmitReceive+0x254>
 8004978:	6d63      	ldr	r3, [r4, #84]	; 0x54
 800497a:	f043 0310 	orr.w	r3, r3, #16
 800497e:	6563      	str	r3, [r4, #84]	; 0x54
 8004980:	2003      	movs	r0, #3
 8004982:	e021      	b.n	80049c8 <HAL_SPI_TransmitReceive+0x298>
 8004984:	6aa1      	ldr	r1, [r4, #40]	; 0x28
 8004986:	6823      	ldr	r3, [r4, #0]
 8004988:	2201      	movs	r2, #1
 800498a:	f884 2051 	strb.w	r2, [r4, #81]	; 0x51
 800498e:	f5b1 5f00 	cmp.w	r1, #8192	; 0x2000
 8004992:	689d      	ldr	r5, [r3, #8]
 8004994:	d111      	bne.n	80049ba <HAL_SPI_TransmitReceive+0x28a>
 8004996:	06e9      	lsls	r1, r5, #27
 8004998:	d50f      	bpl.n	80049ba <HAL_SPI_TransmitReceive+0x28a>
 800499a:	6d61      	ldr	r1, [r4, #84]	; 0x54
 800499c:	f041 0102 	orr.w	r1, r1, #2
 80049a0:	6561      	str	r1, [r4, #84]	; 0x54
 80049a2:	6819      	ldr	r1, [r3, #0]
 80049a4:	f421 5100 	bic.w	r1, r1, #8192	; 0x2000
 80049a8:	6019      	str	r1, [r3, #0]
 80049aa:	6819      	ldr	r1, [r3, #0]
 80049ac:	f441 5100 	orr.w	r1, r1, #8192	; 0x2000
 80049b0:	6019      	str	r1, [r3, #0]
 80049b2:	f884 0050 	strb.w	r0, [r4, #80]	; 0x50
 80049b6:	4610      	mov	r0, r2
 80049b8:	e006      	b.n	80049c8 <HAL_SPI_TransmitReceive+0x298>
 80049ba:	2300      	movs	r3, #0
 80049bc:	f884 3050 	strb.w	r3, [r4, #80]	; 0x50
 80049c0:	e002      	b.n	80049c8 <HAL_SPI_TransmitReceive+0x298>
 80049c2:	2001      	movs	r0, #1
 80049c4:	e000      	b.n	80049c8 <HAL_SPI_TransmitReceive+0x298>
 80049c6:	2002      	movs	r0, #2
 80049c8:	b002      	add	sp, #8
 80049ca:	bd70      	pop	{r4, r5, r6, pc}

080049cc <HAL_SPI_Receive>:
 80049cc:	b5f0      	push	{r4, r5, r6, r7, lr}
 80049ce:	f890 5051 	ldrb.w	r5, [r0, #81]	; 0x51
 80049d2:	b2ed      	uxtb	r5, r5
 80049d4:	2d01      	cmp	r5, #1
 80049d6:	b085      	sub	sp, #20
 80049d8:	4604      	mov	r4, r0
 80049da:	4617      	mov	r7, r2
 80049dc:	461e      	mov	r6, r3
 80049de:	f040 80d9 	bne.w	8004b94 <HAL_SPI_Receive+0x1c8>
 80049e2:	2900      	cmp	r1, #0
 80049e4:	f000 80d7 	beq.w	8004b96 <HAL_SPI_Receive+0x1ca>
 80049e8:	2a00      	cmp	r2, #0
 80049ea:	f000 80d4 	beq.w	8004b96 <HAL_SPI_Receive+0x1ca>
 80049ee:	f890 3050 	ldrb.w	r3, [r0, #80]	; 0x50
 80049f2:	2b01      	cmp	r3, #1
 80049f4:	f000 80ce 	beq.w	8004b94 <HAL_SPI_Receive+0x1c8>
 80049f8:	2322      	movs	r3, #34	; 0x22
 80049fa:	f880 5050 	strb.w	r5, [r0, #80]	; 0x50
 80049fe:	f880 3051 	strb.w	r3, [r0, #81]	; 0x51
 8004a02:	87a2      	strh	r2, [r4, #60]	; 0x3c
 8004a04:	87e2      	strh	r2, [r4, #62]	; 0x3e
 8004a06:	68a2      	ldr	r2, [r4, #8]
 8004a08:	63a1      	str	r1, [r4, #56]	; 0x38
 8004a0a:	2000      	movs	r0, #0
 8004a0c:	f5b2 4f00 	cmp.w	r2, #32768	; 0x8000
 8004a10:	6560      	str	r0, [r4, #84]	; 0x54
 8004a12:	64a0      	str	r0, [r4, #72]	; 0x48
 8004a14:	64e0      	str	r0, [r4, #76]	; 0x4c
 8004a16:	86a0      	strh	r0, [r4, #52]	; 0x34
 8004a18:	86e0      	strh	r0, [r4, #54]	; 0x36
 8004a1a:	d104      	bne.n	8004a26 <HAL_SPI_Receive+0x5a>
 8004a1c:	6823      	ldr	r3, [r4, #0]
 8004a1e:	6818      	ldr	r0, [r3, #0]
 8004a20:	f420 4080 	bic.w	r0, r0, #16384	; 0x4000
 8004a24:	6018      	str	r0, [r3, #0]
 8004a26:	6aa3      	ldr	r3, [r4, #40]	; 0x28
 8004a28:	f5b3 5f00 	cmp.w	r3, #8192	; 0x2000
 8004a2c:	d108      	bne.n	8004a40 <HAL_SPI_Receive+0x74>
 8004a2e:	6823      	ldr	r3, [r4, #0]
 8004a30:	6818      	ldr	r0, [r3, #0]
 8004a32:	f420 5000 	bic.w	r0, r0, #8192	; 0x2000
 8004a36:	6018      	str	r0, [r3, #0]
 8004a38:	6818      	ldr	r0, [r3, #0]
 8004a3a:	f440 5000 	orr.w	r0, r0, #8192	; 0x2000
 8004a3e:	6018      	str	r0, [r3, #0]
 8004a40:	6863      	ldr	r3, [r4, #4]
 8004a42:	f5b3 7f82 	cmp.w	r3, #260	; 0x104
 8004a46:	d10a      	bne.n	8004a5e <HAL_SPI_Receive+0x92>
 8004a48:	b94a      	cbnz	r2, 8004a5e <HAL_SPI_Receive+0x92>
 8004a4a:	f884 2050 	strb.w	r2, [r4, #80]	; 0x50
 8004a4e:	9600      	str	r6, [sp, #0]
 8004a50:	4620      	mov	r0, r4
 8004a52:	460a      	mov	r2, r1
 8004a54:	463b      	mov	r3, r7
 8004a56:	f7ff fe6b 	bl	8004730 <HAL_SPI_TransmitReceive>
 8004a5a:	4605      	mov	r5, r0
 8004a5c:	e09b      	b.n	8004b96 <HAL_SPI_Receive+0x1ca>
 8004a5e:	6823      	ldr	r3, [r4, #0]
 8004a60:	681a      	ldr	r2, [r3, #0]
 8004a62:	0657      	lsls	r7, r2, #25
 8004a64:	d403      	bmi.n	8004a6e <HAL_SPI_Receive+0xa2>
 8004a66:	681a      	ldr	r2, [r3, #0]
 8004a68:	f042 0240 	orr.w	r2, r2, #64	; 0x40
 8004a6c:	601a      	str	r2, [r3, #0]
 8004a6e:	68e3      	ldr	r3, [r4, #12]
 8004a70:	bb2b      	cbnz	r3, 8004abe <HAL_SPI_Receive+0xf2>
 8004a72:	8fe3      	ldrh	r3, [r4, #62]	; 0x3e
 8004a74:	2b01      	cmp	r3, #1
 8004a76:	d925      	bls.n	8004ac4 <HAL_SPI_Receive+0xf8>
 8004a78:	4620      	mov	r0, r4
 8004a7a:	2101      	movs	r1, #1
 8004a7c:	2200      	movs	r2, #0
 8004a7e:	4633      	mov	r3, r6
 8004a80:	f7ff fcc0 	bl	8004404 <_ZL26SPI_WaitOnFlagUntilTimeoutP19__SPI_HandleTypeDefj10FlagStatusj>
 8004a84:	2800      	cmp	r0, #0
 8004a86:	d14d      	bne.n	8004b24 <HAL_SPI_Receive+0x158>
 8004a88:	6ba3      	ldr	r3, [r4, #56]	; 0x38
 8004a8a:	1c5a      	adds	r2, r3, #1
 8004a8c:	63a2      	str	r2, [r4, #56]	; 0x38
 8004a8e:	6822      	ldr	r2, [r4, #0]
 8004a90:	68d2      	ldr	r2, [r2, #12]
 8004a92:	701a      	strb	r2, [r3, #0]
 8004a94:	8fe3      	ldrh	r3, [r4, #62]	; 0x3e
 8004a96:	3b01      	subs	r3, #1
 8004a98:	87e3      	strh	r3, [r4, #62]	; 0x3e
 8004a9a:	e7ea      	b.n	8004a72 <HAL_SPI_Receive+0xa6>
 8004a9c:	4620      	mov	r0, r4
 8004a9e:	2101      	movs	r1, #1
 8004aa0:	2200      	movs	r2, #0
 8004aa2:	4633      	mov	r3, r6
 8004aa4:	f7ff fcae 	bl	8004404 <_ZL26SPI_WaitOnFlagUntilTimeoutP19__SPI_HandleTypeDefj10FlagStatusj>
 8004aa8:	2800      	cmp	r0, #0
 8004aaa:	d13b      	bne.n	8004b24 <HAL_SPI_Receive+0x158>
 8004aac:	6823      	ldr	r3, [r4, #0]
 8004aae:	68da      	ldr	r2, [r3, #12]
 8004ab0:	6ba3      	ldr	r3, [r4, #56]	; 0x38
 8004ab2:	f823 2b02 	strh.w	r2, [r3], #2
 8004ab6:	63a3      	str	r3, [r4, #56]	; 0x38
 8004ab8:	8fe3      	ldrh	r3, [r4, #62]	; 0x3e
 8004aba:	3b01      	subs	r3, #1
 8004abc:	87e3      	strh	r3, [r4, #62]	; 0x3e
 8004abe:	8fe3      	ldrh	r3, [r4, #62]	; 0x3e
 8004ac0:	2b01      	cmp	r3, #1
 8004ac2:	d8eb      	bhi.n	8004a9c <HAL_SPI_Receive+0xd0>
 8004ac4:	6aa3      	ldr	r3, [r4, #40]	; 0x28
 8004ac6:	f5b3 5f00 	cmp.w	r3, #8192	; 0x2000
 8004aca:	d104      	bne.n	8004ad6 <HAL_SPI_Receive+0x10a>
 8004acc:	6823      	ldr	r3, [r4, #0]
 8004ace:	681a      	ldr	r2, [r3, #0]
 8004ad0:	f442 5280 	orr.w	r2, r2, #4096	; 0x1000
 8004ad4:	601a      	str	r2, [r3, #0]
 8004ad6:	4620      	mov	r0, r4
 8004ad8:	2101      	movs	r1, #1
 8004ada:	2200      	movs	r2, #0
 8004adc:	4633      	mov	r3, r6
 8004ade:	f7ff fc91 	bl	8004404 <_ZL26SPI_WaitOnFlagUntilTimeoutP19__SPI_HandleTypeDefj10FlagStatusj>
 8004ae2:	4605      	mov	r5, r0
 8004ae4:	b9f0      	cbnz	r0, 8004b24 <HAL_SPI_Receive+0x158>
 8004ae6:	68e1      	ldr	r1, [r4, #12]
 8004ae8:	6822      	ldr	r2, [r4, #0]
 8004aea:	6ba3      	ldr	r3, [r4, #56]	; 0x38
 8004aec:	b921      	cbnz	r1, 8004af8 <HAL_SPI_Receive+0x12c>
 8004aee:	68d2      	ldr	r2, [r2, #12]
 8004af0:	1c59      	adds	r1, r3, #1
 8004af2:	63a1      	str	r1, [r4, #56]	; 0x38
 8004af4:	701a      	strb	r2, [r3, #0]
 8004af6:	e003      	b.n	8004b00 <HAL_SPI_Receive+0x134>
 8004af8:	68d2      	ldr	r2, [r2, #12]
 8004afa:	f823 2b02 	strh.w	r2, [r3], #2
 8004afe:	63a3      	str	r3, [r4, #56]	; 0x38
 8004b00:	8fe3      	ldrh	r3, [r4, #62]	; 0x3e
 8004b02:	3b01      	subs	r3, #1
 8004b04:	87e3      	strh	r3, [r4, #62]	; 0x3e
 8004b06:	6aa3      	ldr	r3, [r4, #40]	; 0x28
 8004b08:	f5b3 5f00 	cmp.w	r3, #8192	; 0x2000
 8004b0c:	d113      	bne.n	8004b36 <HAL_SPI_Receive+0x16a>
 8004b0e:	4620      	mov	r0, r4
 8004b10:	2101      	movs	r1, #1
 8004b12:	2200      	movs	r2, #0
 8004b14:	4633      	mov	r3, r6
 8004b16:	f7ff fc75 	bl	8004404 <_ZL26SPI_WaitOnFlagUntilTimeoutP19__SPI_HandleTypeDefj10FlagStatusj>
 8004b1a:	b128      	cbz	r0, 8004b28 <HAL_SPI_Receive+0x15c>
 8004b1c:	6d63      	ldr	r3, [r4, #84]	; 0x54
 8004b1e:	f043 0302 	orr.w	r3, r3, #2
 8004b22:	6563      	str	r3, [r4, #84]	; 0x54
 8004b24:	2503      	movs	r5, #3
 8004b26:	e036      	b.n	8004b96 <HAL_SPI_Receive+0x1ca>
 8004b28:	6823      	ldr	r3, [r4, #0]
 8004b2a:	68db      	ldr	r3, [r3, #12]
 8004b2c:	b29b      	uxth	r3, r3
 8004b2e:	f8ad 300e 	strh.w	r3, [sp, #14]
 8004b32:	f8bd 300e 	ldrh.w	r3, [sp, #14]
 8004b36:	6863      	ldr	r3, [r4, #4]
 8004b38:	f5b3 7f82 	cmp.w	r3, #260	; 0x104
 8004b3c:	6823      	ldr	r3, [r4, #0]
 8004b3e:	d10a      	bne.n	8004b56 <HAL_SPI_Receive+0x18a>
 8004b40:	68a2      	ldr	r2, [r4, #8]
 8004b42:	f5b2 4f00 	cmp.w	r2, #32768	; 0x8000
 8004b46:	d002      	beq.n	8004b4e <HAL_SPI_Receive+0x182>
 8004b48:	f5b2 6f80 	cmp.w	r2, #1024	; 0x400
 8004b4c:	d103      	bne.n	8004b56 <HAL_SPI_Receive+0x18a>
 8004b4e:	681a      	ldr	r2, [r3, #0]
 8004b50:	f022 0240 	bic.w	r2, r2, #64	; 0x40
 8004b54:	601a      	str	r2, [r3, #0]
 8004b56:	6aa1      	ldr	r1, [r4, #40]	; 0x28
 8004b58:	2201      	movs	r2, #1
 8004b5a:	f884 2051 	strb.w	r2, [r4, #81]	; 0x51
 8004b5e:	f5b1 5f00 	cmp.w	r1, #8192	; 0x2000
 8004b62:	6898      	ldr	r0, [r3, #8]
 8004b64:	d112      	bne.n	8004b8c <HAL_SPI_Receive+0x1c0>
 8004b66:	06c6      	lsls	r6, r0, #27
 8004b68:	d510      	bpl.n	8004b8c <HAL_SPI_Receive+0x1c0>
 8004b6a:	6d61      	ldr	r1, [r4, #84]	; 0x54
 8004b6c:	f041 0102 	orr.w	r1, r1, #2
 8004b70:	6561      	str	r1, [r4, #84]	; 0x54
 8004b72:	6819      	ldr	r1, [r3, #0]
 8004b74:	f421 5100 	bic.w	r1, r1, #8192	; 0x2000
 8004b78:	6019      	str	r1, [r3, #0]
 8004b7a:	6819      	ldr	r1, [r3, #0]
 8004b7c:	f441 5100 	orr.w	r1, r1, #8192	; 0x2000
 8004b80:	6019      	str	r1, [r3, #0]
 8004b82:	2300      	movs	r3, #0
 8004b84:	f884 3050 	strb.w	r3, [r4, #80]	; 0x50
 8004b88:	4615      	mov	r5, r2
 8004b8a:	e004      	b.n	8004b96 <HAL_SPI_Receive+0x1ca>
 8004b8c:	2300      	movs	r3, #0
 8004b8e:	f884 3050 	strb.w	r3, [r4, #80]	; 0x50
 8004b92:	e000      	b.n	8004b96 <HAL_SPI_Receive+0x1ca>
 8004b94:	2502      	movs	r5, #2
 8004b96:	4628      	mov	r0, r5
 8004b98:	b005      	add	sp, #20
 8004b9a:	bdf0      	pop	{r4, r5, r6, r7, pc}

08004b9c <HAL_SPI_Transmit_IT>:
 8004b9c:	f890 3051 	ldrb.w	r3, [r0, #81]	; 0x51
 8004ba0:	b2db      	uxtb	r3, r3
 8004ba2:	2b01      	cmp	r3, #1
 8004ba4:	b510      	push	{r4, lr}
 8004ba6:	d143      	bne.n	8004c30 <HAL_SPI_Transmit_IT+0x94>
 8004ba8:	2900      	cmp	r1, #0
 8004baa:	d03f      	beq.n	8004c2c <HAL_SPI_Transmit_IT+0x90>
 8004bac:	2a00      	cmp	r2, #0
 8004bae:	d03d      	beq.n	8004c2c <HAL_SPI_Transmit_IT+0x90>
 8004bb0:	f890 4050 	ldrb.w	r4, [r0, #80]	; 0x50
 8004bb4:	2c01      	cmp	r4, #1
 8004bb6:	d03b      	beq.n	8004c30 <HAL_SPI_Transmit_IT+0x94>
 8004bb8:	8682      	strh	r2, [r0, #52]	; 0x34
 8004bba:	86c2      	strh	r2, [r0, #54]	; 0x36
 8004bbc:	6882      	ldr	r2, [r0, #8]
 8004bbe:	f880 3050 	strb.w	r3, [r0, #80]	; 0x50
 8004bc2:	4c1d      	ldr	r4, [pc, #116]	; (8004c38 <HAL_SPI_Transmit_IT+0x9c>)
 8004bc4:	6301      	str	r1, [r0, #48]	; 0x30
 8004bc6:	2312      	movs	r3, #18
 8004bc8:	f880 3051 	strb.w	r3, [r0, #81]	; 0x51
 8004bcc:	f5b2 4f00 	cmp.w	r2, #32768	; 0x8000
 8004bd0:	f04f 0300 	mov.w	r3, #0
 8004bd4:	6543      	str	r3, [r0, #84]	; 0x54
 8004bd6:	6483      	str	r3, [r0, #72]	; 0x48
 8004bd8:	8783      	strh	r3, [r0, #60]	; 0x3c
 8004bda:	87c3      	strh	r3, [r0, #62]	; 0x3e
 8004bdc:	64c4      	str	r4, [r0, #76]	; 0x4c
 8004bde:	6803      	ldr	r3, [r0, #0]
 8004be0:	d103      	bne.n	8004bea <HAL_SPI_Transmit_IT+0x4e>
 8004be2:	6819      	ldr	r1, [r3, #0]
 8004be4:	f441 4180 	orr.w	r1, r1, #16384	; 0x4000
 8004be8:	6019      	str	r1, [r3, #0]
 8004bea:	6a81      	ldr	r1, [r0, #40]	; 0x28
 8004bec:	f5b1 5f00 	cmp.w	r1, #8192	; 0x2000
 8004bf0:	d107      	bne.n	8004c02 <HAL_SPI_Transmit_IT+0x66>
 8004bf2:	6819      	ldr	r1, [r3, #0]
 8004bf4:	f421 5100 	bic.w	r1, r1, #8192	; 0x2000
 8004bf8:	6019      	str	r1, [r3, #0]
 8004bfa:	6819      	ldr	r1, [r3, #0]
 8004bfc:	f441 5100 	orr.w	r1, r1, #8192	; 0x2000
 8004c00:	6019      	str	r1, [r3, #0]
 8004c02:	b91a      	cbnz	r2, 8004c0c <HAL_SPI_Transmit_IT+0x70>
 8004c04:	685a      	ldr	r2, [r3, #4]
 8004c06:	f042 0280 	orr.w	r2, r2, #128	; 0x80
 8004c0a:	e002      	b.n	8004c12 <HAL_SPI_Transmit_IT+0x76>
 8004c0c:	685a      	ldr	r2, [r3, #4]
 8004c0e:	f042 02a0 	orr.w	r2, r2, #160	; 0xa0
 8004c12:	605a      	str	r2, [r3, #4]
 8004c14:	2200      	movs	r2, #0
 8004c16:	f880 2050 	strb.w	r2, [r0, #80]	; 0x50
 8004c1a:	6818      	ldr	r0, [r3, #0]
 8004c1c:	f010 0040 	ands.w	r0, r0, #64	; 0x40
 8004c20:	d108      	bne.n	8004c34 <HAL_SPI_Transmit_IT+0x98>
 8004c22:	681a      	ldr	r2, [r3, #0]
 8004c24:	f042 0240 	orr.w	r2, r2, #64	; 0x40
 8004c28:	601a      	str	r2, [r3, #0]
 8004c2a:	bd10      	pop	{r4, pc}
 8004c2c:	4618      	mov	r0, r3
 8004c2e:	bd10      	pop	{r4, pc}
 8004c30:	2002      	movs	r0, #2
 8004c32:	bd10      	pop	{r4, pc}
 8004c34:	4610      	mov	r0, r2
 8004c36:	bd10      	pop	{r4, pc}
 8004c38:	080050c5 	.word	0x080050c5

08004c3c <HAL_SPI_TransmitReceive_IT>:
 8004c3c:	b530      	push	{r4, r5, lr}
 8004c3e:	f890 4051 	ldrb.w	r4, [r0, #81]	; 0x51
 8004c42:	b2e4      	uxtb	r4, r4
 8004c44:	2c01      	cmp	r4, #1
 8004c46:	d008      	beq.n	8004c5a <HAL_SPI_TransmitReceive_IT+0x1e>
 8004c48:	6845      	ldr	r5, [r0, #4]
 8004c4a:	f5b5 7f82 	cmp.w	r5, #260	; 0x104
 8004c4e:	d143      	bne.n	8004cd8 <HAL_SPI_TransmitReceive_IT+0x9c>
 8004c50:	6885      	ldr	r5, [r0, #8]
 8004c52:	2d00      	cmp	r5, #0
 8004c54:	d140      	bne.n	8004cd8 <HAL_SPI_TransmitReceive_IT+0x9c>
 8004c56:	2c22      	cmp	r4, #34	; 0x22
 8004c58:	d13e      	bne.n	8004cd8 <HAL_SPI_TransmitReceive_IT+0x9c>
 8004c5a:	2900      	cmp	r1, #0
 8004c5c:	d03a      	beq.n	8004cd4 <HAL_SPI_TransmitReceive_IT+0x98>
 8004c5e:	2a00      	cmp	r2, #0
 8004c60:	d038      	beq.n	8004cd4 <HAL_SPI_TransmitReceive_IT+0x98>
 8004c62:	2b00      	cmp	r3, #0
 8004c64:	d036      	beq.n	8004cd4 <HAL_SPI_TransmitReceive_IT+0x98>
 8004c66:	f890 4050 	ldrb.w	r4, [r0, #80]	; 0x50
 8004c6a:	2c01      	cmp	r4, #1
 8004c6c:	d034      	beq.n	8004cd8 <HAL_SPI_TransmitReceive_IT+0x9c>
 8004c6e:	2401      	movs	r4, #1
 8004c70:	f880 4050 	strb.w	r4, [r0, #80]	; 0x50
 8004c74:	f890 4051 	ldrb.w	r4, [r0, #81]	; 0x51
 8004c78:	8683      	strh	r3, [r0, #52]	; 0x34
 8004c7a:	2c22      	cmp	r4, #34	; 0x22
 8004c7c:	bf1c      	itt	ne
 8004c7e:	2432      	movne	r4, #50	; 0x32
 8004c80:	f880 4051 	strbne.w	r4, [r0, #81]	; 0x51
 8004c84:	86c3      	strh	r3, [r0, #54]	; 0x36
 8004c86:	2400      	movs	r4, #0
 8004c88:	8783      	strh	r3, [r0, #60]	; 0x3c
 8004c8a:	87c3      	strh	r3, [r0, #62]	; 0x3e
 8004c8c:	6a83      	ldr	r3, [r0, #40]	; 0x28
 8004c8e:	6544      	str	r4, [r0, #84]	; 0x54
 8004c90:	6301      	str	r1, [r0, #48]	; 0x30
 8004c92:	4c13      	ldr	r4, [pc, #76]	; (8004ce0 <HAL_SPI_TransmitReceive_IT+0xa4>)
 8004c94:	4913      	ldr	r1, [pc, #76]	; (8004ce4 <HAL_SPI_TransmitReceive_IT+0xa8>)
 8004c96:	64c4      	str	r4, [r0, #76]	; 0x4c
 8004c98:	f5b3 5f00 	cmp.w	r3, #8192	; 0x2000
 8004c9c:	6481      	str	r1, [r0, #72]	; 0x48
 8004c9e:	6382      	str	r2, [r0, #56]	; 0x38
 8004ca0:	6803      	ldr	r3, [r0, #0]
 8004ca2:	d107      	bne.n	8004cb4 <HAL_SPI_TransmitReceive_IT+0x78>
 8004ca4:	681a      	ldr	r2, [r3, #0]
 8004ca6:	f422 5200 	bic.w	r2, r2, #8192	; 0x2000
 8004caa:	601a      	str	r2, [r3, #0]
 8004cac:	681a      	ldr	r2, [r3, #0]
 8004cae:	f442 5200 	orr.w	r2, r2, #8192	; 0x2000
 8004cb2:	601a      	str	r2, [r3, #0]
 8004cb4:	685a      	ldr	r2, [r3, #4]
 8004cb6:	f042 02e0 	orr.w	r2, r2, #224	; 0xe0
 8004cba:	605a      	str	r2, [r3, #4]
 8004cbc:	2200      	movs	r2, #0
 8004cbe:	f880 2050 	strb.w	r2, [r0, #80]	; 0x50
 8004cc2:	6818      	ldr	r0, [r3, #0]
 8004cc4:	f010 0040 	ands.w	r0, r0, #64	; 0x40
 8004cc8:	d108      	bne.n	8004cdc <HAL_SPI_TransmitReceive_IT+0xa0>
 8004cca:	681a      	ldr	r2, [r3, #0]
 8004ccc:	f042 0240 	orr.w	r2, r2, #64	; 0x40
 8004cd0:	601a      	str	r2, [r3, #0]
 8004cd2:	bd30      	pop	{r4, r5, pc}
 8004cd4:	2001      	movs	r0, #1
 8004cd6:	bd30      	pop	{r4, r5, pc}
 8004cd8:	2002      	movs	r0, #2
 8004cda:	bd30      	pop	{r4, r5, pc}
 8004cdc:	4610      	mov	r0, r2
 8004cde:	bd30      	pop	{r4, r5, pc}
 8004ce0:	080050c5 	.word	0x080050c5
 8004ce4:	08005295 	.word	0x08005295

08004ce8 <HAL_SPI_Receive_IT>:
 8004ce8:	b570      	push	{r4, r5, r6, lr}
 8004cea:	f890 5051 	ldrb.w	r5, [r0, #81]	; 0x51
 8004cee:	b2ed      	uxtb	r5, r5
 8004cf0:	2d01      	cmp	r5, #1
 8004cf2:	4604      	mov	r4, r0
 8004cf4:	4613      	mov	r3, r2
 8004cf6:	d14b      	bne.n	8004d90 <HAL_SPI_Receive_IT+0xa8>
 8004cf8:	2900      	cmp	r1, #0
 8004cfa:	d047      	beq.n	8004d8c <HAL_SPI_Receive_IT+0xa4>
 8004cfc:	2a00      	cmp	r2, #0
 8004cfe:	d045      	beq.n	8004d8c <HAL_SPI_Receive_IT+0xa4>
 8004d00:	f890 2050 	ldrb.w	r2, [r0, #80]	; 0x50
 8004d04:	2a01      	cmp	r2, #1
 8004d06:	d043      	beq.n	8004d90 <HAL_SPI_Receive_IT+0xa8>
 8004d08:	2222      	movs	r2, #34	; 0x22
 8004d0a:	f880 2051 	strb.w	r2, [r0, #81]	; 0x51
 8004d0e:	4a22      	ldr	r2, [pc, #136]	; (8004d98 <HAL_SPI_Receive_IT+0xb0>)
 8004d10:	f880 5050 	strb.w	r5, [r0, #80]	; 0x50
 8004d14:	6482      	str	r2, [r0, #72]	; 0x48
 8004d16:	6882      	ldr	r2, [r0, #8]
 8004d18:	2500      	movs	r5, #0
 8004d1a:	f5b2 4f00 	cmp.w	r2, #32768	; 0x8000
 8004d1e:	6545      	str	r5, [r0, #84]	; 0x54
 8004d20:	63a1      	str	r1, [r4, #56]	; 0x38
 8004d22:	8783      	strh	r3, [r0, #60]	; 0x3c
 8004d24:	87c3      	strh	r3, [r0, #62]	; 0x3e
 8004d26:	64c5      	str	r5, [r0, #76]	; 0x4c
 8004d28:	8685      	strh	r5, [r0, #52]	; 0x34
 8004d2a:	86c5      	strh	r5, [r0, #54]	; 0x36
 8004d2c:	d105      	bne.n	8004d3a <HAL_SPI_Receive_IT+0x52>
 8004d2e:	6803      	ldr	r3, [r0, #0]
 8004d30:	681a      	ldr	r2, [r3, #0]
 8004d32:	f422 4280 	bic.w	r2, r2, #16384	; 0x4000
 8004d36:	601a      	str	r2, [r3, #0]
 8004d38:	e00b      	b.n	8004d52 <HAL_SPI_Receive_IT+0x6a>
 8004d3a:	b952      	cbnz	r2, 8004d52 <HAL_SPI_Receive_IT+0x6a>
 8004d3c:	6845      	ldr	r5, [r0, #4]
 8004d3e:	f5b5 7f82 	cmp.w	r5, #260	; 0x104
 8004d42:	d106      	bne.n	8004d52 <HAL_SPI_Receive_IT+0x6a>
 8004d44:	f880 2050 	strb.w	r2, [r0, #80]	; 0x50
 8004d48:	e8bd 4070 	ldmia.w	sp!, {r4, r5, r6, lr}
 8004d4c:	460a      	mov	r2, r1
 8004d4e:	f7ff bf75 	b.w	8004c3c <HAL_SPI_TransmitReceive_IT>
 8004d52:	6aa3      	ldr	r3, [r4, #40]	; 0x28
 8004d54:	f5b3 5f00 	cmp.w	r3, #8192	; 0x2000
 8004d58:	6823      	ldr	r3, [r4, #0]
 8004d5a:	d107      	bne.n	8004d6c <HAL_SPI_Receive_IT+0x84>
 8004d5c:	681a      	ldr	r2, [r3, #0]
 8004d5e:	f422 5200 	bic.w	r2, r2, #8192	; 0x2000
 8004d62:	601a      	str	r2, [r3, #0]
 8004d64:	681a      	ldr	r2, [r3, #0]
 8004d66:	f442 5200 	orr.w	r2, r2, #8192	; 0x2000
 8004d6a:	601a      	str	r2, [r3, #0]
 8004d6c:	685a      	ldr	r2, [r3, #4]
 8004d6e:	f042 0260 	orr.w	r2, r2, #96	; 0x60
 8004d72:	605a      	str	r2, [r3, #4]
 8004d74:	6818      	ldr	r0, [r3, #0]
 8004d76:	2200      	movs	r2, #0
 8004d78:	f010 0040 	ands.w	r0, r0, #64	; 0x40
 8004d7c:	f884 2050 	strb.w	r2, [r4, #80]	; 0x50
 8004d80:	d108      	bne.n	8004d94 <HAL_SPI_Receive_IT+0xac>
 8004d82:	681a      	ldr	r2, [r3, #0]
 8004d84:	f042 0240 	orr.w	r2, r2, #64	; 0x40
 8004d88:	601a      	str	r2, [r3, #0]
 8004d8a:	bd70      	pop	{r4, r5, r6, pc}
 8004d8c:	4628      	mov	r0, r5
 8004d8e:	bd70      	pop	{r4, r5, r6, pc}
 8004d90:	2002      	movs	r0, #2
 8004d92:	bd70      	pop	{r4, r5, r6, pc}
 8004d94:	4610      	mov	r0, r2
 8004d96:	bd70      	pop	{r4, r5, r6, pc}
 8004d98:	08005255 	.word	0x08005255

08004d9c <HAL_SPI_Transmit_DMA>:
 8004d9c:	b538      	push	{r3, r4, r5, lr}
 8004d9e:	4604      	mov	r4, r0
 8004da0:	f890 0051 	ldrb.w	r0, [r0, #81]	; 0x51
 8004da4:	b2c0      	uxtb	r0, r0
 8004da6:	2801      	cmp	r0, #1
 8004da8:	4613      	mov	r3, r2
 8004daa:	d147      	bne.n	8004e3c <HAL_SPI_Transmit_DMA+0xa0>
 8004dac:	2900      	cmp	r1, #0
 8004dae:	d046      	beq.n	8004e3e <HAL_SPI_Transmit_DMA+0xa2>
 8004db0:	2a00      	cmp	r2, #0
 8004db2:	d044      	beq.n	8004e3e <HAL_SPI_Transmit_DMA+0xa2>
 8004db4:	f894 2050 	ldrb.w	r2, [r4, #80]	; 0x50
 8004db8:	2a01      	cmp	r2, #1
 8004dba:	d03f      	beq.n	8004e3c <HAL_SPI_Transmit_DMA+0xa0>
 8004dbc:	2212      	movs	r2, #18
 8004dbe:	f884 2051 	strb.w	r2, [r4, #81]	; 0x51
 8004dc2:	68a2      	ldr	r2, [r4, #8]
 8004dc4:	f884 0050 	strb.w	r0, [r4, #80]	; 0x50
 8004dc8:	f5b2 4f00 	cmp.w	r2, #32768	; 0x8000
 8004dcc:	f04f 0000 	mov.w	r0, #0
 8004dd0:	6560      	str	r0, [r4, #84]	; 0x54
 8004dd2:	6321      	str	r1, [r4, #48]	; 0x30
 8004dd4:	86a3      	strh	r3, [r4, #52]	; 0x34
 8004dd6:	86e3      	strh	r3, [r4, #54]	; 0x36
 8004dd8:	64e0      	str	r0, [r4, #76]	; 0x4c
 8004dda:	64a0      	str	r0, [r4, #72]	; 0x48
 8004ddc:	87a0      	strh	r0, [r4, #60]	; 0x3c
 8004dde:	87e0      	strh	r0, [r4, #62]	; 0x3e
 8004de0:	6825      	ldr	r5, [r4, #0]
 8004de2:	d103      	bne.n	8004dec <HAL_SPI_Transmit_DMA+0x50>
 8004de4:	682a      	ldr	r2, [r5, #0]
 8004de6:	f442 4280 	orr.w	r2, r2, #16384	; 0x4000
 8004dea:	602a      	str	r2, [r5, #0]
 8004dec:	6aa2      	ldr	r2, [r4, #40]	; 0x28
 8004dee:	f5b2 5f00 	cmp.w	r2, #8192	; 0x2000
 8004df2:	d107      	bne.n	8004e04 <HAL_SPI_Transmit_DMA+0x68>
 8004df4:	682a      	ldr	r2, [r5, #0]
 8004df6:	f422 5200 	bic.w	r2, r2, #8192	; 0x2000
 8004dfa:	602a      	str	r2, [r5, #0]
 8004dfc:	682a      	ldr	r2, [r5, #0]
 8004dfe:	f442 5200 	orr.w	r2, r2, #8192	; 0x2000
 8004e02:	602a      	str	r2, [r5, #0]
 8004e04:	6c20      	ldr	r0, [r4, #64]	; 0x40
 8004e06:	4a0e      	ldr	r2, [pc, #56]	; (8004e40 <HAL_SPI_Transmit_DMA+0xa4>)
 8004e08:	6402      	str	r2, [r0, #64]	; 0x40
 8004e0a:	4a0e      	ldr	r2, [pc, #56]	; (8004e44 <HAL_SPI_Transmit_DMA+0xa8>)
 8004e0c:	63c2      	str	r2, [r0, #60]	; 0x3c
 8004e0e:	4a0e      	ldr	r2, [pc, #56]	; (8004e48 <HAL_SPI_Transmit_DMA+0xac>)
 8004e10:	6482      	str	r2, [r0, #72]	; 0x48
 8004e12:	f105 020c 	add.w	r2, r5, #12
 8004e16:	f7fb fe34 	bl	8000a82 <HAL_DMA_Start_IT>
 8004e1a:	2300      	movs	r3, #0
 8004e1c:	f884 3050 	strb.w	r3, [r4, #80]	; 0x50
 8004e20:	6823      	ldr	r3, [r4, #0]
 8004e22:	681a      	ldr	r2, [r3, #0]
 8004e24:	0652      	lsls	r2, r2, #25
 8004e26:	d403      	bmi.n	8004e30 <HAL_SPI_Transmit_DMA+0x94>
 8004e28:	681a      	ldr	r2, [r3, #0]
 8004e2a:	f042 0240 	orr.w	r2, r2, #64	; 0x40
 8004e2e:	601a      	str	r2, [r3, #0]
 8004e30:	685a      	ldr	r2, [r3, #4]
 8004e32:	f042 0202 	orr.w	r2, r2, #2
 8004e36:	605a      	str	r2, [r3, #4]
 8004e38:	2000      	movs	r0, #0
 8004e3a:	bd38      	pop	{r3, r4, r5, pc}
 8004e3c:	2002      	movs	r0, #2
 8004e3e:	bd38      	pop	{r3, r4, r5, pc}
 8004e40:	080050a1 	.word	0x080050a1
 8004e44:	080052db 	.word	0x080052db
 8004e48:	080052bd 	.word	0x080052bd

08004e4c <HAL_SPI_TransmitReceive_DMA>:
 8004e4c:	b570      	push	{r4, r5, r6, lr}
 8004e4e:	4604      	mov	r4, r0
 8004e50:	f890 0051 	ldrb.w	r0, [r0, #81]	; 0x51
 8004e54:	b2c0      	uxtb	r0, r0
 8004e56:	2801      	cmp	r0, #1
 8004e58:	d008      	beq.n	8004e6c <HAL_SPI_TransmitReceive_DMA+0x20>
 8004e5a:	6865      	ldr	r5, [r4, #4]
 8004e5c:	f5b5 7f82 	cmp.w	r5, #260	; 0x104
 8004e60:	d166      	bne.n	8004f30 <HAL_SPI_TransmitReceive_DMA+0xe4>
 8004e62:	68a5      	ldr	r5, [r4, #8]
 8004e64:	2d00      	cmp	r5, #0
 8004e66:	d163      	bne.n	8004f30 <HAL_SPI_TransmitReceive_DMA+0xe4>
 8004e68:	2822      	cmp	r0, #34	; 0x22
 8004e6a:	d161      	bne.n	8004f30 <HAL_SPI_TransmitReceive_DMA+0xe4>
 8004e6c:	2900      	cmp	r1, #0
 8004e6e:	d05d      	beq.n	8004f2c <HAL_SPI_TransmitReceive_DMA+0xe0>
 8004e70:	2a00      	cmp	r2, #0
 8004e72:	d05b      	beq.n	8004f2c <HAL_SPI_TransmitReceive_DMA+0xe0>
 8004e74:	2b00      	cmp	r3, #0
 8004e76:	d059      	beq.n	8004f2c <HAL_SPI_TransmitReceive_DMA+0xe0>
 8004e78:	f894 0050 	ldrb.w	r0, [r4, #80]	; 0x50
 8004e7c:	2801      	cmp	r0, #1
 8004e7e:	d057      	beq.n	8004f30 <HAL_SPI_TransmitReceive_DMA+0xe4>
 8004e80:	2001      	movs	r0, #1
 8004e82:	f884 0050 	strb.w	r0, [r4, #80]	; 0x50
 8004e86:	f894 0051 	ldrb.w	r0, [r4, #81]	; 0x51
 8004e8a:	6321      	str	r1, [r4, #48]	; 0x30
 8004e8c:	2822      	cmp	r0, #34	; 0x22
 8004e8e:	6aa1      	ldr	r1, [r4, #40]	; 0x28
 8004e90:	86a3      	strh	r3, [r4, #52]	; 0x34
 8004e92:	bf1c      	itt	ne
 8004e94:	2032      	movne	r0, #50	; 0x32
 8004e96:	f884 0051 	strbne.w	r0, [r4, #81]	; 0x51
 8004e9a:	2000      	movs	r0, #0
 8004e9c:	f5b1 5f00 	cmp.w	r1, #8192	; 0x2000
 8004ea0:	6560      	str	r0, [r4, #84]	; 0x54
 8004ea2:	86e3      	strh	r3, [r4, #54]	; 0x36
 8004ea4:	63a2      	str	r2, [r4, #56]	; 0x38
 8004ea6:	87a3      	strh	r3, [r4, #60]	; 0x3c
 8004ea8:	87e3      	strh	r3, [r4, #62]	; 0x3e
 8004eaa:	64a0      	str	r0, [r4, #72]	; 0x48
 8004eac:	64e0      	str	r0, [r4, #76]	; 0x4c
 8004eae:	6821      	ldr	r1, [r4, #0]
 8004eb0:	d107      	bne.n	8004ec2 <HAL_SPI_TransmitReceive_DMA+0x76>
 8004eb2:	6808      	ldr	r0, [r1, #0]
 8004eb4:	f420 5000 	bic.w	r0, r0, #8192	; 0x2000
 8004eb8:	6008      	str	r0, [r1, #0]
 8004eba:	6808      	ldr	r0, [r1, #0]
 8004ebc:	f440 5000 	orr.w	r0, r0, #8192	; 0x2000
 8004ec0:	6008      	str	r0, [r1, #0]
 8004ec2:	f894 0051 	ldrb.w	r0, [r4, #81]	; 0x51
 8004ec6:	2822      	cmp	r0, #34	; 0x22
 8004ec8:	6c60      	ldr	r0, [r4, #68]	; 0x44
 8004eca:	d103      	bne.n	8004ed4 <HAL_SPI_TransmitReceive_DMA+0x88>
 8004ecc:	4d19      	ldr	r5, [pc, #100]	; (8004f34 <HAL_SPI_TransmitReceive_DMA+0xe8>)
 8004ece:	6405      	str	r5, [r0, #64]	; 0x40
 8004ed0:	4d19      	ldr	r5, [pc, #100]	; (8004f38 <HAL_SPI_TransmitReceive_DMA+0xec>)
 8004ed2:	e002      	b.n	8004eda <HAL_SPI_TransmitReceive_DMA+0x8e>
 8004ed4:	4d19      	ldr	r5, [pc, #100]	; (8004f3c <HAL_SPI_TransmitReceive_DMA+0xf0>)
 8004ed6:	6405      	str	r5, [r0, #64]	; 0x40
 8004ed8:	4d19      	ldr	r5, [pc, #100]	; (8004f40 <HAL_SPI_TransmitReceive_DMA+0xf4>)
 8004eda:	4e1a      	ldr	r6, [pc, #104]	; (8004f44 <HAL_SPI_TransmitReceive_DMA+0xf8>)
 8004edc:	63c5      	str	r5, [r0, #60]	; 0x3c
 8004ede:	6486      	str	r6, [r0, #72]	; 0x48
 8004ee0:	310c      	adds	r1, #12
 8004ee2:	f7fb fdce 	bl	8000a82 <HAL_DMA_Start_IT>
 8004ee6:	6822      	ldr	r2, [r4, #0]
 8004ee8:	6c20      	ldr	r0, [r4, #64]	; 0x40
 8004eea:	6853      	ldr	r3, [r2, #4]
 8004eec:	6b21      	ldr	r1, [r4, #48]	; 0x30
 8004eee:	f043 0301 	orr.w	r3, r3, #1
 8004ef2:	6053      	str	r3, [r2, #4]
 8004ef4:	f894 3051 	ldrb.w	r3, [r4, #81]	; 0x51
 8004ef8:	2500      	movs	r5, #0
 8004efa:	2b32      	cmp	r3, #50	; 0x32
 8004efc:	bf18      	it	ne
 8004efe:	462e      	movne	r6, r5
 8004f00:	320c      	adds	r2, #12
 8004f02:	8ee3      	ldrh	r3, [r4, #54]	; 0x36
 8004f04:	63c5      	str	r5, [r0, #60]	; 0x3c
 8004f06:	6486      	str	r6, [r0, #72]	; 0x48
 8004f08:	f7fb fdbb 	bl	8000a82 <HAL_DMA_Start_IT>
 8004f0c:	6823      	ldr	r3, [r4, #0]
 8004f0e:	f884 5050 	strb.w	r5, [r4, #80]	; 0x50
 8004f12:	681a      	ldr	r2, [r3, #0]
 8004f14:	0651      	lsls	r1, r2, #25
 8004f16:	d403      	bmi.n	8004f20 <HAL_SPI_TransmitReceive_DMA+0xd4>
 8004f18:	681a      	ldr	r2, [r3, #0]
 8004f1a:	f042 0240 	orr.w	r2, r2, #64	; 0x40
 8004f1e:	601a      	str	r2, [r3, #0]
 8004f20:	685a      	ldr	r2, [r3, #4]
 8004f22:	f042 0202 	orr.w	r2, r2, #2
 8004f26:	605a      	str	r2, [r3, #4]
 8004f28:	2000      	movs	r0, #0
 8004f2a:	bd70      	pop	{r4, r5, r6, pc}
 8004f2c:	2001      	movs	r0, #1
 8004f2e:	bd70      	pop	{r4, r5, r6, pc}
 8004f30:	2002      	movs	r0, #2
 8004f32:	bd70      	pop	{r4, r5, r6, pc}
 8004f34:	080050ad 	.word	0x080050ad
 8004f38:	0800534b 	.word	0x0800534b
 8004f3c:	080050b9 	.word	0x080050b9
 8004f40:	08005409 	.word	0x08005409
 8004f44:	080052bd 	.word	0x080052bd

08004f48 <HAL_SPI_Receive_DMA>:
 8004f48:	4613      	mov	r3, r2
 8004f4a:	f890 2051 	ldrb.w	r2, [r0, #81]	; 0x51
 8004f4e:	b2d2      	uxtb	r2, r2
 8004f50:	2a01      	cmp	r2, #1
 8004f52:	b570      	push	{r4, r5, r6, lr}
 8004f54:	4604      	mov	r4, r0
 8004f56:	460e      	mov	r6, r1
 8004f58:	d156      	bne.n	8005008 <HAL_SPI_Receive_DMA+0xc0>
 8004f5a:	2900      	cmp	r1, #0
 8004f5c:	d052      	beq.n	8005004 <HAL_SPI_Receive_DMA+0xbc>
 8004f5e:	2b00      	cmp	r3, #0
 8004f60:	d050      	beq.n	8005004 <HAL_SPI_Receive_DMA+0xbc>
 8004f62:	f890 5050 	ldrb.w	r5, [r0, #80]	; 0x50
 8004f66:	2d01      	cmp	r5, #1
 8004f68:	d04e      	beq.n	8005008 <HAL_SPI_Receive_DMA+0xc0>
 8004f6a:	f880 2050 	strb.w	r2, [r0, #80]	; 0x50
 8004f6e:	2222      	movs	r2, #34	; 0x22
 8004f70:	f880 2051 	strb.w	r2, [r0, #81]	; 0x51
 8004f74:	6882      	ldr	r2, [r0, #8]
 8004f76:	2500      	movs	r5, #0
 8004f78:	f5b2 4f00 	cmp.w	r2, #32768	; 0x8000
 8004f7c:	6545      	str	r5, [r0, #84]	; 0x54
 8004f7e:	63a1      	str	r1, [r4, #56]	; 0x38
 8004f80:	8783      	strh	r3, [r0, #60]	; 0x3c
 8004f82:	87c3      	strh	r3, [r0, #62]	; 0x3e
 8004f84:	6485      	str	r5, [r0, #72]	; 0x48
 8004f86:	64c5      	str	r5, [r0, #76]	; 0x4c
 8004f88:	8685      	strh	r5, [r0, #52]	; 0x34
 8004f8a:	86c5      	strh	r5, [r0, #54]	; 0x36
 8004f8c:	d105      	bne.n	8004f9a <HAL_SPI_Receive_DMA+0x52>
 8004f8e:	6802      	ldr	r2, [r0, #0]
 8004f90:	6811      	ldr	r1, [r2, #0]
 8004f92:	f421 4180 	bic.w	r1, r1, #16384	; 0x4000
 8004f96:	6011      	str	r1, [r2, #0]
 8004f98:	e00b      	b.n	8004fb2 <HAL_SPI_Receive_DMA+0x6a>
 8004f9a:	b952      	cbnz	r2, 8004fb2 <HAL_SPI_Receive_DMA+0x6a>
 8004f9c:	6845      	ldr	r5, [r0, #4]
 8004f9e:	f5b5 7f82 	cmp.w	r5, #260	; 0x104
 8004fa2:	d106      	bne.n	8004fb2 <HAL_SPI_Receive_DMA+0x6a>
 8004fa4:	f880 2050 	strb.w	r2, [r0, #80]	; 0x50
 8004fa8:	e8bd 4070 	ldmia.w	sp!, {r4, r5, r6, lr}
 8004fac:	460a      	mov	r2, r1
 8004fae:	f7ff bf4d 	b.w	8004e4c <HAL_SPI_TransmitReceive_DMA>
 8004fb2:	6aa2      	ldr	r2, [r4, #40]	; 0x28
 8004fb4:	6821      	ldr	r1, [r4, #0]
 8004fb6:	f5b2 5f00 	cmp.w	r2, #8192	; 0x2000
 8004fba:	d107      	bne.n	8004fcc <HAL_SPI_Receive_DMA+0x84>
 8004fbc:	680a      	ldr	r2, [r1, #0]
 8004fbe:	f422 5200 	bic.w	r2, r2, #8192	; 0x2000
 8004fc2:	600a      	str	r2, [r1, #0]
 8004fc4:	680a      	ldr	r2, [r1, #0]
 8004fc6:	f442 5200 	orr.w	r2, r2, #8192	; 0x2000
 8004fca:	600a      	str	r2, [r1, #0]
 8004fcc:	6c60      	ldr	r0, [r4, #68]	; 0x44
 8004fce:	4a0f      	ldr	r2, [pc, #60]	; (800500c <HAL_SPI_Receive_DMA+0xc4>)
 8004fd0:	6402      	str	r2, [r0, #64]	; 0x40
 8004fd2:	4a0f      	ldr	r2, [pc, #60]	; (8005010 <HAL_SPI_Receive_DMA+0xc8>)
 8004fd4:	63c2      	str	r2, [r0, #60]	; 0x3c
 8004fd6:	4a0f      	ldr	r2, [pc, #60]	; (8005014 <HAL_SPI_Receive_DMA+0xcc>)
 8004fd8:	310c      	adds	r1, #12
 8004fda:	6482      	str	r2, [r0, #72]	; 0x48
 8004fdc:	4632      	mov	r2, r6
 8004fde:	f7fb fd50 	bl	8000a82 <HAL_DMA_Start_IT>
 8004fe2:	2300      	movs	r3, #0
 8004fe4:	f884 3050 	strb.w	r3, [r4, #80]	; 0x50
 8004fe8:	6823      	ldr	r3, [r4, #0]
 8004fea:	681a      	ldr	r2, [r3, #0]
 8004fec:	0650      	lsls	r0, r2, #25
 8004fee:	d403      	bmi.n	8004ff8 <HAL_SPI_Receive_DMA+0xb0>
 8004ff0:	681a      	ldr	r2, [r3, #0]
 8004ff2:	f042 0240 	orr.w	r2, r2, #64	; 0x40
 8004ff6:	601a      	str	r2, [r3, #0]
 8004ff8:	685a      	ldr	r2, [r3, #4]
 8004ffa:	f042 0201 	orr.w	r2, r2, #1
 8004ffe:	605a      	str	r2, [r3, #4]
 8005000:	2000      	movs	r0, #0
 8005002:	bd70      	pop	{r4, r5, r6, pc}
 8005004:	4610      	mov	r0, r2
 8005006:	bd70      	pop	{r4, r5, r6, pc}
 8005008:	2002      	movs	r0, #2
 800500a:	bd70      	pop	{r4, r5, r6, pc}
 800500c:	080050ad 	.word	0x080050ad
 8005010:	0800534b 	.word	0x0800534b
 8005014:	080052bd 	.word	0x080052bd

08005018 <HAL_SPI_DMAPause>:
 8005018:	f890 3050 	ldrb.w	r3, [r0, #80]	; 0x50
 800501c:	2b01      	cmp	r3, #1
 800501e:	d00d      	beq.n	800503c <HAL_SPI_DMAPause+0x24>
 8005020:	6803      	ldr	r3, [r0, #0]
 8005022:	685a      	ldr	r2, [r3, #4]
 8005024:	f022 0202 	bic.w	r2, r2, #2
 8005028:	605a      	str	r2, [r3, #4]
 800502a:	685a      	ldr	r2, [r3, #4]
 800502c:	f022 0201 	bic.w	r2, r2, #1
 8005030:	605a      	str	r2, [r3, #4]
 8005032:	2300      	movs	r3, #0
 8005034:	f880 3050 	strb.w	r3, [r0, #80]	; 0x50
 8005038:	4618      	mov	r0, r3
 800503a:	4770      	bx	lr
 800503c:	2002      	movs	r0, #2
 800503e:	4770      	bx	lr

08005040 <HAL_SPI_DMAResume>:
 8005040:	f890 3050 	ldrb.w	r3, [r0, #80]	; 0x50
 8005044:	2b01      	cmp	r3, #1
 8005046:	d00d      	beq.n	8005064 <HAL_SPI_DMAResume+0x24>
 8005048:	6803      	ldr	r3, [r0, #0]
 800504a:	685a      	ldr	r2, [r3, #4]
 800504c:	f042 0202 	orr.w	r2, r2, #2
 8005050:	605a      	str	r2, [r3, #4]
 8005052:	685a      	ldr	r2, [r3, #4]
 8005054:	f042 0201 	orr.w	r2, r2, #1
 8005058:	605a      	str	r2, [r3, #4]
 800505a:	2300      	movs	r3, #0
 800505c:	f880 3050 	strb.w	r3, [r0, #80]	; 0x50
 8005060:	4618      	mov	r0, r3
 8005062:	4770      	bx	lr
 8005064:	2002      	movs	r0, #2
 8005066:	4770      	bx	lr

08005068 <HAL_SPI_DMAStop>:
 8005068:	b510      	push	{r4, lr}
 800506a:	4604      	mov	r4, r0
 800506c:	6c00      	ldr	r0, [r0, #64]	; 0x40
 800506e:	b108      	cbz	r0, 8005074 <HAL_SPI_DMAStop+0xc>
 8005070:	f7fb fd40 	bl	8000af4 <HAL_DMA_Abort>
 8005074:	6c60      	ldr	r0, [r4, #68]	; 0x44
 8005076:	b108      	cbz	r0, 800507c <HAL_SPI_DMAStop+0x14>
 8005078:	f7fb fd3c 	bl	8000af4 <HAL_DMA_Abort>
 800507c:	6823      	ldr	r3, [r4, #0]
 800507e:	685a      	ldr	r2, [r3, #4]
 8005080:	f022 0202 	bic.w	r2, r2, #2
 8005084:	605a      	str	r2, [r3, #4]
 8005086:	685a      	ldr	r2, [r3, #4]
 8005088:	f022 0201 	bic.w	r2, r2, #1
 800508c:	605a      	str	r2, [r3, #4]
 800508e:	2301      	movs	r3, #1
 8005090:	f884 3051 	strb.w	r3, [r4, #81]	; 0x51
 8005094:	2000      	movs	r0, #0
 8005096:	bd10      	pop	{r4, pc}

08005098 <HAL_SPI_TxCpltCallback>:
 8005098:	4770      	bx	lr

0800509a <HAL_SPI_RxCpltCallback>:
 800509a:	4770      	bx	lr

0800509c <HAL_SPI_TxRxCpltCallback>:
 800509c:	4770      	bx	lr

0800509e <HAL_SPI_TxHalfCpltCallback>:
 800509e:	4770      	bx	lr

080050a0 <_ZL23SPI_DMAHalfTransmitCpltP19__DMA_HandleTypeDef>:
 80050a0:	b508      	push	{r3, lr}
 80050a2:	6b80      	ldr	r0, [r0, #56]	; 0x38
 80050a4:	f7ff fffb 	bl	800509e <HAL_SPI_TxHalfCpltCallback>
 80050a8:	bd08      	pop	{r3, pc}

080050aa <HAL_SPI_RxHalfCpltCallback>:
 80050aa:	4770      	bx	lr

080050ac <_ZL22SPI_DMAHalfReceiveCpltP19__DMA_HandleTypeDef>:
 80050ac:	b508      	push	{r3, lr}
 80050ae:	6b80      	ldr	r0, [r0, #56]	; 0x38
 80050b0:	f7ff fffb 	bl	80050aa <HAL_SPI_RxHalfCpltCallback>
 80050b4:	bd08      	pop	{r3, pc}

080050b6 <HAL_SPI_TxRxHalfCpltCallback>:
 80050b6:	4770      	bx	lr

080050b8 <_ZL30SPI_DMAHalfTransmitReceiveCpltP19__DMA_HandleTypeDef>:
 80050b8:	b508      	push	{r3, lr}
 80050ba:	6b80      	ldr	r0, [r0, #56]	; 0x38
 80050bc:	f7ff fffb 	bl	80050b6 <HAL_SPI_TxRxHalfCpltCallback>
 80050c0:	bd08      	pop	{r3, pc}

080050c2 <HAL_SPI_ErrorCallback>:
 80050c2:	4770      	bx	lr

080050c4 <_ZL9SPI_TxISRP19__SPI_HandleTypeDef>:
 80050c4:	b513      	push	{r0, r1, r4, lr}
 80050c6:	68c1      	ldr	r1, [r0, #12]
 80050c8:	6803      	ldr	r3, [r0, #0]
 80050ca:	6b02      	ldr	r2, [r0, #48]	; 0x30
 80050cc:	4604      	mov	r4, r0
 80050ce:	b921      	cbnz	r1, 80050da <_ZL9SPI_TxISRP19__SPI_HandleTypeDef+0x16>
 80050d0:	1c51      	adds	r1, r2, #1
 80050d2:	6301      	str	r1, [r0, #48]	; 0x30
 80050d4:	7812      	ldrb	r2, [r2, #0]
 80050d6:	60da      	str	r2, [r3, #12]
 80050d8:	e003      	b.n	80050e2 <_ZL9SPI_TxISRP19__SPI_HandleTypeDef+0x1e>
 80050da:	f832 1b02 	ldrh.w	r1, [r2], #2
 80050de:	60d9      	str	r1, [r3, #12]
 80050e0:	6302      	str	r2, [r0, #48]	; 0x30
 80050e2:	8ee2      	ldrh	r2, [r4, #54]	; 0x36
 80050e4:	3a01      	subs	r2, #1
 80050e6:	b292      	uxth	r2, r2
 80050e8:	86e2      	strh	r2, [r4, #54]	; 0x36
 80050ea:	2a00      	cmp	r2, #0
 80050ec:	d148      	bne.n	8005180 <_ZL9SPI_TxISRP19__SPI_HandleTypeDef+0xbc>
 80050ee:	6aa2      	ldr	r2, [r4, #40]	; 0x28
 80050f0:	f5b2 5f00 	cmp.w	r2, #8192	; 0x2000
 80050f4:	d103      	bne.n	80050fe <_ZL9SPI_TxISRP19__SPI_HandleTypeDef+0x3a>
 80050f6:	681a      	ldr	r2, [r3, #0]
 80050f8:	f442 5280 	orr.w	r2, r2, #4096	; 0x1000
 80050fc:	601a      	str	r2, [r3, #0]
 80050fe:	4620      	mov	r0, r4
 8005100:	2102      	movs	r1, #2
 8005102:	2200      	movs	r2, #0
 8005104:	230a      	movs	r3, #10
 8005106:	f7ff f97d 	bl	8004404 <_ZL26SPI_WaitOnFlagUntilTimeoutP19__SPI_HandleTypeDefj10FlagStatusj>
 800510a:	b118      	cbz	r0, 8005114 <_ZL9SPI_TxISRP19__SPI_HandleTypeDef+0x50>
 800510c:	6d63      	ldr	r3, [r4, #84]	; 0x54
 800510e:	f043 0310 	orr.w	r3, r3, #16
 8005112:	6563      	str	r3, [r4, #84]	; 0x54
 8005114:	6823      	ldr	r3, [r4, #0]
 8005116:	685a      	ldr	r2, [r3, #4]
 8005118:	f022 0280 	bic.w	r2, r2, #128	; 0x80
 800511c:	605a      	str	r2, [r3, #4]
 800511e:	685a      	ldr	r2, [r3, #4]
 8005120:	0652      	lsls	r2, r2, #25
 8005122:	d42d      	bmi.n	8005180 <_ZL9SPI_TxISRP19__SPI_HandleTypeDef+0xbc>
 8005124:	685a      	ldr	r2, [r3, #4]
 8005126:	f022 0220 	bic.w	r2, r2, #32
 800512a:	605a      	str	r2, [r3, #4]
 800512c:	4620      	mov	r0, r4
 800512e:	2180      	movs	r1, #128	; 0x80
 8005130:	2201      	movs	r2, #1
 8005132:	230a      	movs	r3, #10
 8005134:	f7ff f966 	bl	8004404 <_ZL26SPI_WaitOnFlagUntilTimeoutP19__SPI_HandleTypeDefj10FlagStatusj>
 8005138:	b118      	cbz	r0, 8005142 <_ZL9SPI_TxISRP19__SPI_HandleTypeDef+0x7e>
 800513a:	6d63      	ldr	r3, [r4, #84]	; 0x54
 800513c:	f043 0310 	orr.w	r3, r3, #16
 8005140:	6563      	str	r3, [r4, #84]	; 0x54
 8005142:	68a3      	ldr	r3, [r4, #8]
 8005144:	b92b      	cbnz	r3, 8005152 <_ZL9SPI_TxISRP19__SPI_HandleTypeDef+0x8e>
 8005146:	6823      	ldr	r3, [r4, #0]
 8005148:	68da      	ldr	r2, [r3, #12]
 800514a:	9201      	str	r2, [sp, #4]
 800514c:	689b      	ldr	r3, [r3, #8]
 800514e:	9301      	str	r3, [sp, #4]
 8005150:	9b01      	ldr	r3, [sp, #4]
 8005152:	6d63      	ldr	r3, [r4, #84]	; 0x54
 8005154:	b973      	cbnz	r3, 8005174 <_ZL9SPI_TxISRP19__SPI_HandleTypeDef+0xb0>
 8005156:	f894 3051 	ldrb.w	r3, [r4, #81]	; 0x51
 800515a:	2b32      	cmp	r3, #50	; 0x32
 800515c:	f04f 0301 	mov.w	r3, #1
 8005160:	f884 3051 	strb.w	r3, [r4, #81]	; 0x51
 8005164:	4620      	mov	r0, r4
 8005166:	d102      	bne.n	800516e <_ZL9SPI_TxISRP19__SPI_HandleTypeDef+0xaa>
 8005168:	f7ff ff98 	bl	800509c <HAL_SPI_TxRxCpltCallback>
 800516c:	e008      	b.n	8005180 <_ZL9SPI_TxISRP19__SPI_HandleTypeDef+0xbc>
 800516e:	f7ff ff93 	bl	8005098 <HAL_SPI_TxCpltCallback>
 8005172:	e005      	b.n	8005180 <_ZL9SPI_TxISRP19__SPI_HandleTypeDef+0xbc>
 8005174:	2301      	movs	r3, #1
 8005176:	f884 3051 	strb.w	r3, [r4, #81]	; 0x51
 800517a:	4620      	mov	r0, r4
 800517c:	f7ff ffa1 	bl	80050c2 <HAL_SPI_ErrorCallback>
 8005180:	b002      	add	sp, #8
 8005182:	bd10      	pop	{r4, pc}

08005184 <_ZL21SPI_RxCloseIRQHandlerP19__SPI_HandleTypeDef>:
 8005184:	6a83      	ldr	r3, [r0, #40]	; 0x28
 8005186:	f5b3 5f00 	cmp.w	r3, #8192	; 0x2000
 800518a:	b513      	push	{r0, r1, r4, lr}
 800518c:	4604      	mov	r4, r0
 800518e:	d11f      	bne.n	80051d0 <_ZL21SPI_RxCloseIRQHandlerP19__SPI_HandleTypeDef+0x4c>
 8005190:	2101      	movs	r1, #1
 8005192:	2200      	movs	r2, #0
 8005194:	230a      	movs	r3, #10
 8005196:	f7ff f935 	bl	8004404 <_ZL26SPI_WaitOnFlagUntilTimeoutP19__SPI_HandleTypeDefj10FlagStatusj>
 800519a:	b118      	cbz	r0, 80051a4 <_ZL21SPI_RxCloseIRQHandlerP19__SPI_HandleTypeDef+0x20>
 800519c:	6d63      	ldr	r3, [r4, #84]	; 0x54
 800519e:	f043 0310 	orr.w	r3, r3, #16
 80051a2:	6563      	str	r3, [r4, #84]	; 0x54
 80051a4:	6823      	ldr	r3, [r4, #0]
 80051a6:	68db      	ldr	r3, [r3, #12]
 80051a8:	b29b      	uxth	r3, r3
 80051aa:	f8ad 3006 	strh.w	r3, [sp, #6]
 80051ae:	2101      	movs	r1, #1
 80051b0:	f8bd 3006 	ldrh.w	r3, [sp, #6]
 80051b4:	4620      	mov	r0, r4
 80051b6:	460a      	mov	r2, r1
 80051b8:	230a      	movs	r3, #10
 80051ba:	f7ff f923 	bl	8004404 <_ZL26SPI_WaitOnFlagUntilTimeoutP19__SPI_HandleTypeDefj10FlagStatusj>
 80051be:	b118      	cbz	r0, 80051c8 <_ZL21SPI_RxCloseIRQHandlerP19__SPI_HandleTypeDef+0x44>
 80051c0:	6d63      	ldr	r3, [r4, #84]	; 0x54
 80051c2:	f043 0310 	orr.w	r3, r3, #16
 80051c6:	6563      	str	r3, [r4, #84]	; 0x54
 80051c8:	6823      	ldr	r3, [r4, #0]
 80051ca:	689a      	ldr	r2, [r3, #8]
 80051cc:	06d0      	lsls	r0, r2, #27
 80051ce:	d432      	bmi.n	8005236 <_ZL21SPI_RxCloseIRQHandlerP19__SPI_HandleTypeDef+0xb2>
 80051d0:	6823      	ldr	r3, [r4, #0]
 80051d2:	685a      	ldr	r2, [r3, #4]
 80051d4:	f022 0240 	bic.w	r2, r2, #64	; 0x40
 80051d8:	605a      	str	r2, [r3, #4]
 80051da:	685a      	ldr	r2, [r3, #4]
 80051dc:	0611      	lsls	r1, r2, #24
 80051de:	d437      	bmi.n	8005250 <_ZL21SPI_RxCloseIRQHandlerP19__SPI_HandleTypeDef+0xcc>
 80051e0:	685a      	ldr	r2, [r3, #4]
 80051e2:	f022 0220 	bic.w	r2, r2, #32
 80051e6:	605a      	str	r2, [r3, #4]
 80051e8:	6862      	ldr	r2, [r4, #4]
 80051ea:	f5b2 7f82 	cmp.w	r2, #260	; 0x104
 80051ee:	d10a      	bne.n	8005206 <_ZL21SPI_RxCloseIRQHandlerP19__SPI_HandleTypeDef+0x82>
 80051f0:	68a2      	ldr	r2, [r4, #8]
 80051f2:	f5b2 4f00 	cmp.w	r2, #32768	; 0x8000
 80051f6:	d002      	beq.n	80051fe <_ZL21SPI_RxCloseIRQHandlerP19__SPI_HandleTypeDef+0x7a>
 80051f8:	f5b2 6f80 	cmp.w	r2, #1024	; 0x400
 80051fc:	d103      	bne.n	8005206 <_ZL21SPI_RxCloseIRQHandlerP19__SPI_HandleTypeDef+0x82>
 80051fe:	681a      	ldr	r2, [r3, #0]
 8005200:	f022 0240 	bic.w	r2, r2, #64	; 0x40
 8005204:	601a      	str	r2, [r3, #0]
 8005206:	6d63      	ldr	r3, [r4, #84]	; 0x54
 8005208:	b973      	cbnz	r3, 8005228 <_ZL21SPI_RxCloseIRQHandlerP19__SPI_HandleTypeDef+0xa4>
 800520a:	f894 3051 	ldrb.w	r3, [r4, #81]	; 0x51
 800520e:	2b32      	cmp	r3, #50	; 0x32
 8005210:	f04f 0301 	mov.w	r3, #1
 8005214:	f884 3051 	strb.w	r3, [r4, #81]	; 0x51
 8005218:	4620      	mov	r0, r4
 800521a:	d102      	bne.n	8005222 <_ZL21SPI_RxCloseIRQHandlerP19__SPI_HandleTypeDef+0x9e>
 800521c:	f7ff ff3e 	bl	800509c <HAL_SPI_TxRxCpltCallback>
 8005220:	e016      	b.n	8005250 <_ZL21SPI_RxCloseIRQHandlerP19__SPI_HandleTypeDef+0xcc>
 8005222:	f7ff ff3a 	bl	800509a <HAL_SPI_RxCpltCallback>
 8005226:	e013      	b.n	8005250 <_ZL21SPI_RxCloseIRQHandlerP19__SPI_HandleTypeDef+0xcc>
 8005228:	2301      	movs	r3, #1
 800522a:	f884 3051 	strb.w	r3, [r4, #81]	; 0x51
 800522e:	4620      	mov	r0, r4
 8005230:	f7ff ff47 	bl	80050c2 <HAL_SPI_ErrorCallback>
 8005234:	e00c      	b.n	8005250 <_ZL21SPI_RxCloseIRQHandlerP19__SPI_HandleTypeDef+0xcc>
 8005236:	6d62      	ldr	r2, [r4, #84]	; 0x54
 8005238:	f042 0202 	orr.w	r2, r2, #2
 800523c:	6562      	str	r2, [r4, #84]	; 0x54
 800523e:	681a      	ldr	r2, [r3, #0]
 8005240:	f422 5200 	bic.w	r2, r2, #8192	; 0x2000
 8005244:	601a      	str	r2, [r3, #0]
 8005246:	681a      	ldr	r2, [r3, #0]
 8005248:	f442 5200 	orr.w	r2, r2, #8192	; 0x2000
 800524c:	601a      	str	r2, [r3, #0]
 800524e:	e7bf      	b.n	80051d0 <_ZL21SPI_RxCloseIRQHandlerP19__SPI_HandleTypeDef+0x4c>
 8005250:	b002      	add	sp, #8
 8005252:	bd10      	pop	{r4, pc}

08005254 <_ZL9SPI_RxISRP19__SPI_HandleTypeDef>:
 8005254:	68c1      	ldr	r1, [r0, #12]
 8005256:	6b83      	ldr	r3, [r0, #56]	; 0x38
 8005258:	6802      	ldr	r2, [r0, #0]
 800525a:	b921      	cbnz	r1, 8005266 <_ZL9SPI_RxISRP19__SPI_HandleTypeDef+0x12>
 800525c:	68d2      	ldr	r2, [r2, #12]
 800525e:	1c59      	adds	r1, r3, #1
 8005260:	6381      	str	r1, [r0, #56]	; 0x38
 8005262:	701a      	strb	r2, [r3, #0]
 8005264:	e003      	b.n	800526e <_ZL9SPI_RxISRP19__SPI_HandleTypeDef+0x1a>
 8005266:	68d2      	ldr	r2, [r2, #12]
 8005268:	f823 2b02 	strh.w	r2, [r3], #2
 800526c:	6383      	str	r3, [r0, #56]	; 0x38
 800526e:	8fc3      	ldrh	r3, [r0, #62]	; 0x3e
 8005270:	3b01      	subs	r3, #1
 8005272:	b29b      	uxth	r3, r3
 8005274:	2b01      	cmp	r3, #1
 8005276:	87c3      	strh	r3, [r0, #62]	; 0x3e
 8005278:	d109      	bne.n	800528e <_ZL9SPI_RxISRP19__SPI_HandleTypeDef+0x3a>
 800527a:	6a83      	ldr	r3, [r0, #40]	; 0x28
 800527c:	f5b3 5f00 	cmp.w	r3, #8192	; 0x2000
 8005280:	d107      	bne.n	8005292 <_ZL9SPI_RxISRP19__SPI_HandleTypeDef+0x3e>
 8005282:	6803      	ldr	r3, [r0, #0]
 8005284:	681a      	ldr	r2, [r3, #0]
 8005286:	f442 5280 	orr.w	r2, r2, #4096	; 0x1000
 800528a:	601a      	str	r2, [r3, #0]
 800528c:	4770      	bx	lr
 800528e:	b903      	cbnz	r3, 8005292 <_ZL9SPI_RxISRP19__SPI_HandleTypeDef+0x3e>
 8005290:	e778      	b.n	8005184 <_ZL21SPI_RxCloseIRQHandlerP19__SPI_HandleTypeDef>
 8005292:	4770      	bx	lr

08005294 <_ZL15SPI_2LinesRxISRP19__SPI_HandleTypeDef>:
 8005294:	68c1      	ldr	r1, [r0, #12]
 8005296:	6b83      	ldr	r3, [r0, #56]	; 0x38
 8005298:	6802      	ldr	r2, [r0, #0]
 800529a:	b921      	cbnz	r1, 80052a6 <_ZL15SPI_2LinesRxISRP19__SPI_HandleTypeDef+0x12>
 800529c:	68d2      	ldr	r2, [r2, #12]
 800529e:	1c59      	adds	r1, r3, #1
 80052a0:	6381      	str	r1, [r0, #56]	; 0x38
 80052a2:	701a      	strb	r2, [r3, #0]
 80052a4:	e003      	b.n	80052ae <_ZL15SPI_2LinesRxISRP19__SPI_HandleTypeDef+0x1a>
 80052a6:	68d2      	ldr	r2, [r2, #12]
 80052a8:	f823 2b02 	strh.w	r2, [r3], #2
 80052ac:	6383      	str	r3, [r0, #56]	; 0x38
 80052ae:	8fc3      	ldrh	r3, [r0, #62]	; 0x3e
 80052b0:	3b01      	subs	r3, #1
 80052b2:	b29b      	uxth	r3, r3
 80052b4:	87c3      	strh	r3, [r0, #62]	; 0x3e
 80052b6:	b903      	cbnz	r3, 80052ba <_ZL15SPI_2LinesRxISRP19__SPI_HandleTypeDef+0x26>
 80052b8:	e764      	b.n	8005184 <_ZL21SPI_RxCloseIRQHandlerP19__SPI_HandleTypeDef>
 80052ba:	4770      	bx	lr

080052bc <_ZL12SPI_DMAErrorP19__DMA_HandleTypeDef>:
 80052bc:	6b80      	ldr	r0, [r0, #56]	; 0x38
 80052be:	b508      	push	{r3, lr}
 80052c0:	2300      	movs	r3, #0
 80052c2:	86c3      	strh	r3, [r0, #54]	; 0x36
 80052c4:	87c3      	strh	r3, [r0, #62]	; 0x3e
 80052c6:	2301      	movs	r3, #1
 80052c8:	f880 3051 	strb.w	r3, [r0, #81]	; 0x51
 80052cc:	6d43      	ldr	r3, [r0, #84]	; 0x54
 80052ce:	f043 0310 	orr.w	r3, r3, #16
 80052d2:	6543      	str	r3, [r0, #84]	; 0x54
 80052d4:	f7ff fef5 	bl	80050c2 <HAL_SPI_ErrorCallback>
 80052d8:	bd08      	pop	{r3, pc}

080052da <_ZL19SPI_DMATransmitCpltP19__DMA_HandleTypeDef>:
 80052da:	6803      	ldr	r3, [r0, #0]
 80052dc:	681a      	ldr	r2, [r3, #0]
 80052de:	f412 7280 	ands.w	r2, r2, #256	; 0x100
 80052e2:	b513      	push	{r0, r1, r4, lr}
 80052e4:	6b84      	ldr	r4, [r0, #56]	; 0x38
 80052e6:	d11e      	bne.n	8005326 <_ZL19SPI_DMATransmitCpltP19__DMA_HandleTypeDef+0x4c>
 80052e8:	4620      	mov	r0, r4
 80052ea:	2102      	movs	r1, #2
 80052ec:	230a      	movs	r3, #10
 80052ee:	f7ff f889 	bl	8004404 <_ZL26SPI_WaitOnFlagUntilTimeoutP19__SPI_HandleTypeDefj10FlagStatusj>
 80052f2:	b118      	cbz	r0, 80052fc <_ZL19SPI_DMATransmitCpltP19__DMA_HandleTypeDef+0x22>
 80052f4:	6d63      	ldr	r3, [r4, #84]	; 0x54
 80052f6:	f043 0310 	orr.w	r3, r3, #16
 80052fa:	6563      	str	r3, [r4, #84]	; 0x54
 80052fc:	6823      	ldr	r3, [r4, #0]
 80052fe:	685a      	ldr	r2, [r3, #4]
 8005300:	f022 0202 	bic.w	r2, r2, #2
 8005304:	605a      	str	r2, [r3, #4]
 8005306:	4620      	mov	r0, r4
 8005308:	2180      	movs	r1, #128	; 0x80
 800530a:	2201      	movs	r2, #1
 800530c:	230a      	movs	r3, #10
 800530e:	f7ff f879 	bl	8004404 <_ZL26SPI_WaitOnFlagUntilTimeoutP19__SPI_HandleTypeDefj10FlagStatusj>
 8005312:	b118      	cbz	r0, 800531c <_ZL19SPI_DMATransmitCpltP19__DMA_HandleTypeDef+0x42>
 8005314:	6d63      	ldr	r3, [r4, #84]	; 0x54
 8005316:	f043 0310 	orr.w	r3, r3, #16
 800531a:	6563      	str	r3, [r4, #84]	; 0x54
 800531c:	2300      	movs	r3, #0
 800531e:	86e3      	strh	r3, [r4, #54]	; 0x36
 8005320:	2301      	movs	r3, #1
 8005322:	f884 3051 	strb.w	r3, [r4, #81]	; 0x51
 8005326:	68a3      	ldr	r3, [r4, #8]
 8005328:	b92b      	cbnz	r3, 8005336 <_ZL19SPI_DMATransmitCpltP19__DMA_HandleTypeDef+0x5c>
 800532a:	6823      	ldr	r3, [r4, #0]
 800532c:	68da      	ldr	r2, [r3, #12]
 800532e:	9201      	str	r2, [sp, #4]
 8005330:	689b      	ldr	r3, [r3, #8]
 8005332:	9301      	str	r3, [sp, #4]
 8005334:	9b01      	ldr	r3, [sp, #4]
 8005336:	6d63      	ldr	r3, [r4, #84]	; 0x54
 8005338:	4620      	mov	r0, r4
 800533a:	b113      	cbz	r3, 8005342 <_ZL19SPI_DMATransmitCpltP19__DMA_HandleTypeDef+0x68>
 800533c:	f7ff fec1 	bl	80050c2 <HAL_SPI_ErrorCallback>
 8005340:	e001      	b.n	8005346 <_ZL19SPI_DMATransmitCpltP19__DMA_HandleTypeDef+0x6c>
 8005342:	f7ff fea9 	bl	8005098 <HAL_SPI_TxCpltCallback>
 8005346:	b002      	add	sp, #8
 8005348:	bd10      	pop	{r4, pc}

0800534a <_ZL18SPI_DMAReceiveCpltP19__DMA_HandleTypeDef>:
 800534a:	6803      	ldr	r3, [r0, #0]
 800534c:	681b      	ldr	r3, [r3, #0]
 800534e:	b513      	push	{r0, r1, r4, lr}
 8005350:	05d9      	lsls	r1, r3, #23
 8005352:	6b84      	ldr	r4, [r0, #56]	; 0x38
 8005354:	d44a      	bmi.n	80053ec <_ZL18SPI_DMAReceiveCpltP19__DMA_HandleTypeDef+0xa2>
 8005356:	68a2      	ldr	r2, [r4, #8]
 8005358:	6863      	ldr	r3, [r4, #4]
 800535a:	b932      	cbnz	r2, 800536a <_ZL18SPI_DMAReceiveCpltP19__DMA_HandleTypeDef+0x20>
 800535c:	f5b3 7f82 	cmp.w	r3, #260	; 0x104
 8005360:	d103      	bne.n	800536a <_ZL18SPI_DMAReceiveCpltP19__DMA_HandleTypeDef+0x20>
 8005362:	4620      	mov	r0, r4
 8005364:	f7ff f896 	bl	8004494 <_ZL25SPI_DMAEndTransmitReceiveP19__SPI_HandleTypeDef>
 8005368:	e037      	b.n	80053da <_ZL18SPI_DMAReceiveCpltP19__DMA_HandleTypeDef+0x90>
 800536a:	f5b3 7f82 	cmp.w	r3, #260	; 0x104
 800536e:	6823      	ldr	r3, [r4, #0]
 8005370:	d109      	bne.n	8005386 <_ZL18SPI_DMAReceiveCpltP19__DMA_HandleTypeDef+0x3c>
 8005372:	f5b2 4f00 	cmp.w	r2, #32768	; 0x8000
 8005376:	d002      	beq.n	800537e <_ZL18SPI_DMAReceiveCpltP19__DMA_HandleTypeDef+0x34>
 8005378:	f5b2 6f80 	cmp.w	r2, #1024	; 0x400
 800537c:	d103      	bne.n	8005386 <_ZL18SPI_DMAReceiveCpltP19__DMA_HandleTypeDef+0x3c>
 800537e:	681a      	ldr	r2, [r3, #0]
 8005380:	f022 0240 	bic.w	r2, r2, #64	; 0x40
 8005384:	601a      	str	r2, [r3, #0]
 8005386:	685a      	ldr	r2, [r3, #4]
 8005388:	f022 0201 	bic.w	r2, r2, #1
 800538c:	605a      	str	r2, [r3, #4]
 800538e:	6aa3      	ldr	r3, [r4, #40]	; 0x28
 8005390:	2200      	movs	r2, #0
 8005392:	f5b3 5f00 	cmp.w	r3, #8192	; 0x2000
 8005396:	87e2      	strh	r2, [r4, #62]	; 0x3e
 8005398:	d11f      	bne.n	80053da <_ZL18SPI_DMAReceiveCpltP19__DMA_HandleTypeDef+0x90>
 800539a:	4620      	mov	r0, r4
 800539c:	2101      	movs	r1, #1
 800539e:	230a      	movs	r3, #10
 80053a0:	f7ff f830 	bl	8004404 <_ZL26SPI_WaitOnFlagUntilTimeoutP19__SPI_HandleTypeDefj10FlagStatusj>
 80053a4:	b118      	cbz	r0, 80053ae <_ZL18SPI_DMAReceiveCpltP19__DMA_HandleTypeDef+0x64>
 80053a6:	6d63      	ldr	r3, [r4, #84]	; 0x54
 80053a8:	f043 0310 	orr.w	r3, r3, #16
 80053ac:	6563      	str	r3, [r4, #84]	; 0x54
 80053ae:	6823      	ldr	r3, [r4, #0]
 80053b0:	68db      	ldr	r3, [r3, #12]
 80053b2:	b29b      	uxth	r3, r3
 80053b4:	f8ad 3006 	strh.w	r3, [sp, #6]
 80053b8:	2101      	movs	r1, #1
 80053ba:	f8bd 3006 	ldrh.w	r3, [sp, #6]
 80053be:	4620      	mov	r0, r4
 80053c0:	460a      	mov	r2, r1
 80053c2:	230a      	movs	r3, #10
 80053c4:	f7ff f81e 	bl	8004404 <_ZL26SPI_WaitOnFlagUntilTimeoutP19__SPI_HandleTypeDefj10FlagStatusj>
 80053c8:	b118      	cbz	r0, 80053d2 <_ZL18SPI_DMAReceiveCpltP19__DMA_HandleTypeDef+0x88>
 80053ca:	6d63      	ldr	r3, [r4, #84]	; 0x54
 80053cc:	f043 0310 	orr.w	r3, r3, #16
 80053d0:	6563      	str	r3, [r4, #84]	; 0x54
 80053d2:	6823      	ldr	r3, [r4, #0]
 80053d4:	689a      	ldr	r2, [r3, #8]
 80053d6:	06d2      	lsls	r2, r2, #27
 80053d8:	d40c      	bmi.n	80053f4 <_ZL18SPI_DMAReceiveCpltP19__DMA_HandleTypeDef+0xaa>
 80053da:	2301      	movs	r3, #1
 80053dc:	f884 3051 	strb.w	r3, [r4, #81]	; 0x51
 80053e0:	6d63      	ldr	r3, [r4, #84]	; 0x54
 80053e2:	4620      	mov	r0, r4
 80053e4:	b11b      	cbz	r3, 80053ee <_ZL18SPI_DMAReceiveCpltP19__DMA_HandleTypeDef+0xa4>
 80053e6:	f7ff fe6c 	bl	80050c2 <HAL_SPI_ErrorCallback>
 80053ea:	e00b      	b.n	8005404 <_ZL18SPI_DMAReceiveCpltP19__DMA_HandleTypeDef+0xba>
 80053ec:	4620      	mov	r0, r4
 80053ee:	f7ff fe54 	bl	800509a <HAL_SPI_RxCpltCallback>
 80053f2:	e007      	b.n	8005404 <_ZL18SPI_DMAReceiveCpltP19__DMA_HandleTypeDef+0xba>
 80053f4:	6d62      	ldr	r2, [r4, #84]	; 0x54
 80053f6:	f042 0202 	orr.w	r2, r2, #2
 80053fa:	6562      	str	r2, [r4, #84]	; 0x54
 80053fc:	f06f 0210 	mvn.w	r2, #16
 8005400:	609a      	str	r2, [r3, #8]
 8005402:	e7ea      	b.n	80053da <_ZL18SPI_DMAReceiveCpltP19__DMA_HandleTypeDef+0x90>
 8005404:	b002      	add	sp, #8
 8005406:	bd10      	pop	{r4, pc}

08005408 <_ZL26SPI_DMATransmitReceiveCpltP19__DMA_HandleTypeDef>:
 8005408:	6803      	ldr	r3, [r0, #0]
 800540a:	681b      	ldr	r3, [r3, #0]
 800540c:	b510      	push	{r4, lr}
 800540e:	6b84      	ldr	r4, [r0, #56]	; 0x38
 8005410:	05db      	lsls	r3, r3, #23
 8005412:	4620      	mov	r0, r4
 8005414:	d40a      	bmi.n	800542c <_ZL26SPI_DMATransmitReceiveCpltP19__DMA_HandleTypeDef+0x24>
 8005416:	f7ff f83d 	bl	8004494 <_ZL25SPI_DMAEndTransmitReceiveP19__SPI_HandleTypeDef>
 800541a:	2301      	movs	r3, #1
 800541c:	f884 3051 	strb.w	r3, [r4, #81]	; 0x51
 8005420:	6d63      	ldr	r3, [r4, #84]	; 0x54
 8005422:	4620      	mov	r0, r4
 8005424:	b113      	cbz	r3, 800542c <_ZL26SPI_DMATransmitReceiveCpltP19__DMA_HandleTypeDef+0x24>
 8005426:	f7ff fe4c 	bl	80050c2 <HAL_SPI_ErrorCallback>
 800542a:	bd10      	pop	{r4, pc}
 800542c:	f7ff fe36 	bl	800509c <HAL_SPI_TxRxCpltCallback>
 8005430:	bd10      	pop	{r4, pc}

08005432 <HAL_SPI_IRQHandler>:
 8005432:	b530      	push	{r4, r5, lr}
 8005434:	6803      	ldr	r3, [r0, #0]
 8005436:	689d      	ldr	r5, [r3, #8]
 8005438:	685c      	ldr	r4, [r3, #4]
 800543a:	6899      	ldr	r1, [r3, #8]
 800543c:	07ed      	lsls	r5, r5, #31
 800543e:	b085      	sub	sp, #20
 8005440:	4602      	mov	r2, r0
 8005442:	d505      	bpl.n	8005450 <HAL_SPI_IRQHandler+0x1e>
 8005444:	0664      	lsls	r4, r4, #25
 8005446:	d503      	bpl.n	8005450 <HAL_SPI_IRQHandler+0x1e>
 8005448:	064d      	lsls	r5, r1, #25
 800544a:	d401      	bmi.n	8005450 <HAL_SPI_IRQHandler+0x1e>
 800544c:	6c83      	ldr	r3, [r0, #72]	; 0x48
 800544e:	e007      	b.n	8005460 <HAL_SPI_IRQHandler+0x2e>
 8005450:	6899      	ldr	r1, [r3, #8]
 8005452:	6858      	ldr	r0, [r3, #4]
 8005454:	0604      	lsls	r4, r0, #24
 8005456:	d505      	bpl.n	8005464 <HAL_SPI_IRQHandler+0x32>
 8005458:	0789      	lsls	r1, r1, #30
 800545a:	d503      	bpl.n	8005464 <HAL_SPI_IRQHandler+0x32>
 800545c:	6cd3      	ldr	r3, [r2, #76]	; 0x4c
 800545e:	4610      	mov	r0, r2
 8005460:	4798      	blx	r3
 8005462:	e040      	b.n	80054e6 <HAL_SPI_IRQHandler+0xb4>
 8005464:	6859      	ldr	r1, [r3, #4]
 8005466:	0688      	lsls	r0, r1, #26
 8005468:	d53d      	bpl.n	80054e6 <HAL_SPI_IRQHandler+0xb4>
 800546a:	6899      	ldr	r1, [r3, #8]
 800546c:	06c9      	lsls	r1, r1, #27
 800546e:	d41e      	bmi.n	80054ae <HAL_SPI_IRQHandler+0x7c>
 8005470:	6899      	ldr	r1, [r3, #8]
 8005472:	068d      	lsls	r5, r1, #26
 8005474:	d423      	bmi.n	80054be <HAL_SPI_IRQHandler+0x8c>
 8005476:	6899      	ldr	r1, [r3, #8]
 8005478:	064c      	lsls	r4, r1, #25
 800547a:	d50c      	bpl.n	8005496 <HAL_SPI_IRQHandler+0x64>
 800547c:	f892 1051 	ldrb.w	r1, [r2, #81]	; 0x51
 8005480:	2912      	cmp	r1, #18
 8005482:	d008      	beq.n	8005496 <HAL_SPI_IRQHandler+0x64>
 8005484:	6d51      	ldr	r1, [r2, #84]	; 0x54
 8005486:	f041 0104 	orr.w	r1, r1, #4
 800548a:	6551      	str	r1, [r2, #84]	; 0x54
 800548c:	68d9      	ldr	r1, [r3, #12]
 800548e:	9102      	str	r1, [sp, #8]
 8005490:	6899      	ldr	r1, [r3, #8]
 8005492:	9102      	str	r1, [sp, #8]
 8005494:	9902      	ldr	r1, [sp, #8]
 8005496:	6899      	ldr	r1, [r3, #8]
 8005498:	05c8      	lsls	r0, r1, #23
 800549a:	d41c      	bmi.n	80054d6 <HAL_SPI_IRQHandler+0xa4>
 800549c:	6d53      	ldr	r3, [r2, #84]	; 0x54
 800549e:	b313      	cbz	r3, 80054e6 <HAL_SPI_IRQHandler+0xb4>
 80054a0:	2301      	movs	r3, #1
 80054a2:	f882 3051 	strb.w	r3, [r2, #81]	; 0x51
 80054a6:	4610      	mov	r0, r2
 80054a8:	f7ff fe0b 	bl	80050c2 <HAL_SPI_ErrorCallback>
 80054ac:	e01b      	b.n	80054e6 <HAL_SPI_IRQHandler+0xb4>
 80054ae:	6d51      	ldr	r1, [r2, #84]	; 0x54
 80054b0:	f041 0102 	orr.w	r1, r1, #2
 80054b4:	6551      	str	r1, [r2, #84]	; 0x54
 80054b6:	f06f 0110 	mvn.w	r1, #16
 80054ba:	6099      	str	r1, [r3, #8]
 80054bc:	e7d8      	b.n	8005470 <HAL_SPI_IRQHandler+0x3e>
 80054be:	6d51      	ldr	r1, [r2, #84]	; 0x54
 80054c0:	f041 0101 	orr.w	r1, r1, #1
 80054c4:	6551      	str	r1, [r2, #84]	; 0x54
 80054c6:	6899      	ldr	r1, [r3, #8]
 80054c8:	9101      	str	r1, [sp, #4]
 80054ca:	6819      	ldr	r1, [r3, #0]
 80054cc:	f021 0140 	bic.w	r1, r1, #64	; 0x40
 80054d0:	6019      	str	r1, [r3, #0]
 80054d2:	9901      	ldr	r1, [sp, #4]
 80054d4:	e7cf      	b.n	8005476 <HAL_SPI_IRQHandler+0x44>
 80054d6:	6d51      	ldr	r1, [r2, #84]	; 0x54
 80054d8:	f041 0108 	orr.w	r1, r1, #8
 80054dc:	6551      	str	r1, [r2, #84]	; 0x54
 80054de:	689b      	ldr	r3, [r3, #8]
 80054e0:	9303      	str	r3, [sp, #12]
 80054e2:	9b03      	ldr	r3, [sp, #12]
 80054e4:	e7da      	b.n	800549c <HAL_SPI_IRQHandler+0x6a>
 80054e6:	b005      	add	sp, #20
 80054e8:	bd30      	pop	{r4, r5, pc}

080054ea <HAL_SPI_GetState>:
 80054ea:	f890 0051 	ldrb.w	r0, [r0, #81]	; 0x51
 80054ee:	4770      	bx	lr

080054f0 <HAL_SPI_GetError>:
 80054f0:	6d40      	ldr	r0, [r0, #84]	; 0x54
 80054f2:	4770      	bx	lr

080054f4 <_ZL9SPIx_Initv>:
 80054f4:	b510      	push	{r4, lr}
 80054f6:	4c1f      	ldr	r4, [pc, #124]	; (8005574 <_ZL9SPIx_Initv+0x80>)
 80054f8:	b088      	sub	sp, #32
 80054fa:	4620      	mov	r0, r4
 80054fc:	f7ff fff5 	bl	80054ea <HAL_SPI_GetState>
 8005500:	2800      	cmp	r0, #0
 8005502:	d135      	bne.n	8005570 <_ZL9SPIx_Initv+0x7c>
 8005504:	4b1c      	ldr	r3, [pc, #112]	; (8005578 <_ZL9SPIx_Initv+0x84>)
 8005506:	60a0      	str	r0, [r4, #8]
 8005508:	6023      	str	r3, [r4, #0]
 800550a:	2318      	movs	r3, #24
 800550c:	61e3      	str	r3, [r4, #28]
 800550e:	2307      	movs	r3, #7
 8005510:	62e3      	str	r3, [r4, #44]	; 0x2c
 8005512:	f44f 7300 	mov.w	r3, #512	; 0x200
 8005516:	61a3      	str	r3, [r4, #24]
 8005518:	f44f 7382 	mov.w	r3, #260	; 0x104
 800551c:	6063      	str	r3, [r4, #4]
 800551e:	4b17      	ldr	r3, [pc, #92]	; (800557c <_ZL9SPIx_Initv+0x88>)
 8005520:	6160      	str	r0, [r4, #20]
 8005522:	6120      	str	r0, [r4, #16]
 8005524:	62a0      	str	r0, [r4, #40]	; 0x28
 8005526:	60e0      	str	r0, [r4, #12]
 8005528:	6220      	str	r0, [r4, #32]
 800552a:	6260      	str	r0, [r4, #36]	; 0x24
 800552c:	6c5a      	ldr	r2, [r3, #68]	; 0x44
 800552e:	4814      	ldr	r0, [pc, #80]	; (8005580 <_ZL9SPIx_Initv+0x8c>)
 8005530:	f442 5280 	orr.w	r2, r2, #4096	; 0x1000
 8005534:	645a      	str	r2, [r3, #68]	; 0x44
 8005536:	6c5a      	ldr	r2, [r3, #68]	; 0x44
 8005538:	f402 5280 	and.w	r2, r2, #4096	; 0x1000
 800553c:	9201      	str	r2, [sp, #4]
 800553e:	9a01      	ldr	r2, [sp, #4]
 8005540:	6b1a      	ldr	r2, [r3, #48]	; 0x30
 8005542:	f042 0201 	orr.w	r2, r2, #1
 8005546:	631a      	str	r2, [r3, #48]	; 0x30
 8005548:	6b1b      	ldr	r3, [r3, #48]	; 0x30
 800554a:	f003 0301 	and.w	r3, r3, #1
 800554e:	9302      	str	r3, [sp, #8]
 8005550:	9b02      	ldr	r3, [sp, #8]
 8005552:	23e0      	movs	r3, #224	; 0xe0
 8005554:	9303      	str	r3, [sp, #12]
 8005556:	2302      	movs	r3, #2
 8005558:	9304      	str	r3, [sp, #16]
 800555a:	9305      	str	r3, [sp, #20]
 800555c:	2301      	movs	r3, #1
 800555e:	9306      	str	r3, [sp, #24]
 8005560:	a903      	add	r1, sp, #12
 8005562:	2305      	movs	r3, #5
 8005564:	9307      	str	r3, [sp, #28]
 8005566:	f7fc fc47 	bl	8001df8 <HAL_GPIO_Init>
 800556a:	4620      	mov	r0, r4
 800556c:	f7fe ffe1 	bl	8004532 <HAL_SPI_Init>
 8005570:	b008      	add	sp, #32
 8005572:	bd10      	pop	{r4, pc}
 8005574:	20000464 	.word	0x20000464
 8005578:	40013000 	.word	0x40013000
 800557c:	40023800 	.word	0x40023800
 8005580:	40020000 	.word	0x40020000

08005584 <_ZL14SPIx_WriteReadh>:
 8005584:	b57f      	push	{r0, r1, r2, r3, r4, r5, r6, lr}
 8005586:	2300      	movs	r3, #0
 8005588:	f88d 3017 	strb.w	r3, [sp, #23]
 800558c:	4b0b      	ldr	r3, [pc, #44]	; (80055bc <_ZL14SPIx_WriteReadh+0x38>)
 800558e:	f88d 000f 	strb.w	r0, [sp, #15]
 8005592:	681b      	ldr	r3, [r3, #0]
 8005594:	480a      	ldr	r0, [pc, #40]	; (80055c0 <_ZL14SPIx_WriteReadh+0x3c>)
 8005596:	9300      	str	r3, [sp, #0]
 8005598:	f10d 010f 	add.w	r1, sp, #15
 800559c:	f10d 0217 	add.w	r2, sp, #23
 80055a0:	2301      	movs	r3, #1
 80055a2:	f7ff f8c5 	bl	8004730 <HAL_SPI_TransmitReceive>
 80055a6:	b120      	cbz	r0, 80055b2 <_ZL14SPIx_WriteReadh+0x2e>
 80055a8:	4805      	ldr	r0, [pc, #20]	; (80055c0 <_ZL14SPIx_WriteReadh+0x3c>)
 80055aa:	f7ff f800 	bl	80045ae <HAL_SPI_DeInit>
 80055ae:	f7ff ffa1 	bl	80054f4 <_ZL9SPIx_Initv>
 80055b2:	f89d 0017 	ldrb.w	r0, [sp, #23]
 80055b6:	b007      	add	sp, #28
 80055b8:	f85d fb04 	ldr.w	pc, [sp], #4
 80055bc:	20000014 	.word	0x20000014
 80055c0:	20000464 	.word	0x20000464

080055c4 <_ZL9I2Cx_Initv>:
 80055c4:	b570      	push	{r4, r5, r6, lr}
 80055c6:	4d29      	ldr	r5, [pc, #164]	; (800566c <_ZL9I2Cx_Initv+0xa8>)
 80055c8:	b088      	sub	sp, #32
 80055ca:	f105 0058 	add.w	r0, r5, #88	; 0x58
 80055ce:	f7fe fac9 	bl	8003b64 <HAL_I2C_GetState>
 80055d2:	4606      	mov	r6, r0
 80055d4:	2800      	cmp	r0, #0
 80055d6:	d146      	bne.n	8005666 <_ZL9I2Cx_Initv+0xa2>
 80055d8:	4b25      	ldr	r3, [pc, #148]	; (8005670 <_ZL9I2Cx_Initv+0xac>)
 80055da:	4c26      	ldr	r4, [pc, #152]	; (8005674 <_ZL9I2Cx_Initv+0xb0>)
 80055dc:	65eb      	str	r3, [r5, #92]	; 0x5c
 80055de:	2333      	movs	r3, #51	; 0x33
 80055e0:	666b      	str	r3, [r5, #100]	; 0x64
 80055e2:	f44f 4380 	mov.w	r3, #16384	; 0x4000
 80055e6:	66ab      	str	r3, [r5, #104]	; 0x68
 80055e8:	4b23      	ldr	r3, [pc, #140]	; (8005678 <_ZL9I2Cx_Initv+0xb4>)
 80055ea:	6628      	str	r0, [r5, #96]	; 0x60
 80055ec:	65ab      	str	r3, [r5, #88]	; 0x58
 80055ee:	6b23      	ldr	r3, [r4, #48]	; 0x30
 80055f0:	f043 0302 	orr.w	r3, r3, #2
 80055f4:	6323      	str	r3, [r4, #48]	; 0x30
 80055f6:	6b23      	ldr	r3, [r4, #48]	; 0x30
 80055f8:	9005      	str	r0, [sp, #20]
 80055fa:	f003 0302 	and.w	r3, r3, #2
 80055fe:	9301      	str	r3, [sp, #4]
 8005600:	9b01      	ldr	r3, [sp, #4]
 8005602:	481e      	ldr	r0, [pc, #120]	; (800567c <_ZL9I2Cx_Initv+0xb8>)
 8005604:	f44f 7310 	mov.w	r3, #576	; 0x240
 8005608:	9303      	str	r3, [sp, #12]
 800560a:	2312      	movs	r3, #18
 800560c:	9304      	str	r3, [sp, #16]
 800560e:	2302      	movs	r3, #2
 8005610:	9306      	str	r3, [sp, #24]
 8005612:	a903      	add	r1, sp, #12
 8005614:	2304      	movs	r3, #4
 8005616:	9307      	str	r3, [sp, #28]
 8005618:	f7fc fbee 	bl	8001df8 <HAL_GPIO_Init>
 800561c:	6c23      	ldr	r3, [r4, #64]	; 0x40
 800561e:	f443 1300 	orr.w	r3, r3, #2097152	; 0x200000
 8005622:	6423      	str	r3, [r4, #64]	; 0x40
 8005624:	6c23      	ldr	r3, [r4, #64]	; 0x40
 8005626:	f403 1300 	and.w	r3, r3, #2097152	; 0x200000
 800562a:	9302      	str	r3, [sp, #8]
 800562c:	9b02      	ldr	r3, [sp, #8]
 800562e:	6a23      	ldr	r3, [r4, #32]
 8005630:	f443 1300 	orr.w	r3, r3, #2097152	; 0x200000
 8005634:	6223      	str	r3, [r4, #32]
 8005636:	6a23      	ldr	r3, [r4, #32]
 8005638:	f423 1300 	bic.w	r3, r3, #2097152	; 0x200000
 800563c:	6223      	str	r3, [r4, #32]
 800563e:	4631      	mov	r1, r6
 8005640:	4632      	mov	r2, r6
 8005642:	201f      	movs	r0, #31
 8005644:	f7fa fef2 	bl	800042c <HAL_NVIC_SetPriority>
 8005648:	201f      	movs	r0, #31
 800564a:	f7fa ff21 	bl	8000490 <HAL_NVIC_EnableIRQ>
 800564e:	2020      	movs	r0, #32
 8005650:	4631      	mov	r1, r6
 8005652:	4632      	mov	r2, r6
 8005654:	f7fa feea 	bl	800042c <HAL_NVIC_SetPriority>
 8005658:	2020      	movs	r0, #32
 800565a:	f7fa ff19 	bl	8000490 <HAL_NVIC_EnableIRQ>
 800565e:	f105 0058 	add.w	r0, r5, #88	; 0x58
 8005662:	f7fc ff56 	bl	8002512 <HAL_I2C_Init>
 8005666:	b008      	add	sp, #32
 8005668:	bd70      	pop	{r4, r5, r6, pc}
 800566a:	bf00      	nop
 800566c:	20000464 	.word	0x20000464
 8005670:	000186a0 	.word	0x000186a0
 8005674:	40023800 	.word	0x40023800
 8005678:	40005400 	.word	0x40005400
 800567c:	40020400 	.word	0x40020400

08005680 <BSP_GetVersion>:
 8005680:	4800      	ldr	r0, [pc, #0]	; (8005684 <BSP_GetVersion+0x4>)
 8005682:	4770      	bx	lr
 8005684:	02000400 	.word	0x02000400

08005688 <BSP_LED_Init>:
 8005688:	b530      	push	{r4, r5, lr}
 800568a:	b08b      	sub	sp, #44	; 0x2c
 800568c:	b950      	cbnz	r0, 80056a4 <BSP_LED_Init+0x1c>
 800568e:	4b24      	ldr	r3, [pc, #144]	; (8005720 <BSP_LED_Init+0x98>)
 8005690:	6b1a      	ldr	r2, [r3, #48]	; 0x30
 8005692:	f042 0208 	orr.w	r2, r2, #8
 8005696:	631a      	str	r2, [r3, #48]	; 0x30
 8005698:	6b1b      	ldr	r3, [r3, #48]	; 0x30
 800569a:	f003 0308 	and.w	r3, r3, #8
 800569e:	9301      	str	r3, [sp, #4]
 80056a0:	9b01      	ldr	r3, [sp, #4]
 80056a2:	e025      	b.n	80056f0 <BSP_LED_Init+0x68>
 80056a4:	2801      	cmp	r0, #1
 80056a6:	d10a      	bne.n	80056be <BSP_LED_Init+0x36>
 80056a8:	4b1d      	ldr	r3, [pc, #116]	; (8005720 <BSP_LED_Init+0x98>)
 80056aa:	6b1a      	ldr	r2, [r3, #48]	; 0x30
 80056ac:	f042 0208 	orr.w	r2, r2, #8
 80056b0:	631a      	str	r2, [r3, #48]	; 0x30
 80056b2:	6b1b      	ldr	r3, [r3, #48]	; 0x30
 80056b4:	f003 0308 	and.w	r3, r3, #8
 80056b8:	9302      	str	r3, [sp, #8]
 80056ba:	9b02      	ldr	r3, [sp, #8]
 80056bc:	e018      	b.n	80056f0 <BSP_LED_Init+0x68>
 80056be:	2802      	cmp	r0, #2
 80056c0:	d10a      	bne.n	80056d8 <BSP_LED_Init+0x50>
 80056c2:	4b17      	ldr	r3, [pc, #92]	; (8005720 <BSP_LED_Init+0x98>)
 80056c4:	6b1a      	ldr	r2, [r3, #48]	; 0x30
 80056c6:	f042 0208 	orr.w	r2, r2, #8
 80056ca:	631a      	str	r2, [r3, #48]	; 0x30
 80056cc:	6b1b      	ldr	r3, [r3, #48]	; 0x30
 80056ce:	f003 0308 	and.w	r3, r3, #8
 80056d2:	9303      	str	r3, [sp, #12]
 80056d4:	9b03      	ldr	r3, [sp, #12]
 80056d6:	e00b      	b.n	80056f0 <BSP_LED_Init+0x68>
 80056d8:	2803      	cmp	r0, #3
 80056da:	d109      	bne.n	80056f0 <BSP_LED_Init+0x68>
 80056dc:	4b10      	ldr	r3, [pc, #64]	; (8005720 <BSP_LED_Init+0x98>)
 80056de:	6b1a      	ldr	r2, [r3, #48]	; 0x30
 80056e0:	f042 0208 	orr.w	r2, r2, #8
 80056e4:	631a      	str	r2, [r3, #48]	; 0x30
 80056e6:	6b1b      	ldr	r3, [r3, #48]	; 0x30
 80056e8:	f003 0308 	and.w	r3, r3, #8
 80056ec:	9304      	str	r3, [sp, #16]
 80056ee:	9b04      	ldr	r3, [sp, #16]
 80056f0:	4d0c      	ldr	r5, [pc, #48]	; (8005724 <BSP_LED_Init+0x9c>)
 80056f2:	4b0d      	ldr	r3, [pc, #52]	; (8005728 <BSP_LED_Init+0xa0>)
 80056f4:	eb05 0580 	add.w	r5, r5, r0, lsl #2
 80056f8:	f833 4010 	ldrh.w	r4, [r3, r0, lsl #1]
 80056fc:	6868      	ldr	r0, [r5, #4]
 80056fe:	9405      	str	r4, [sp, #20]
 8005700:	2301      	movs	r3, #1
 8005702:	9306      	str	r3, [sp, #24]
 8005704:	9307      	str	r3, [sp, #28]
 8005706:	a905      	add	r1, sp, #20
 8005708:	2302      	movs	r3, #2
 800570a:	9308      	str	r3, [sp, #32]
 800570c:	f7fc fb74 	bl	8001df8 <HAL_GPIO_Init>
 8005710:	6868      	ldr	r0, [r5, #4]
 8005712:	4621      	mov	r1, r4
 8005714:	2200      	movs	r2, #0
 8005716:	f7fc fced 	bl	80020f4 <HAL_GPIO_WritePin>
 800571a:	b00b      	add	sp, #44	; 0x2c
 800571c:	bd30      	pop	{r4, r5, pc}
 800571e:	bf00      	nop
 8005720:	40023800 	.word	0x40023800
 8005724:	20000014 	.word	0x20000014
 8005728:	08006dcc 	.word	0x08006dcc

0800572c <BSP_LED_On>:
 800572c:	4a05      	ldr	r2, [pc, #20]	; (8005744 <BSP_LED_On+0x18>)
 800572e:	eb02 0280 	add.w	r2, r2, r0, lsl #2
 8005732:	4603      	mov	r3, r0
 8005734:	6850      	ldr	r0, [r2, #4]
 8005736:	4a04      	ldr	r2, [pc, #16]	; (8005748 <BSP_LED_On+0x1c>)
 8005738:	f832 1013 	ldrh.w	r1, [r2, r3, lsl #1]
 800573c:	2201      	movs	r2, #1
 800573e:	f7fc bcd9 	b.w	80020f4 <HAL_GPIO_WritePin>
 8005742:	bf00      	nop
 8005744:	20000014 	.word	0x20000014
 8005748:	08006dcc 	.word	0x08006dcc

0800574c <BSP_LED_Off>:
 800574c:	4a05      	ldr	r2, [pc, #20]	; (8005764 <BSP_LED_Off+0x18>)
 800574e:	eb02 0280 	add.w	r2, r2, r0, lsl #2
 8005752:	4603      	mov	r3, r0
 8005754:	6850      	ldr	r0, [r2, #4]
 8005756:	4a04      	ldr	r2, [pc, #16]	; (8005768 <BSP_LED_Off+0x1c>)
 8005758:	f832 1013 	ldrh.w	r1, [r2, r3, lsl #1]
 800575c:	2200      	movs	r2, #0
 800575e:	f7fc bcc9 	b.w	80020f4 <HAL_GPIO_WritePin>
 8005762:	bf00      	nop
 8005764:	20000014 	.word	0x20000014
 8005768:	08006dcc 	.word	0x08006dcc

0800576c <BSP_LED_Toggle>:
 800576c:	4a04      	ldr	r2, [pc, #16]	; (8005780 <BSP_LED_Toggle+0x14>)
 800576e:	eb02 0280 	add.w	r2, r2, r0, lsl #2
 8005772:	4603      	mov	r3, r0
 8005774:	6850      	ldr	r0, [r2, #4]
 8005776:	4a03      	ldr	r2, [pc, #12]	; (8005784 <BSP_LED_Toggle+0x18>)
 8005778:	f832 1013 	ldrh.w	r1, [r2, r3, lsl #1]
 800577c:	f7fc bcbe 	b.w	80020fc <HAL_GPIO_TogglePin>
 8005780:	20000014 	.word	0x20000014
 8005784:	08006dcc 	.word	0x08006dcc

08005788 <BSP_PB_Init>:
 8005788:	b510      	push	{r4, lr}
 800578a:	b086      	sub	sp, #24
 800578c:	b948      	cbnz	r0, 80057a2 <BSP_PB_Init+0x1a>
 800578e:	4b19      	ldr	r3, [pc, #100]	; (80057f4 <BSP_PB_Init+0x6c>)
 8005790:	6b1a      	ldr	r2, [r3, #48]	; 0x30
 8005792:	f042 0201 	orr.w	r2, r2, #1
 8005796:	631a      	str	r2, [r3, #48]	; 0x30
 8005798:	6b1b      	ldr	r3, [r3, #48]	; 0x30
 800579a:	f003 0301 	and.w	r3, r3, #1
 800579e:	9300      	str	r3, [sp, #0]
 80057a0:	9b00      	ldr	r3, [sp, #0]
 80057a2:	b969      	cbnz	r1, 80057c0 <BSP_PB_Init+0x38>
 80057a4:	2301      	movs	r3, #1
 80057a6:	9301      	str	r3, [sp, #4]
 80057a8:	2302      	movs	r3, #2
 80057aa:	9304      	str	r3, [sp, #16]
 80057ac:	4b12      	ldr	r3, [pc, #72]	; (80057f8 <BSP_PB_Init+0x70>)
 80057ae:	9102      	str	r1, [sp, #8]
 80057b0:	eb03 0080 	add.w	r0, r3, r0, lsl #2
 80057b4:	9103      	str	r1, [sp, #12]
 80057b6:	6940      	ldr	r0, [r0, #20]
 80057b8:	a901      	add	r1, sp, #4
 80057ba:	f7fc fb1d 	bl	8001df8 <HAL_GPIO_Init>
 80057be:	e017      	b.n	80057f0 <BSP_PB_Init+0x68>
 80057c0:	2901      	cmp	r1, #1
 80057c2:	d115      	bne.n	80057f0 <BSP_PB_Init+0x68>
 80057c4:	2302      	movs	r3, #2
 80057c6:	9304      	str	r3, [sp, #16]
 80057c8:	4b0c      	ldr	r3, [pc, #48]	; (80057fc <BSP_PB_Init+0x74>)
 80057ca:	9101      	str	r1, [sp, #4]
 80057cc:	9302      	str	r3, [sp, #8]
 80057ce:	4b0a      	ldr	r3, [pc, #40]	; (80057f8 <BSP_PB_Init+0x70>)
 80057d0:	eb03 0080 	add.w	r0, r3, r0, lsl #2
 80057d4:	2400      	movs	r4, #0
 80057d6:	6940      	ldr	r0, [r0, #20]
 80057d8:	9403      	str	r4, [sp, #12]
 80057da:	a901      	add	r1, sp, #4
 80057dc:	f7fc fb0c 	bl	8001df8 <HAL_GPIO_Init>
 80057e0:	2006      	movs	r0, #6
 80057e2:	210f      	movs	r1, #15
 80057e4:	4622      	mov	r2, r4
 80057e6:	f7fa fe21 	bl	800042c <HAL_NVIC_SetPriority>
 80057ea:	2006      	movs	r0, #6
 80057ec:	f7fa fe50 	bl	8000490 <HAL_NVIC_EnableIRQ>
 80057f0:	b006      	add	sp, #24
 80057f2:	bd10      	pop	{r4, pc}
 80057f4:	40023800 	.word	0x40023800
 80057f8:	20000014 	.word	0x20000014
 80057fc:	10110000 	.word	0x10110000

08005800 <BSP_PB_GetState>:
 8005800:	b508      	push	{r3, lr}
 8005802:	4b04      	ldr	r3, [pc, #16]	; (8005814 <BSP_PB_GetState+0x14>)
 8005804:	eb03 0080 	add.w	r0, r3, r0, lsl #2
 8005808:	2101      	movs	r1, #1
 800580a:	6940      	ldr	r0, [r0, #20]
 800580c:	f7fc fc6c 	bl	80020e8 <HAL_GPIO_ReadPin>
 8005810:	bd08      	pop	{r3, pc}
 8005812:	bf00      	nop
 8005814:	20000014 	.word	0x20000014

08005818 <_Z16ACCELERO_IO_Initv>:
 8005818:	4b10      	ldr	r3, [pc, #64]	; (800585c <_Z16ACCELERO_IO_Initv+0x44>)
 800581a:	b570      	push	{r4, r5, r6, lr}
 800581c:	6b1a      	ldr	r2, [r3, #48]	; 0x30
 800581e:	4e10      	ldr	r6, [pc, #64]	; (8005860 <_Z16ACCELERO_IO_Initv+0x48>)
 8005820:	f042 0210 	orr.w	r2, r2, #16
 8005824:	631a      	str	r2, [r3, #48]	; 0x30
 8005826:	6b1b      	ldr	r3, [r3, #48]	; 0x30
 8005828:	b086      	sub	sp, #24
 800582a:	f003 0310 	and.w	r3, r3, #16
 800582e:	9300      	str	r3, [sp, #0]
 8005830:	2401      	movs	r4, #1
 8005832:	9b00      	ldr	r3, [sp, #0]
 8005834:	9402      	str	r4, [sp, #8]
 8005836:	2300      	movs	r3, #0
 8005838:	2508      	movs	r5, #8
 800583a:	4630      	mov	r0, r6
 800583c:	a901      	add	r1, sp, #4
 800583e:	9303      	str	r3, [sp, #12]
 8005840:	9501      	str	r5, [sp, #4]
 8005842:	9404      	str	r4, [sp, #16]
 8005844:	f7fc fad8 	bl	8001df8 <HAL_GPIO_Init>
 8005848:	4630      	mov	r0, r6
 800584a:	4629      	mov	r1, r5
 800584c:	4622      	mov	r2, r4
 800584e:	f7fc fc51 	bl	80020f4 <HAL_GPIO_WritePin>
 8005852:	f7ff fe4f 	bl	80054f4 <_ZL9SPIx_Initv>
 8005856:	b006      	add	sp, #24
 8005858:	bd70      	pop	{r4, r5, r6, pc}
 800585a:	bf00      	nop
 800585c:	40023800 	.word	0x40023800
 8005860:	40021000 	.word	0x40021000

08005864 <_Z20ACCELERO_IO_ITConfigv>:
 8005864:	4b10      	ldr	r3, [pc, #64]	; (80058a8 <_Z20ACCELERO_IO_ITConfigv+0x44>)
 8005866:	4811      	ldr	r0, [pc, #68]	; (80058ac <_Z20ACCELERO_IO_ITConfigv+0x48>)
 8005868:	6b1a      	ldr	r2, [r3, #48]	; 0x30
 800586a:	b510      	push	{r4, lr}
 800586c:	f042 0210 	orr.w	r2, r2, #16
 8005870:	631a      	str	r2, [r3, #48]	; 0x30
 8005872:	6b1b      	ldr	r3, [r3, #48]	; 0x30
 8005874:	4a0e      	ldr	r2, [pc, #56]	; (80058b0 <_Z20ACCELERO_IO_ITConfigv+0x4c>)
 8005876:	b086      	sub	sp, #24
 8005878:	f003 0310 	and.w	r3, r3, #16
 800587c:	9300      	str	r3, [sp, #0]
 800587e:	9b00      	ldr	r3, [sp, #0]
 8005880:	9202      	str	r2, [sp, #8]
 8005882:	2302      	movs	r3, #2
 8005884:	2400      	movs	r4, #0
 8005886:	a901      	add	r1, sp, #4
 8005888:	9301      	str	r3, [sp, #4]
 800588a:	9304      	str	r3, [sp, #16]
 800588c:	9403      	str	r4, [sp, #12]
 800588e:	f7fc fab3 	bl	8001df8 <HAL_GPIO_Init>
 8005892:	210f      	movs	r1, #15
 8005894:	4622      	mov	r2, r4
 8005896:	2007      	movs	r0, #7
 8005898:	f7fa fdc8 	bl	800042c <HAL_NVIC_SetPriority>
 800589c:	2007      	movs	r0, #7
 800589e:	f7fa fdf7 	bl	8000490 <HAL_NVIC_EnableIRQ>
 80058a2:	b006      	add	sp, #24
 80058a4:	bd10      	pop	{r4, pc}
 80058a6:	bf00      	nop
 80058a8:	40023800 	.word	0x40023800
 80058ac:	40021000 	.word	0x40021000
 80058b0:	10110000 	.word	0x10110000

080058b4 <_Z17ACCELERO_IO_WritePhht>:
 80058b4:	2a01      	cmp	r2, #1
 80058b6:	b570      	push	{r4, r5, r6, lr}
 80058b8:	460d      	mov	r5, r1
 80058ba:	4606      	mov	r6, r0
 80058bc:	bf88      	it	hi
 80058be:	f041 0540 	orrhi.w	r5, r1, #64	; 0x40
 80058c2:	480c      	ldr	r0, [pc, #48]	; (80058f4 <_Z17ACCELERO_IO_WritePhht+0x40>)
 80058c4:	4614      	mov	r4, r2
 80058c6:	2108      	movs	r1, #8
 80058c8:	2200      	movs	r2, #0
 80058ca:	f7fc fc13 	bl	80020f4 <HAL_GPIO_WritePin>
 80058ce:	4628      	mov	r0, r5
 80058d0:	f7ff fe58 	bl	8005584 <_ZL14SPIx_WriteReadh>
 80058d4:	b134      	cbz	r4, 80058e4 <_Z17ACCELERO_IO_WritePhht+0x30>
 80058d6:	f816 0b01 	ldrb.w	r0, [r6], #1
 80058da:	3c01      	subs	r4, #1
 80058dc:	f7ff fe52 	bl	8005584 <_ZL14SPIx_WriteReadh>
 80058e0:	b2a4      	uxth	r4, r4
 80058e2:	e7f7      	b.n	80058d4 <_Z17ACCELERO_IO_WritePhht+0x20>
 80058e4:	4803      	ldr	r0, [pc, #12]	; (80058f4 <_Z17ACCELERO_IO_WritePhht+0x40>)
 80058e6:	2108      	movs	r1, #8
 80058e8:	2201      	movs	r2, #1
 80058ea:	e8bd 4070 	ldmia.w	sp!, {r4, r5, r6, lr}
 80058ee:	f7fc bc01 	b.w	80020f4 <HAL_GPIO_WritePin>
 80058f2:	bf00      	nop
 80058f4:	40021000 	.word	0x40021000

080058f8 <_Z16ACCELERO_IO_ReadPhht>:
 80058f8:	2a01      	cmp	r2, #1
 80058fa:	b570      	push	{r4, r5, r6, lr}
 80058fc:	bf8c      	ite	hi
 80058fe:	f041 06c0 	orrhi.w	r6, r1, #192	; 0xc0
 8005902:	f041 0680 	orrls.w	r6, r1, #128	; 0x80
 8005906:	4605      	mov	r5, r0
 8005908:	4614      	mov	r4, r2
 800590a:	480c      	ldr	r0, [pc, #48]	; (800593c <_Z16ACCELERO_IO_ReadPhht+0x44>)
 800590c:	2108      	movs	r1, #8
 800590e:	2200      	movs	r2, #0
 8005910:	f7fc fbf0 	bl	80020f4 <HAL_GPIO_WritePin>
 8005914:	4630      	mov	r0, r6
 8005916:	f7ff fe35 	bl	8005584 <_ZL14SPIx_WriteReadh>
 800591a:	b13c      	cbz	r4, 800592c <_Z16ACCELERO_IO_ReadPhht+0x34>
 800591c:	2000      	movs	r0, #0
 800591e:	f7ff fe31 	bl	8005584 <_ZL14SPIx_WriteReadh>
 8005922:	3c01      	subs	r4, #1
 8005924:	f805 0b01 	strb.w	r0, [r5], #1
 8005928:	b2a4      	uxth	r4, r4
 800592a:	e7f6      	b.n	800591a <_Z16ACCELERO_IO_ReadPhht+0x22>
 800592c:	4803      	ldr	r0, [pc, #12]	; (800593c <_Z16ACCELERO_IO_ReadPhht+0x44>)
 800592e:	2108      	movs	r1, #8
 8005930:	2201      	movs	r2, #1
 8005932:	e8bd 4070 	ldmia.w	sp!, {r4, r5, r6, lr}
 8005936:	f7fc bbdd 	b.w	80020f4 <HAL_GPIO_WritePin>
 800593a:	bf00      	nop
 800593c:	40021000 	.word	0x40021000

08005940 <_Z13AUDIO_IO_Initv>:
 8005940:	4b16      	ldr	r3, [pc, #88]	; (800599c <_Z13AUDIO_IO_Initv+0x5c>)
 8005942:	b5f0      	push	{r4, r5, r6, r7, lr}
 8005944:	6b1a      	ldr	r2, [r3, #48]	; 0x30
 8005946:	4d16      	ldr	r5, [pc, #88]	; (80059a0 <_Z13AUDIO_IO_Initv+0x60>)
 8005948:	f042 0208 	orr.w	r2, r2, #8
 800594c:	631a      	str	r2, [r3, #48]	; 0x30
 800594e:	6b1b      	ldr	r3, [r3, #48]	; 0x30
 8005950:	b087      	sub	sp, #28
 8005952:	f003 0308 	and.w	r3, r3, #8
 8005956:	9300      	str	r3, [sp, #0]
 8005958:	2410      	movs	r4, #16
 800595a:	4628      	mov	r0, r5
 800595c:	a901      	add	r1, sp, #4
 800595e:	9b00      	ldr	r3, [sp, #0]
 8005960:	9401      	str	r4, [sp, #4]
 8005962:	2302      	movs	r3, #2
 8005964:	2601      	movs	r6, #1
 8005966:	2700      	movs	r7, #0
 8005968:	9304      	str	r3, [sp, #16]
 800596a:	9602      	str	r6, [sp, #8]
 800596c:	9703      	str	r7, [sp, #12]
 800596e:	f7fc fa43 	bl	8001df8 <HAL_GPIO_Init>
 8005972:	f7ff fe27 	bl	80055c4 <_ZL9I2Cx_Initv>
 8005976:	4621      	mov	r1, r4
 8005978:	463a      	mov	r2, r7
 800597a:	4628      	mov	r0, r5
 800597c:	f7fc fbba 	bl	80020f4 <HAL_GPIO_WritePin>
 8005980:	2005      	movs	r0, #5
 8005982:	f7fa fcc5 	bl	8000310 <HAL_Delay>
 8005986:	4628      	mov	r0, r5
 8005988:	4621      	mov	r1, r4
 800598a:	4632      	mov	r2, r6
 800598c:	f7fc fbb2 	bl	80020f4 <HAL_GPIO_WritePin>
 8005990:	2005      	movs	r0, #5
 8005992:	f7fa fcbd 	bl	8000310 <HAL_Delay>
 8005996:	b007      	add	sp, #28
 8005998:	bdf0      	pop	{r4, r5, r6, r7, pc}
 800599a:	bf00      	nop
 800599c:	40023800 	.word	0x40023800
 80059a0:	40020c00 	.word	0x40020c00

080059a4 <_Z14AUDIO_IO_Writehhh>:
 80059a4:	b570      	push	{r4, r5, r6, lr}
 80059a6:	b086      	sub	sp, #24
 80059a8:	ab06      	add	r3, sp, #24
 80059aa:	4606      	mov	r6, r0
 80059ac:	f803 2d01 	strb.w	r2, [r3, #-1]!
 80059b0:	4a09      	ldr	r2, [pc, #36]	; (80059d8 <_Z14AUDIO_IO_Writehhh+0x34>)
 80059b2:	9300      	str	r3, [sp, #0]
 80059b4:	2301      	movs	r3, #1
 80059b6:	9301      	str	r3, [sp, #4]
 80059b8:	6994      	ldr	r4, [r2, #24]
 80059ba:	4808      	ldr	r0, [pc, #32]	; (80059dc <_Z14AUDIO_IO_Writehhh+0x38>)
 80059bc:	9402      	str	r4, [sp, #8]
 80059be:	460d      	mov	r5, r1
 80059c0:	462a      	mov	r2, r5
 80059c2:	4631      	mov	r1, r6
 80059c4:	f7fd fac0 	bl	8002f48 <HAL_I2C_Mem_Write>
 80059c8:	b120      	cbz	r0, 80059d4 <_Z14AUDIO_IO_Writehhh+0x30>
 80059ca:	4804      	ldr	r0, [pc, #16]	; (80059dc <_Z14AUDIO_IO_Writehhh+0x38>)
 80059cc:	f7fc fe0b 	bl	80025e6 <HAL_I2C_DeInit>
 80059d0:	f7ff fdf8 	bl	80055c4 <_ZL9I2Cx_Initv>
 80059d4:	b006      	add	sp, #24
 80059d6:	bd70      	pop	{r4, r5, r6, pc}
 80059d8:	20000014 	.word	0x20000014
 80059dc:	200004bc 	.word	0x200004bc

080059e0 <_Z13AUDIO_IO_Readhh>:
 80059e0:	b530      	push	{r4, r5, lr}
 80059e2:	b087      	sub	sp, #28
 80059e4:	ab06      	add	r3, sp, #24
 80059e6:	460a      	mov	r2, r1
 80059e8:	2100      	movs	r1, #0
 80059ea:	f803 1d01 	strb.w	r1, [r3, #-1]!
 80059ee:	490a      	ldr	r1, [pc, #40]	; (8005a18 <_Z13AUDIO_IO_Readhh+0x38>)
 80059f0:	9300      	str	r3, [sp, #0]
 80059f2:	2301      	movs	r3, #1
 80059f4:	9301      	str	r3, [sp, #4]
 80059f6:	698c      	ldr	r4, [r1, #24]
 80059f8:	4605      	mov	r5, r0
 80059fa:	9402      	str	r4, [sp, #8]
 80059fc:	4807      	ldr	r0, [pc, #28]	; (8005a1c <_Z13AUDIO_IO_Readhh+0x3c>)
 80059fe:	4629      	mov	r1, r5
 8005a00:	f7fd fb12 	bl	8003028 <HAL_I2C_Mem_Read>
 8005a04:	b120      	cbz	r0, 8005a10 <_Z13AUDIO_IO_Readhh+0x30>
 8005a06:	4805      	ldr	r0, [pc, #20]	; (8005a1c <_Z13AUDIO_IO_Readhh+0x3c>)
 8005a08:	f7fc fded 	bl	80025e6 <HAL_I2C_DeInit>
 8005a0c:	f7ff fdda 	bl	80055c4 <_ZL9I2Cx_Initv>
 8005a10:	f89d 0017 	ldrb.w	r0, [sp, #23]
 8005a14:	b007      	add	sp, #28
 8005a16:	bd30      	pop	{r4, r5, pc}
 8005a18:	20000014 	.word	0x20000014
 8005a1c:	200004bc 	.word	0x200004bc

08005a20 <selfrel_offset31>:
 8005a20:	6803      	ldr	r3, [r0, #0]
 8005a22:	005a      	lsls	r2, r3, #1
 8005a24:	bf4c      	ite	mi
 8005a26:	f043 4300 	orrmi.w	r3, r3, #2147483648	; 0x80000000
 8005a2a:	f023 4300 	bicpl.w	r3, r3, #2147483648	; 0x80000000
 8005a2e:	4418      	add	r0, r3
 8005a30:	4770      	bx	lr
 8005a32:	bf00      	nop

08005a34 <search_EIT_table>:
 8005a34:	e92d 4ff0 	stmdb	sp!, {r4, r5, r6, r7, r8, r9, sl, fp, lr}
 8005a38:	4606      	mov	r6, r0
 8005a3a:	b083      	sub	sp, #12
 8005a3c:	4691      	mov	r9, r2
 8005a3e:	b321      	cbz	r1, 8005a8a <search_EIT_table+0x56>
 8005a40:	3901      	subs	r1, #1
 8005a42:	9101      	str	r1, [sp, #4]
 8005a44:	4688      	mov	r8, r1
 8005a46:	2700      	movs	r7, #0
 8005a48:	eb07 0408 	add.w	r4, r7, r8
 8005a4c:	eb04 74d4 	add.w	r4, r4, r4, lsr #31
 8005a50:	1064      	asrs	r4, r4, #1
 8005a52:	00e5      	lsls	r5, r4, #3
 8005a54:	eb06 0b05 	add.w	fp, r6, r5
 8005a58:	4658      	mov	r0, fp
 8005a5a:	f7ff ffe1 	bl	8005a20 <selfrel_offset31>
 8005a5e:	9b01      	ldr	r3, [sp, #4]
 8005a60:	4682      	mov	sl, r0
 8005a62:	42a3      	cmp	r3, r4
 8005a64:	f105 0008 	add.w	r0, r5, #8
 8005a68:	4430      	add	r0, r6
 8005a6a:	d019      	beq.n	8005aa0 <search_EIT_table+0x6c>
 8005a6c:	f7ff ffd8 	bl	8005a20 <selfrel_offset31>
 8005a70:	45ca      	cmp	sl, r9
 8005a72:	f100 30ff 	add.w	r0, r0, #4294967295	; 0xffffffff
 8005a76:	d904      	bls.n	8005a82 <search_EIT_table+0x4e>
 8005a78:	42bc      	cmp	r4, r7
 8005a7a:	d00b      	beq.n	8005a94 <search_EIT_table+0x60>
 8005a7c:	f104 38ff 	add.w	r8, r4, #4294967295	; 0xffffffff
 8005a80:	e7e2      	b.n	8005a48 <search_EIT_table+0x14>
 8005a82:	4548      	cmp	r0, r9
 8005a84:	d202      	bcs.n	8005a8c <search_EIT_table+0x58>
 8005a86:	1c67      	adds	r7, r4, #1
 8005a88:	e7de      	b.n	8005a48 <search_EIT_table+0x14>
 8005a8a:	468b      	mov	fp, r1
 8005a8c:	4658      	mov	r0, fp
 8005a8e:	b003      	add	sp, #12
 8005a90:	e8bd 8ff0 	ldmia.w	sp!, {r4, r5, r6, r7, r8, r9, sl, fp, pc}
 8005a94:	f04f 0b00 	mov.w	fp, #0
 8005a98:	4658      	mov	r0, fp
 8005a9a:	b003      	add	sp, #12
 8005a9c:	e8bd 8ff0 	ldmia.w	sp!, {r4, r5, r6, r7, r8, r9, sl, fp, pc}
 8005aa0:	45ca      	cmp	sl, r9
 8005aa2:	d8e9      	bhi.n	8005a78 <search_EIT_table+0x44>
 8005aa4:	e7f2      	b.n	8005a8c <search_EIT_table+0x58>
 8005aa6:	bf00      	nop

08005aa8 <__gnu_unwind_get_pr_addr>:
 8005aa8:	2801      	cmp	r0, #1
 8005aaa:	d00a      	beq.n	8005ac2 <__gnu_unwind_get_pr_addr+0x1a>
 8005aac:	2802      	cmp	r0, #2
 8005aae:	d00d      	beq.n	8005acc <__gnu_unwind_get_pr_addr+0x24>
 8005ab0:	f246 13d1 	movw	r3, #25041	; 0x61d1
 8005ab4:	f6c0 0300 	movt	r3, #2048	; 0x800
 8005ab8:	2800      	cmp	r0, #0
 8005aba:	bf0c      	ite	eq
 8005abc:	4618      	moveq	r0, r3
 8005abe:	2000      	movne	r0, #0
 8005ac0:	4770      	bx	lr
 8005ac2:	f246 10d5 	movw	r0, #25045	; 0x61d5
 8005ac6:	f6c0 0000 	movt	r0, #2048	; 0x800
 8005aca:	4770      	bx	lr
 8005acc:	f246 10d9 	movw	r0, #25049	; 0x61d9
 8005ad0:	f6c0 0000 	movt	r0, #2048	; 0x800
 8005ad4:	4770      	bx	lr
 8005ad6:	bf00      	nop

08005ad8 <get_eit_entry>:
 8005ad8:	b530      	push	{r4, r5, lr}
 8005ada:	f240 0300 	movw	r3, #0
 8005ade:	f2c0 0300 	movt	r3, #0
 8005ae2:	b083      	sub	sp, #12
 8005ae4:	4604      	mov	r4, r0
 8005ae6:	1e8d      	subs	r5, r1, #2
 8005ae8:	2b00      	cmp	r3, #0
 8005aea:	d042      	beq.n	8005b72 <get_eit_entry+0x9a>
 8005aec:	4628      	mov	r0, r5
 8005aee:	a901      	add	r1, sp, #4
 8005af0:	f3af 8000 	nop.w
 8005af4:	4603      	mov	r3, r0
 8005af6:	b343      	cbz	r3, 8005b4a <get_eit_entry+0x72>
 8005af8:	462a      	mov	r2, r5
 8005afa:	9901      	ldr	r1, [sp, #4]
 8005afc:	f7ff ff9a 	bl	8005a34 <search_EIT_table>
 8005b00:	4605      	mov	r5, r0
 8005b02:	b338      	cbz	r0, 8005b54 <get_eit_entry+0x7c>
 8005b04:	f7ff ff8c 	bl	8005a20 <selfrel_offset31>
 8005b08:	686b      	ldr	r3, [r5, #4]
 8005b0a:	64a0      	str	r0, [r4, #72]	; 0x48
 8005b0c:	2b01      	cmp	r3, #1
 8005b0e:	d016      	beq.n	8005b3e <get_eit_entry+0x66>
 8005b10:	2b00      	cmp	r3, #0
 8005b12:	f105 0004 	add.w	r0, r5, #4
 8005b16:	bfbe      	ittt	lt
 8005b18:	2301      	movlt	r3, #1
 8005b1a:	64e0      	strlt	r0, [r4, #76]	; 0x4c
 8005b1c:	6523      	strlt	r3, [r4, #80]	; 0x50
 8005b1e:	db04      	blt.n	8005b2a <get_eit_entry+0x52>
 8005b20:	f7ff ff7e 	bl	8005a20 <selfrel_offset31>
 8005b24:	2300      	movs	r3, #0
 8005b26:	64e0      	str	r0, [r4, #76]	; 0x4c
 8005b28:	6523      	str	r3, [r4, #80]	; 0x50
 8005b2a:	6803      	ldr	r3, [r0, #0]
 8005b2c:	2b00      	cmp	r3, #0
 8005b2e:	db16      	blt.n	8005b5e <get_eit_entry+0x86>
 8005b30:	f7ff ff76 	bl	8005a20 <selfrel_offset31>
 8005b34:	2300      	movs	r3, #0
 8005b36:	6120      	str	r0, [r4, #16]
 8005b38:	4618      	mov	r0, r3
 8005b3a:	b003      	add	sp, #12
 8005b3c:	bd30      	pop	{r4, r5, pc}
 8005b3e:	2300      	movs	r3, #0
 8005b40:	6123      	str	r3, [r4, #16]
 8005b42:	2305      	movs	r3, #5
 8005b44:	4618      	mov	r0, r3
 8005b46:	b003      	add	sp, #12
 8005b48:	bd30      	pop	{r4, r5, pc}
 8005b4a:	6123      	str	r3, [r4, #16]
 8005b4c:	2309      	movs	r3, #9
 8005b4e:	4618      	mov	r0, r3
 8005b50:	b003      	add	sp, #12
 8005b52:	bd30      	pop	{r4, r5, pc}
 8005b54:	2309      	movs	r3, #9
 8005b56:	6120      	str	r0, [r4, #16]
 8005b58:	4618      	mov	r0, r3
 8005b5a:	b003      	add	sp, #12
 8005b5c:	bd30      	pop	{r4, r5, pc}
 8005b5e:	f3c3 6003 	ubfx	r0, r3, #24, #4
 8005b62:	f7ff ffa1 	bl	8005aa8 <__gnu_unwind_get_pr_addr>
 8005b66:	6120      	str	r0, [r4, #16]
 8005b68:	2800      	cmp	r0, #0
 8005b6a:	bf0c      	ite	eq
 8005b6c:	2309      	moveq	r3, #9
 8005b6e:	2300      	movne	r3, #0
 8005b70:	e7e2      	b.n	8005b38 <get_eit_entry+0x60>
 8005b72:	f247 2384 	movw	r3, #29316	; 0x7284
 8005b76:	f646 60a4 	movw	r0, #28324	; 0x6ea4
 8005b7a:	f6c0 0300 	movt	r3, #2048	; 0x800
 8005b7e:	f6c0 0000 	movt	r0, #2048	; 0x800
 8005b82:	1a1b      	subs	r3, r3, r0
 8005b84:	10db      	asrs	r3, r3, #3
 8005b86:	9301      	str	r3, [sp, #4]
 8005b88:	e7b6      	b.n	8005af8 <get_eit_entry+0x20>
 8005b8a:	bf00      	nop

08005b8c <restore_non_core_regs>:
 8005b8c:	6803      	ldr	r3, [r0, #0]
 8005b8e:	b510      	push	{r4, lr}
 8005b90:	4604      	mov	r4, r0
 8005b92:	07d8      	lsls	r0, r3, #31
 8005b94:	d406      	bmi.n	8005ba4 <restore_non_core_regs+0x18>
 8005b96:	0799      	lsls	r1, r3, #30
 8005b98:	f104 0048 	add.w	r0, r4, #72	; 0x48
 8005b9c:	d509      	bpl.n	8005bb2 <restore_non_core_regs+0x26>
 8005b9e:	f000 fc6d 	bl	800647c <__gnu_Unwind_Restore_VFP_D>
 8005ba2:	6823      	ldr	r3, [r4, #0]
 8005ba4:	075a      	lsls	r2, r3, #29
 8005ba6:	d509      	bpl.n	8005bbc <restore_non_core_regs+0x30>
 8005ba8:	0718      	lsls	r0, r3, #28
 8005baa:	d50e      	bpl.n	8005bca <restore_non_core_regs+0x3e>
 8005bac:	06d9      	lsls	r1, r3, #27
 8005bae:	d513      	bpl.n	8005bd8 <restore_non_core_regs+0x4c>
 8005bb0:	bd10      	pop	{r4, pc}
 8005bb2:	f000 fc5b 	bl	800646c <__gnu_Unwind_Restore_VFP>
 8005bb6:	6823      	ldr	r3, [r4, #0]
 8005bb8:	075a      	lsls	r2, r3, #29
 8005bba:	d4f5      	bmi.n	8005ba8 <restore_non_core_regs+0x1c>
 8005bbc:	f104 00d0 	add.w	r0, r4, #208	; 0xd0
 8005bc0:	f000 fc64 	bl	800648c <__gnu_Unwind_Restore_VFP_D_16_to_31>
 8005bc4:	6823      	ldr	r3, [r4, #0]
 8005bc6:	0718      	lsls	r0, r3, #28
 8005bc8:	d4f0      	bmi.n	8005bac <restore_non_core_regs+0x20>
 8005bca:	f504 70a8 	add.w	r0, r4, #336	; 0x150
 8005bce:	f000 fc65 	bl	800649c <__gnu_Unwind_Restore_WMMXD>
 8005bd2:	6823      	ldr	r3, [r4, #0]
 8005bd4:	06d9      	lsls	r1, r3, #27
 8005bd6:	d4eb      	bmi.n	8005bb0 <restore_non_core_regs+0x24>
 8005bd8:	f504 70e8 	add.w	r0, r4, #464	; 0x1d0
 8005bdc:	e8bd 4010 	ldmia.w	sp!, {r4, lr}
 8005be0:	f000 bca0 	b.w	8006524 <__gnu_Unwind_Restore_WMMXC>

08005be4 <_Unwind_decode_typeinfo_ptr.isra.0>:
 8005be4:	6803      	ldr	r3, [r0, #0]
 8005be6:	b10b      	cbz	r3, 8005bec <_Unwind_decode_typeinfo_ptr.isra.0+0x8>
 8005be8:	4418      	add	r0, r3
 8005bea:	4770      	bx	lr
 8005bec:	4618      	mov	r0, r3
 8005bee:	4770      	bx	lr

08005bf0 <__gnu_unwind_24bit.isra.1>:
 8005bf0:	2009      	movs	r0, #9
 8005bf2:	4770      	bx	lr

08005bf4 <_Unwind_DebugHook>:
 8005bf4:	4770      	bx	lr
 8005bf6:	bf00      	nop

08005bf8 <unwind_phase2>:
 8005bf8:	b570      	push	{r4, r5, r6, lr}
 8005bfa:	4604      	mov	r4, r0
 8005bfc:	460d      	mov	r5, r1
 8005bfe:	e008      	b.n	8005c12 <unwind_phase2+0x1a>
 8005c00:	6c2a      	ldr	r2, [r5, #64]	; 0x40
 8005c02:	6923      	ldr	r3, [r4, #16]
 8005c04:	6162      	str	r2, [r4, #20]
 8005c06:	2001      	movs	r0, #1
 8005c08:	4621      	mov	r1, r4
 8005c0a:	462a      	mov	r2, r5
 8005c0c:	4798      	blx	r3
 8005c0e:	2808      	cmp	r0, #8
 8005c10:	d108      	bne.n	8005c24 <unwind_phase2+0x2c>
 8005c12:	4620      	mov	r0, r4
 8005c14:	6c29      	ldr	r1, [r5, #64]	; 0x40
 8005c16:	f7ff ff5f 	bl	8005ad8 <get_eit_entry>
 8005c1a:	4606      	mov	r6, r0
 8005c1c:	2800      	cmp	r0, #0
 8005c1e:	d0ef      	beq.n	8005c00 <unwind_phase2+0x8>
 8005c20:	f001 f866 	bl	8006cf0 <abort>
 8005c24:	2807      	cmp	r0, #7
 8005c26:	d1fb      	bne.n	8005c20 <unwind_phase2+0x28>
 8005c28:	4630      	mov	r0, r6
 8005c2a:	6c29      	ldr	r1, [r5, #64]	; 0x40
 8005c2c:	f7ff ffe2 	bl	8005bf4 <_Unwind_DebugHook>
 8005c30:	1d28      	adds	r0, r5, #4
 8005c32:	f000 fc0f 	bl	8006454 <__restore_core_regs>
 8005c36:	bf00      	nop

08005c38 <unwind_phase2_forced>:
 8005c38:	e92d 47f0 	stmdb	sp!, {r4, r5, r6, r7, r8, r9, sl, lr}
 8005c3c:	1d0c      	adds	r4, r1, #4
 8005c3e:	4605      	mov	r5, r0
 8005c40:	4617      	mov	r7, r2
 8005c42:	cc0f      	ldmia	r4!, {r0, r1, r2, r3}
 8005c44:	f5ad 7d72 	sub.w	sp, sp, #968	; 0x3c8
 8005c48:	ae03      	add	r6, sp, #12
 8005c4a:	c60f      	stmia	r6!, {r0, r1, r2, r3}
 8005c4c:	cc0f      	ldmia	r4!, {r0, r1, r2, r3}
 8005c4e:	c60f      	stmia	r6!, {r0, r1, r2, r3}
 8005c50:	cc0f      	ldmia	r4!, {r0, r1, r2, r3}
 8005c52:	c60f      	stmia	r6!, {r0, r1, r2, r3}
 8005c54:	e894 000f 	ldmia.w	r4, {r0, r1, r2, r3}
 8005c58:	ac02      	add	r4, sp, #8
 8005c5a:	f04f 0e00 	mov.w	lr, #0
 8005c5e:	f8d5 800c 	ldr.w	r8, [r5, #12]
 8005c62:	f8d5 9018 	ldr.w	r9, [r5, #24]
 8005c66:	e886 000f 	stmia.w	r6, {r0, r1, r2, r3}
 8005c6a:	4628      	mov	r0, r5
 8005c6c:	6c21      	ldr	r1, [r4, #64]	; 0x40
 8005c6e:	f8c4 e000 	str.w	lr, [r4]
 8005c72:	4577      	cmp	r7, lr
 8005c74:	bf14      	ite	ne
 8005c76:	270a      	movne	r7, #10
 8005c78:	2709      	moveq	r7, #9
 8005c7a:	f7ff ff2d 	bl	8005ad8 <get_eit_entry>
 8005c7e:	4606      	mov	r6, r0
 8005c80:	b18e      	cbz	r6, 8005ca6 <unwind_phase2_forced+0x6e>
 8005c82:	6ba0      	ldr	r0, [r4, #56]	; 0x38
 8005c84:	9400      	str	r4, [sp, #0]
 8005c86:	f8cd 9004 	str.w	r9, [sp, #4]
 8005c8a:	462a      	mov	r2, r5
 8005c8c:	6460      	str	r0, [r4, #68]	; 0x44
 8005c8e:	f047 0110 	orr.w	r1, r7, #16
 8005c92:	462b      	mov	r3, r5
 8005c94:	2001      	movs	r0, #1
 8005c96:	47c0      	blx	r8
 8005c98:	2800      	cmp	r0, #0
 8005c9a:	d12f      	bne.n	8005cfc <unwind_phase2_forced+0xc4>
 8005c9c:	4630      	mov	r0, r6
 8005c9e:	f50d 7d72 	add.w	sp, sp, #968	; 0x3c8
 8005ca2:	e8bd 87f0 	ldmia.w	sp!, {r4, r5, r6, r7, r8, r9, sl, pc}
 8005ca6:	6c23      	ldr	r3, [r4, #64]	; 0x40
 8005ca8:	4621      	mov	r1, r4
 8005caa:	616b      	str	r3, [r5, #20]
 8005cac:	f44f 72f0 	mov.w	r2, #480	; 0x1e0
 8005cb0:	a87a      	add	r0, sp, #488	; 0x1e8
 8005cb2:	f000 fe45 	bl	8006940 <memcpy>
 8005cb6:	692b      	ldr	r3, [r5, #16]
 8005cb8:	4629      	mov	r1, r5
 8005cba:	aa7a      	add	r2, sp, #488	; 0x1e8
 8005cbc:	4638      	mov	r0, r7
 8005cbe:	4798      	blx	r3
 8005cc0:	9b88      	ldr	r3, [sp, #544]	; 0x220
 8005cc2:	4682      	mov	sl, r0
 8005cc4:	e88d 0210 	stmia.w	sp, {r4, r9}
 8005cc8:	4639      	mov	r1, r7
 8005cca:	6463      	str	r3, [r4, #68]	; 0x44
 8005ccc:	2001      	movs	r0, #1
 8005cce:	462a      	mov	r2, r5
 8005cd0:	462b      	mov	r3, r5
 8005cd2:	47c0      	blx	r8
 8005cd4:	b990      	cbnz	r0, 8005cfc <unwind_phase2_forced+0xc4>
 8005cd6:	4620      	mov	r0, r4
 8005cd8:	a97a      	add	r1, sp, #488	; 0x1e8
 8005cda:	f44f 72f0 	mov.w	r2, #480	; 0x1e0
 8005cde:	f000 fe2f 	bl	8006940 <memcpy>
 8005ce2:	f1ba 0f08 	cmp.w	sl, #8
 8005ce6:	d106      	bne.n	8005cf6 <unwind_phase2_forced+0xbe>
 8005ce8:	4628      	mov	r0, r5
 8005cea:	6c21      	ldr	r1, [r4, #64]	; 0x40
 8005cec:	f7ff fef4 	bl	8005ad8 <get_eit_entry>
 8005cf0:	2709      	movs	r7, #9
 8005cf2:	4606      	mov	r6, r0
 8005cf4:	e7c4      	b.n	8005c80 <unwind_phase2_forced+0x48>
 8005cf6:	f1ba 0f07 	cmp.w	sl, #7
 8005cfa:	d004      	beq.n	8005d06 <unwind_phase2_forced+0xce>
 8005cfc:	2009      	movs	r0, #9
 8005cfe:	f50d 7d72 	add.w	sp, sp, #968	; 0x3c8
 8005d02:	e8bd 87f0 	ldmia.w	sp!, {r4, r5, r6, r7, r8, r9, sl, pc}
 8005d06:	4630      	mov	r0, r6
 8005d08:	6c21      	ldr	r1, [r4, #64]	; 0x40
 8005d0a:	f7ff ff73 	bl	8005bf4 <_Unwind_DebugHook>
 8005d0e:	a803      	add	r0, sp, #12
 8005d10:	f000 fba0 	bl	8006454 <__restore_core_regs>

08005d14 <_Unwind_GetCFA>:
 8005d14:	6c40      	ldr	r0, [r0, #68]	; 0x44
 8005d16:	4770      	bx	lr

08005d18 <__gnu_Unwind_RaiseException>:
 8005d18:	6bcb      	ldr	r3, [r1, #60]	; 0x3c
 8005d1a:	b5f0      	push	{r4, r5, r6, r7, lr}
 8005d1c:	640b      	str	r3, [r1, #64]	; 0x40
 8005d1e:	1d0e      	adds	r6, r1, #4
 8005d20:	460f      	mov	r7, r1
 8005d22:	4604      	mov	r4, r0
 8005d24:	ce0f      	ldmia	r6!, {r0, r1, r2, r3}
 8005d26:	b0f9      	sub	sp, #484	; 0x1e4
 8005d28:	ad01      	add	r5, sp, #4
 8005d2a:	c50f      	stmia	r5!, {r0, r1, r2, r3}
 8005d2c:	ce0f      	ldmia	r6!, {r0, r1, r2, r3}
 8005d2e:	c50f      	stmia	r5!, {r0, r1, r2, r3}
 8005d30:	ce0f      	ldmia	r6!, {r0, r1, r2, r3}
 8005d32:	c50f      	stmia	r5!, {r0, r1, r2, r3}
 8005d34:	e896 000f 	ldmia.w	r6, {r0, r1, r2, r3}
 8005d38:	f04f 36ff 	mov.w	r6, #4294967295	; 0xffffffff
 8005d3c:	e885 000f 	stmia.w	r5, {r0, r1, r2, r3}
 8005d40:	9600      	str	r6, [sp, #0]
 8005d42:	e006      	b.n	8005d52 <__gnu_Unwind_RaiseException+0x3a>
 8005d44:	6923      	ldr	r3, [r4, #16]
 8005d46:	4621      	mov	r1, r4
 8005d48:	466a      	mov	r2, sp
 8005d4a:	4798      	blx	r3
 8005d4c:	2808      	cmp	r0, #8
 8005d4e:	4605      	mov	r5, r0
 8005d50:	d108      	bne.n	8005d64 <__gnu_Unwind_RaiseException+0x4c>
 8005d52:	4620      	mov	r0, r4
 8005d54:	9910      	ldr	r1, [sp, #64]	; 0x40
 8005d56:	f7ff febf 	bl	8005ad8 <get_eit_entry>
 8005d5a:	2800      	cmp	r0, #0
 8005d5c:	d0f2      	beq.n	8005d44 <__gnu_Unwind_RaiseException+0x2c>
 8005d5e:	2009      	movs	r0, #9
 8005d60:	b079      	add	sp, #484	; 0x1e4
 8005d62:	bdf0      	pop	{r4, r5, r6, r7, pc}
 8005d64:	4668      	mov	r0, sp
 8005d66:	f7ff ff11 	bl	8005b8c <restore_non_core_regs>
 8005d6a:	2d06      	cmp	r5, #6
 8005d6c:	d1f7      	bne.n	8005d5e <__gnu_Unwind_RaiseException+0x46>
 8005d6e:	4620      	mov	r0, r4
 8005d70:	4639      	mov	r1, r7
 8005d72:	f7ff ff41 	bl	8005bf8 <unwind_phase2>
 8005d76:	bf00      	nop

08005d78 <__gnu_Unwind_ForcedUnwind>:
 8005d78:	b430      	push	{r4, r5}
 8005d7a:	6bdd      	ldr	r5, [r3, #60]	; 0x3c
 8005d7c:	60c1      	str	r1, [r0, #12]
 8005d7e:	6182      	str	r2, [r0, #24]
 8005d80:	4619      	mov	r1, r3
 8005d82:	641d      	str	r5, [r3, #64]	; 0x40
 8005d84:	2200      	movs	r2, #0
 8005d86:	bc30      	pop	{r4, r5}
 8005d88:	e756      	b.n	8005c38 <unwind_phase2_forced>
 8005d8a:	bf00      	nop

08005d8c <__gnu_Unwind_Resume>:
 8005d8c:	b570      	push	{r4, r5, r6, lr}
 8005d8e:	6943      	ldr	r3, [r0, #20]
 8005d90:	68c6      	ldr	r6, [r0, #12]
 8005d92:	640b      	str	r3, [r1, #64]	; 0x40
 8005d94:	4604      	mov	r4, r0
 8005d96:	460d      	mov	r5, r1
 8005d98:	b126      	cbz	r6, 8005da4 <__gnu_Unwind_Resume+0x18>
 8005d9a:	2201      	movs	r2, #1
 8005d9c:	f7ff ff4c 	bl	8005c38 <unwind_phase2_forced>
 8005da0:	f000 ffa6 	bl	8006cf0 <abort>
 8005da4:	6903      	ldr	r3, [r0, #16]
 8005da6:	4621      	mov	r1, r4
 8005da8:	2002      	movs	r0, #2
 8005daa:	462a      	mov	r2, r5
 8005dac:	4798      	blx	r3
 8005dae:	2807      	cmp	r0, #7
 8005db0:	d007      	beq.n	8005dc2 <__gnu_Unwind_Resume+0x36>
 8005db2:	2808      	cmp	r0, #8
 8005db4:	d103      	bne.n	8005dbe <__gnu_Unwind_Resume+0x32>
 8005db6:	4620      	mov	r0, r4
 8005db8:	4629      	mov	r1, r5
 8005dba:	f7ff ff1d 	bl	8005bf8 <unwind_phase2>
 8005dbe:	f000 ff97 	bl	8006cf0 <abort>
 8005dc2:	4630      	mov	r0, r6
 8005dc4:	6c29      	ldr	r1, [r5, #64]	; 0x40
 8005dc6:	f7ff ff15 	bl	8005bf4 <_Unwind_DebugHook>
 8005dca:	1d28      	adds	r0, r5, #4
 8005dcc:	f000 fb42 	bl	8006454 <__restore_core_regs>

08005dd0 <__gnu_Unwind_Resume_or_Rethrow>:
 8005dd0:	68c2      	ldr	r2, [r0, #12]
 8005dd2:	b410      	push	{r4}
 8005dd4:	b12a      	cbz	r2, 8005de2 <__gnu_Unwind_Resume_or_Rethrow+0x12>
 8005dd6:	6bcc      	ldr	r4, [r1, #60]	; 0x3c
 8005dd8:	2200      	movs	r2, #0
 8005dda:	640c      	str	r4, [r1, #64]	; 0x40
 8005ddc:	f85d 4b04 	ldr.w	r4, [sp], #4
 8005de0:	e72a      	b.n	8005c38 <unwind_phase2_forced>
 8005de2:	f85d 4b04 	ldr.w	r4, [sp], #4
 8005de6:	e797      	b.n	8005d18 <__gnu_Unwind_RaiseException>

08005de8 <_Unwind_Complete>:
 8005de8:	4770      	bx	lr
 8005dea:	bf00      	nop

08005dec <_Unwind_DeleteException>:
 8005dec:	b508      	push	{r3, lr}
 8005dee:	6883      	ldr	r3, [r0, #8]
 8005df0:	b113      	cbz	r3, 8005df8 <_Unwind_DeleteException+0xc>
 8005df2:	4601      	mov	r1, r0
 8005df4:	2001      	movs	r0, #1
 8005df6:	4798      	blx	r3
 8005df8:	bd08      	pop	{r3, pc}
 8005dfa:	bf00      	nop

08005dfc <_Unwind_VRS_Get>:
 8005dfc:	b410      	push	{r4}
 8005dfe:	2904      	cmp	r1, #4
 8005e00:	d80f      	bhi.n	8005e22 <_Unwind_VRS_Get+0x26>
 8005e02:	e8df f001 	tbb	[pc, r1]
 8005e06:	0307      	.short	0x0307
 8005e08:	030e      	.short	0x030e
 8005e0a:	03          	.byte	0x03
 8005e0b:	00          	.byte	0x00
 8005e0c:	2001      	movs	r0, #1
 8005e0e:	f85d 4b04 	ldr.w	r4, [sp], #4
 8005e12:	4770      	bx	lr
 8005e14:	2a0f      	cmp	r2, #15
 8005e16:	bf98      	it	ls
 8005e18:	2b00      	cmpls	r3, #0
 8005e1a:	bf0c      	ite	eq
 8005e1c:	2300      	moveq	r3, #0
 8005e1e:	2301      	movne	r3, #1
 8005e20:	d003      	beq.n	8005e2a <_Unwind_VRS_Get+0x2e>
 8005e22:	2002      	movs	r0, #2
 8005e24:	f85d 4b04 	ldr.w	r4, [sp], #4
 8005e28:	4770      	bx	lr
 8005e2a:	eb00 0282 	add.w	r2, r0, r2, lsl #2
 8005e2e:	4618      	mov	r0, r3
 8005e30:	6853      	ldr	r3, [r2, #4]
 8005e32:	9a01      	ldr	r2, [sp, #4]
 8005e34:	f85d 4b04 	ldr.w	r4, [sp], #4
 8005e38:	6013      	str	r3, [r2, #0]
 8005e3a:	4770      	bx	lr

08005e3c <_Unwind_GetGR>:
 8005e3c:	b500      	push	{lr}
 8005e3e:	b085      	sub	sp, #20
 8005e40:	460a      	mov	r2, r1
 8005e42:	ab03      	add	r3, sp, #12
 8005e44:	2100      	movs	r1, #0
 8005e46:	9300      	str	r3, [sp, #0]
 8005e48:	460b      	mov	r3, r1
 8005e4a:	f7ff ffd7 	bl	8005dfc <_Unwind_VRS_Get>
 8005e4e:	9803      	ldr	r0, [sp, #12]
 8005e50:	b005      	add	sp, #20
 8005e52:	f85d fb04 	ldr.w	pc, [sp], #4
 8005e56:	bf00      	nop

08005e58 <_Unwind_VRS_Set>:
 8005e58:	b410      	push	{r4}
 8005e5a:	2904      	cmp	r1, #4
 8005e5c:	d80f      	bhi.n	8005e7e <_Unwind_VRS_Set+0x26>
 8005e5e:	e8df f001 	tbb	[pc, r1]
 8005e62:	0307      	.short	0x0307
 8005e64:	030e      	.short	0x030e
 8005e66:	03          	.byte	0x03
 8005e67:	00          	.byte	0x00
 8005e68:	2001      	movs	r0, #1
 8005e6a:	f85d 4b04 	ldr.w	r4, [sp], #4
 8005e6e:	4770      	bx	lr
 8005e70:	2a0f      	cmp	r2, #15
 8005e72:	bf98      	it	ls
 8005e74:	2b00      	cmpls	r3, #0
 8005e76:	bf0c      	ite	eq
 8005e78:	2300      	moveq	r3, #0
 8005e7a:	2301      	movne	r3, #1
 8005e7c:	d003      	beq.n	8005e86 <_Unwind_VRS_Set+0x2e>
 8005e7e:	2002      	movs	r0, #2
 8005e80:	f85d 4b04 	ldr.w	r4, [sp], #4
 8005e84:	4770      	bx	lr
 8005e86:	eb00 0282 	add.w	r2, r0, r2, lsl #2
 8005e8a:	9801      	ldr	r0, [sp, #4]
 8005e8c:	f85d 4b04 	ldr.w	r4, [sp], #4
 8005e90:	6801      	ldr	r1, [r0, #0]
 8005e92:	4618      	mov	r0, r3
 8005e94:	6051      	str	r1, [r2, #4]
 8005e96:	4770      	bx	lr

08005e98 <_Unwind_SetGR>:
 8005e98:	b510      	push	{r4, lr}
 8005e9a:	b084      	sub	sp, #16
 8005e9c:	ab04      	add	r3, sp, #16
 8005e9e:	460c      	mov	r4, r1
 8005ea0:	f843 2d04 	str.w	r2, [r3, #-4]!
 8005ea4:	2100      	movs	r1, #0
 8005ea6:	9300      	str	r3, [sp, #0]
 8005ea8:	4622      	mov	r2, r4
 8005eaa:	460b      	mov	r3, r1
 8005eac:	f7ff ffd4 	bl	8005e58 <_Unwind_VRS_Set>
 8005eb0:	b004      	add	sp, #16
 8005eb2:	bd10      	pop	{r4, pc}

08005eb4 <__gnu_Unwind_Backtrace>:
 8005eb4:	6bd3      	ldr	r3, [r2, #60]	; 0x3c
 8005eb6:	b5f0      	push	{r4, r5, r6, r7, lr}
 8005eb8:	6413      	str	r3, [r2, #64]	; 0x40
 8005eba:	1d15      	adds	r5, r2, #4
 8005ebc:	4607      	mov	r7, r0
 8005ebe:	460e      	mov	r6, r1
 8005ec0:	cd0f      	ldmia	r5!, {r0, r1, r2, r3}
 8005ec2:	f5ad 7d0f 	sub.w	sp, sp, #572	; 0x23c
 8005ec6:	ac17      	add	r4, sp, #92	; 0x5c
 8005ec8:	c40f      	stmia	r4!, {r0, r1, r2, r3}
 8005eca:	cd0f      	ldmia	r5!, {r0, r1, r2, r3}
 8005ecc:	c40f      	stmia	r4!, {r0, r1, r2, r3}
 8005ece:	cd0f      	ldmia	r5!, {r0, r1, r2, r3}
 8005ed0:	c40f      	stmia	r4!, {r0, r1, r2, r3}
 8005ed2:	e895 000f 	ldmia.w	r5, {r0, r1, r2, r3}
 8005ed6:	f04f 35ff 	mov.w	r5, #4294967295	; 0xffffffff
 8005eda:	e884 000f 	stmia.w	r4, {r0, r1, r2, r3}
 8005ede:	9516      	str	r5, [sp, #88]	; 0x58
 8005ee0:	e010      	b.n	8005f04 <__gnu_Unwind_Backtrace+0x50>
 8005ee2:	a816      	add	r0, sp, #88	; 0x58
 8005ee4:	f7ff ffd8 	bl	8005e98 <_Unwind_SetGR>
 8005ee8:	4631      	mov	r1, r6
 8005eea:	a816      	add	r0, sp, #88	; 0x58
 8005eec:	47b8      	blx	r7
 8005eee:	4669      	mov	r1, sp
 8005ef0:	aa16      	add	r2, sp, #88	; 0x58
 8005ef2:	b978      	cbnz	r0, 8005f14 <__gnu_Unwind_Backtrace+0x60>
 8005ef4:	9b04      	ldr	r3, [sp, #16]
 8005ef6:	2008      	movs	r0, #8
 8005ef8:	4798      	blx	r3
 8005efa:	2809      	cmp	r0, #9
 8005efc:	bf18      	it	ne
 8005efe:	2805      	cmpne	r0, #5
 8005f00:	4604      	mov	r4, r0
 8005f02:	d008      	beq.n	8005f16 <__gnu_Unwind_Backtrace+0x62>
 8005f04:	9926      	ldr	r1, [sp, #152]	; 0x98
 8005f06:	4668      	mov	r0, sp
 8005f08:	f7ff fde6 	bl	8005ad8 <get_eit_entry>
 8005f0c:	466a      	mov	r2, sp
 8005f0e:	210c      	movs	r1, #12
 8005f10:	2800      	cmp	r0, #0
 8005f12:	d0e6      	beq.n	8005ee2 <__gnu_Unwind_Backtrace+0x2e>
 8005f14:	2409      	movs	r4, #9
 8005f16:	a816      	add	r0, sp, #88	; 0x58
 8005f18:	f7ff fe38 	bl	8005b8c <restore_non_core_regs>
 8005f1c:	4620      	mov	r0, r4
 8005f1e:	f50d 7d0f 	add.w	sp, sp, #572	; 0x23c
 8005f22:	bdf0      	pop	{r4, r5, r6, r7, pc}

08005f24 <__gnu_unwind_pr_common>:
 8005f24:	e92d 4ff0 	stmdb	sp!, {r4, r5, r6, r7, r8, r9, sl, fp, lr}
 8005f28:	6cce      	ldr	r6, [r1, #76]	; 0x4c
 8005f2a:	b08b      	sub	sp, #44	; 0x2c
 8005f2c:	460c      	mov	r4, r1
 8005f2e:	6831      	ldr	r1, [r6, #0]
 8005f30:	3604      	adds	r6, #4
 8005f32:	461d      	mov	r5, r3
 8005f34:	4690      	mov	r8, r2
 8005f36:	9107      	str	r1, [sp, #28]
 8005f38:	9608      	str	r6, [sp, #32]
 8005f3a:	f000 0703 	and.w	r7, r0, #3
 8005f3e:	2b00      	cmp	r3, #0
 8005f40:	f040 8089 	bne.w	8006056 <__gnu_unwind_pr_common+0x132>
 8005f44:	0209      	lsls	r1, r1, #8
 8005f46:	2303      	movs	r3, #3
 8005f48:	9107      	str	r1, [sp, #28]
 8005f4a:	f88d 5025 	strb.w	r5, [sp, #37]	; 0x25
 8005f4e:	f88d 3024 	strb.w	r3, [sp, #36]	; 0x24
 8005f52:	6d23      	ldr	r3, [r4, #80]	; 0x50
 8005f54:	2f02      	cmp	r7, #2
 8005f56:	bf08      	it	eq
 8005f58:	6ba6      	ldreq	r6, [r4, #56]	; 0x38
 8005f5a:	f013 0301 	ands.w	r3, r3, #1
 8005f5e:	d16e      	bne.n	800603e <__gnu_unwind_pr_common+0x11a>
 8005f60:	f000 0008 	and.w	r0, r0, #8
 8005f64:	b2c0      	uxtb	r0, r0
 8005f66:	f104 0158 	add.w	r1, r4, #88	; 0x58
 8005f6a:	9301      	str	r3, [sp, #4]
 8005f6c:	9003      	str	r0, [sp, #12]
 8005f6e:	9102      	str	r1, [sp, #8]
 8005f70:	46ba      	mov	sl, r7
 8005f72:	6837      	ldr	r7, [r6, #0]
 8005f74:	2f00      	cmp	r7, #0
 8005f76:	d064      	beq.n	8006042 <__gnu_unwind_pr_common+0x11e>
 8005f78:	2d02      	cmp	r5, #2
 8005f7a:	bf0c      	ite	eq
 8005f7c:	f8d6 9004 	ldreq.w	r9, [r6, #4]
 8005f80:	f8b6 9002 	ldrhne.w	r9, [r6, #2]
 8005f84:	6ca3      	ldr	r3, [r4, #72]	; 0x48
 8005f86:	bf18      	it	ne
 8005f88:	8837      	ldrhne	r7, [r6, #0]
 8005f8a:	f029 0b01 	bic.w	fp, r9, #1
 8005f8e:	4640      	mov	r0, r8
 8005f90:	f04f 010f 	mov.w	r1, #15
 8005f94:	bf0c      	ite	eq
 8005f96:	3608      	addeq	r6, #8
 8005f98:	3604      	addne	r6, #4
 8005f9a:	449b      	add	fp, r3
 8005f9c:	f7ff ff4e 	bl	8005e3c <_Unwind_GetGR>
 8005fa0:	4583      	cmp	fp, r0
 8005fa2:	bf88      	it	hi
 8005fa4:	2000      	movhi	r0, #0
 8005fa6:	d806      	bhi.n	8005fb6 <__gnu_unwind_pr_common+0x92>
 8005fa8:	f027 0301 	bic.w	r3, r7, #1
 8005fac:	449b      	add	fp, r3
 8005fae:	4558      	cmp	r0, fp
 8005fb0:	bf2c      	ite	cs
 8005fb2:	2000      	movcs	r0, #0
 8005fb4:	2001      	movcc	r0, #1
 8005fb6:	f009 0901 	and.w	r9, r9, #1
 8005fba:	f007 0701 	and.w	r7, r7, #1
 8005fbe:	ea47 0749 	orr.w	r7, r7, r9, lsl #1
 8005fc2:	2f01      	cmp	r7, #1
 8005fc4:	d071      	beq.n	80060aa <__gnu_unwind_pr_common+0x186>
 8005fc6:	d366      	bcc.n	8006096 <__gnu_unwind_pr_common+0x172>
 8005fc8:	2f02      	cmp	r7, #2
 8005fca:	d140      	bne.n	800604e <__gnu_unwind_pr_common+0x12a>
 8005fcc:	6833      	ldr	r3, [r6, #0]
 8005fce:	f023 4b00 	bic.w	fp, r3, #2147483648	; 0x80000000
 8005fd2:	f1ba 0f00 	cmp.w	sl, #0
 8005fd6:	d14e      	bne.n	8006076 <__gnu_unwind_pr_common+0x152>
 8005fd8:	2800      	cmp	r0, #0
 8005fda:	d054      	beq.n	8006086 <__gnu_unwind_pr_common+0x162>
 8005fdc:	9903      	ldr	r1, [sp, #12]
 8005fde:	2900      	cmp	r1, #0
 8005fe0:	bf18      	it	ne
 8005fe2:	f1bb 0f00 	cmpne.w	fp, #0
 8005fe6:	d14e      	bne.n	8006086 <__gnu_unwind_pr_common+0x162>
 8005fe8:	f1bb 0f00 	cmp.w	fp, #0
 8005fec:	d01d      	beq.n	800602a <__gnu_unwind_pr_common+0x106>
 8005fee:	9505      	str	r5, [sp, #20]
 8005ff0:	1d37      	adds	r7, r6, #4
 8005ff2:	46d1      	mov	r9, sl
 8005ff4:	f8cd a010 	str.w	sl, [sp, #16]
 8005ff8:	9d02      	ldr	r5, [sp, #8]
 8005ffa:	e002      	b.n	8006002 <__gnu_unwind_pr_common+0xde>
 8005ffc:	45da      	cmp	sl, fp
 8005ffe:	d014      	beq.n	800602a <__gnu_unwind_pr_common+0x106>
 8006000:	46d1      	mov	r9, sl
 8006002:	4638      	mov	r0, r7
 8006004:	9506      	str	r5, [sp, #24]
 8006006:	f7ff fded 	bl	8005be4 <_Unwind_decode_typeinfo_ptr.isra.0>
 800600a:	2200      	movs	r2, #0
 800600c:	4601      	mov	r1, r0
 800600e:	ab06      	add	r3, sp, #24
 8006010:	4620      	mov	r0, r4
 8006012:	f3af 8000 	nop.w
 8006016:	f109 0a01 	add.w	sl, r9, #1
 800601a:	3704      	adds	r7, #4
 800601c:	2800      	cmp	r0, #0
 800601e:	d0ed      	beq.n	8005ffc <__gnu_unwind_pr_common+0xd8>
 8006020:	45cb      	cmp	fp, r9
 8006022:	f8dd a010 	ldr.w	sl, [sp, #16]
 8006026:	9d05      	ldr	r5, [sp, #20]
 8006028:	d12c      	bne.n	8006084 <__gnu_unwind_pr_common+0x160>
 800602a:	4640      	mov	r0, r8
 800602c:	210d      	movs	r1, #13
 800602e:	f7ff ff05 	bl	8005e3c <_Unwind_GetGR>
 8006032:	9b06      	ldr	r3, [sp, #24]
 8006034:	6220      	str	r0, [r4, #32]
 8006036:	62a6      	str	r6, [r4, #40]	; 0x28
 8006038:	6263      	str	r3, [r4, #36]	; 0x24
 800603a:	2006      	movs	r0, #6
 800603c:	e008      	b.n	8006050 <__gnu_unwind_pr_common+0x12c>
 800603e:	2300      	movs	r3, #0
 8006040:	9301      	str	r3, [sp, #4]
 8006042:	2d02      	cmp	r5, #2
 8006044:	dd4b      	ble.n	80060de <__gnu_unwind_pr_common+0x1ba>
 8006046:	f7ff fdd3 	bl	8005bf0 <__gnu_unwind_24bit.isra.1>
 800604a:	2800      	cmp	r0, #0
 800604c:	d04d      	beq.n	80060ea <__gnu_unwind_pr_common+0x1c6>
 800604e:	2009      	movs	r0, #9
 8006050:	b00b      	add	sp, #44	; 0x2c
 8006052:	e8bd 8ff0 	ldmia.w	sp!, {r4, r5, r6, r7, r8, r9, sl, fp, pc}
 8006056:	2b02      	cmp	r3, #2
 8006058:	f73f af7b 	bgt.w	8005f52 <__gnu_unwind_pr_common+0x2e>
 800605c:	0c0b      	lsrs	r3, r1, #16
 800605e:	fa5f fe83 	uxtb.w	lr, r3
 8006062:	0409      	lsls	r1, r1, #16
 8006064:	2202      	movs	r2, #2
 8006066:	f88d 3025 	strb.w	r3, [sp, #37]	; 0x25
 800606a:	eb06 068e 	add.w	r6, r6, lr, lsl #2
 800606e:	9107      	str	r1, [sp, #28]
 8006070:	f88d 2024 	strb.w	r2, [sp, #36]	; 0x24
 8006074:	e76d      	b.n	8005f52 <__gnu_unwind_pr_common+0x2e>
 8006076:	4640      	mov	r0, r8
 8006078:	210d      	movs	r1, #13
 800607a:	6a27      	ldr	r7, [r4, #32]
 800607c:	f7ff fede 	bl	8005e3c <_Unwind_GetGR>
 8006080:	4287      	cmp	r7, r0
 8006082:	d062      	beq.n	800614a <__gnu_unwind_pr_common+0x226>
 8006084:	6833      	ldr	r3, [r6, #0]
 8006086:	2b00      	cmp	r3, #0
 8006088:	bfb8      	it	lt
 800608a:	3604      	addlt	r6, #4
 800608c:	f10b 0b01 	add.w	fp, fp, #1
 8006090:	eb06 068b 	add.w	r6, r6, fp, lsl #2
 8006094:	e76d      	b.n	8005f72 <__gnu_unwind_pr_common+0x4e>
 8006096:	f1ba 0f00 	cmp.w	sl, #0
 800609a:	bf0c      	ite	eq
 800609c:	2000      	moveq	r0, #0
 800609e:	f000 0001 	andne.w	r0, r0, #1
 80060a2:	2800      	cmp	r0, #0
 80060a4:	d16c      	bne.n	8006180 <__gnu_unwind_pr_common+0x25c>
 80060a6:	3604      	adds	r6, #4
 80060a8:	e763      	b.n	8005f72 <__gnu_unwind_pr_common+0x4e>
 80060aa:	f1ba 0f00 	cmp.w	sl, #0
 80060ae:	d133      	bne.n	8006118 <__gnu_unwind_pr_common+0x1f4>
 80060b0:	b198      	cbz	r0, 80060da <__gnu_unwind_pr_common+0x1b6>
 80060b2:	e896 000c 	ldmia.w	r6, {r2, r3}
 80060b6:	0fd7      	lsrs	r7, r2, #31
 80060b8:	1c9a      	adds	r2, r3, #2
 80060ba:	d0c8      	beq.n	800604e <__gnu_unwind_pr_common+0x12a>
 80060bc:	9a02      	ldr	r2, [sp, #8]
 80060be:	3301      	adds	r3, #1
 80060c0:	9206      	str	r2, [sp, #24]
 80060c2:	d053      	beq.n	800616c <__gnu_unwind_pr_common+0x248>
 80060c4:	1d30      	adds	r0, r6, #4
 80060c6:	f7ff fd8d 	bl	8005be4 <_Unwind_decode_typeinfo_ptr.isra.0>
 80060ca:	463a      	mov	r2, r7
 80060cc:	4601      	mov	r1, r0
 80060ce:	ab06      	add	r3, sp, #24
 80060d0:	4620      	mov	r0, r4
 80060d2:	f3af 8000 	nop.w
 80060d6:	2800      	cmp	r0, #0
 80060d8:	d16a      	bne.n	80061b0 <__gnu_unwind_pr_common+0x28c>
 80060da:	3608      	adds	r6, #8
 80060dc:	e749      	b.n	8005f72 <__gnu_unwind_pr_common+0x4e>
 80060de:	4640      	mov	r0, r8
 80060e0:	a907      	add	r1, sp, #28
 80060e2:	f000 fab7 	bl	8006654 <__gnu_unwind_execute>
 80060e6:	2800      	cmp	r0, #0
 80060e8:	d1b1      	bne.n	800604e <__gnu_unwind_pr_common+0x12a>
 80060ea:	9901      	ldr	r1, [sp, #4]
 80060ec:	2008      	movs	r0, #8
 80060ee:	2900      	cmp	r1, #0
 80060f0:	d0ae      	beq.n	8006050 <__gnu_unwind_pr_common+0x12c>
 80060f2:	210f      	movs	r1, #15
 80060f4:	4640      	mov	r0, r8
 80060f6:	f7ff fea1 	bl	8005e3c <_Unwind_GetGR>
 80060fa:	210e      	movs	r1, #14
 80060fc:	4602      	mov	r2, r0
 80060fe:	4640      	mov	r0, r8
 8006100:	f7ff feca 	bl	8005e98 <_Unwind_SetGR>
 8006104:	f240 0200 	movw	r2, #0
 8006108:	4640      	mov	r0, r8
 800610a:	f2c0 0200 	movt	r2, #0
 800610e:	210f      	movs	r1, #15
 8006110:	f7ff fec2 	bl	8005e98 <_Unwind_SetGR>
 8006114:	2007      	movs	r0, #7
 8006116:	e79b      	b.n	8006050 <__gnu_unwind_pr_common+0x12c>
 8006118:	4640      	mov	r0, r8
 800611a:	210d      	movs	r1, #13
 800611c:	6a27      	ldr	r7, [r4, #32]
 800611e:	f7ff fe8d 	bl	8005e3c <_Unwind_GetGR>
 8006122:	4287      	cmp	r7, r0
 8006124:	d1d9      	bne.n	80060da <__gnu_unwind_pr_common+0x1b6>
 8006126:	6aa3      	ldr	r3, [r4, #40]	; 0x28
 8006128:	429e      	cmp	r6, r3
 800612a:	d1d6      	bne.n	80060da <__gnu_unwind_pr_common+0x1b6>
 800612c:	4630      	mov	r0, r6
 800612e:	f7ff fc77 	bl	8005a20 <selfrel_offset31>
 8006132:	210f      	movs	r1, #15
 8006134:	4602      	mov	r2, r0
 8006136:	4640      	mov	r0, r8
 8006138:	f7ff feae 	bl	8005e98 <_Unwind_SetGR>
 800613c:	4640      	mov	r0, r8
 800613e:	4622      	mov	r2, r4
 8006140:	2100      	movs	r1, #0
 8006142:	f7ff fea9 	bl	8005e98 <_Unwind_SetGR>
 8006146:	2007      	movs	r0, #7
 8006148:	e782      	b.n	8006050 <__gnu_unwind_pr_common+0x12c>
 800614a:	6aa3      	ldr	r3, [r4, #40]	; 0x28
 800614c:	429e      	cmp	r6, r3
 800614e:	d199      	bne.n	8006084 <__gnu_unwind_pr_common+0x160>
 8006150:	2204      	movs	r2, #4
 8006152:	18b3      	adds	r3, r6, r2
 8006154:	2100      	movs	r1, #0
 8006156:	f8c4 b028 	str.w	fp, [r4, #40]	; 0x28
 800615a:	62e1      	str	r1, [r4, #44]	; 0x2c
 800615c:	6322      	str	r2, [r4, #48]	; 0x30
 800615e:	6363      	str	r3, [r4, #52]	; 0x34
 8006160:	6833      	ldr	r3, [r6, #0]
 8006162:	428b      	cmp	r3, r1
 8006164:	db1f      	blt.n	80061a6 <__gnu_unwind_pr_common+0x282>
 8006166:	2201      	movs	r2, #1
 8006168:	9201      	str	r2, [sp, #4]
 800616a:	e78f      	b.n	800608c <__gnu_unwind_pr_common+0x168>
 800616c:	4640      	mov	r0, r8
 800616e:	210d      	movs	r1, #13
 8006170:	f7ff fe64 	bl	8005e3c <_Unwind_GetGR>
 8006174:	6220      	str	r0, [r4, #32]
 8006176:	9b06      	ldr	r3, [sp, #24]
 8006178:	6263      	str	r3, [r4, #36]	; 0x24
 800617a:	62a6      	str	r6, [r4, #40]	; 0x28
 800617c:	2006      	movs	r0, #6
 800617e:	e767      	b.n	8006050 <__gnu_unwind_pr_common+0x12c>
 8006180:	4630      	mov	r0, r6
 8006182:	f7ff fc4d 	bl	8005a20 <selfrel_offset31>
 8006186:	3604      	adds	r6, #4
 8006188:	4605      	mov	r5, r0
 800618a:	63a6      	str	r6, [r4, #56]	; 0x38
 800618c:	4620      	mov	r0, r4
 800618e:	f3af 8000 	nop.w
 8006192:	2800      	cmp	r0, #0
 8006194:	f43f af5b 	beq.w	800604e <__gnu_unwind_pr_common+0x12a>
 8006198:	4640      	mov	r0, r8
 800619a:	462a      	mov	r2, r5
 800619c:	210f      	movs	r1, #15
 800619e:	f7ff fe7b 	bl	8005e98 <_Unwind_SetGR>
 80061a2:	2007      	movs	r0, #7
 80061a4:	e754      	b.n	8006050 <__gnu_unwind_pr_common+0x12c>
 80061a6:	f10b 0001 	add.w	r0, fp, #1
 80061aa:	eb06 0080 	add.w	r0, r6, r0, lsl #2
 80061ae:	e7be      	b.n	800612e <__gnu_unwind_pr_common+0x20a>
 80061b0:	4603      	mov	r3, r0
 80061b2:	210d      	movs	r1, #13
 80061b4:	4640      	mov	r0, r8
 80061b6:	9300      	str	r3, [sp, #0]
 80061b8:	f7ff fe40 	bl	8005e3c <_Unwind_GetGR>
 80061bc:	9b00      	ldr	r3, [sp, #0]
 80061be:	6220      	str	r0, [r4, #32]
 80061c0:	2b02      	cmp	r3, #2
 80061c2:	d1d8      	bne.n	8006176 <__gnu_unwind_pr_common+0x252>
 80061c4:	4623      	mov	r3, r4
 80061c6:	9a06      	ldr	r2, [sp, #24]
 80061c8:	f843 2f2c 	str.w	r2, [r3, #44]!
 80061cc:	6263      	str	r3, [r4, #36]	; 0x24
 80061ce:	e7d4      	b.n	800617a <__gnu_unwind_pr_common+0x256>

080061d0 <__aeabi_unwind_cpp_pr0>:
 80061d0:	2300      	movs	r3, #0
 80061d2:	e6a7      	b.n	8005f24 <__gnu_unwind_pr_common>

080061d4 <__aeabi_unwind_cpp_pr1>:
 80061d4:	2301      	movs	r3, #1
 80061d6:	e6a5      	b.n	8005f24 <__gnu_unwind_pr_common>

080061d8 <__aeabi_unwind_cpp_pr2>:
 80061d8:	2302      	movs	r3, #2
 80061da:	e6a3      	b.n	8005f24 <__gnu_unwind_pr_common>

080061dc <_Unwind_VRS_Pop>:
 80061dc:	e92d 41f0 	stmdb	sp!, {r4, r5, r6, r7, r8, lr}
 80061e0:	4604      	mov	r4, r0
 80061e2:	b0c4      	sub	sp, #272	; 0x110
 80061e4:	2904      	cmp	r1, #4
 80061e6:	d807      	bhi.n	80061f8 <_Unwind_VRS_Pop+0x1c>
 80061e8:	e8df f001 	tbb	[pc, r1]
 80061ec:	03062eb3 	.word	0x03062eb3
 80061f0:	0a          	.byte	0x0a
 80061f1:	00          	.byte	0x00
 80061f2:	2b03      	cmp	r3, #3
 80061f4:	f000 80c8 	beq.w	8006388 <_Unwind_VRS_Pop+0x1ac>
 80061f8:	2002      	movs	r0, #2
 80061fa:	b044      	add	sp, #272	; 0x110
 80061fc:	e8bd 81f0 	ldmia.w	sp!, {r4, r5, r6, r7, r8, pc}
 8006200:	2a10      	cmp	r2, #16
 8006202:	bf98      	it	ls
 8006204:	2b00      	cmpls	r3, #0
 8006206:	d1f7      	bne.n	80061f8 <_Unwind_VRS_Pop+0x1c>
 8006208:	6823      	ldr	r3, [r4, #0]
 800620a:	06d9      	lsls	r1, r3, #27
 800620c:	f100 80e3 	bmi.w	80063d6 <_Unwind_VRS_Pop+0x1fa>
 8006210:	ae22      	add	r6, sp, #136	; 0x88
 8006212:	4630      	mov	r0, r6
 8006214:	9201      	str	r2, [sp, #4]
 8006216:	f000 f98f 	bl	8006538 <__gnu_Unwind_Save_WMMXC>
 800621a:	6ba5      	ldr	r5, [r4, #56]	; 0x38
 800621c:	9a01      	ldr	r2, [sp, #4]
 800621e:	2300      	movs	r3, #0
 8006220:	2001      	movs	r0, #1
 8006222:	fa00 f103 	lsl.w	r1, r0, r3
 8006226:	4211      	tst	r1, r2
 8006228:	bf1c      	itt	ne
 800622a:	6829      	ldrne	r1, [r5, #0]
 800622c:	f846 1023 	strne.w	r1, [r6, r3, lsl #2]
 8006230:	f103 0301 	add.w	r3, r3, #1
 8006234:	bf18      	it	ne
 8006236:	3504      	addne	r5, #4
 8006238:	2b04      	cmp	r3, #4
 800623a:	d1f2      	bne.n	8006222 <_Unwind_VRS_Pop+0x46>
 800623c:	4630      	mov	r0, r6
 800623e:	63a5      	str	r5, [r4, #56]	; 0x38
 8006240:	f000 f970 	bl	8006524 <__gnu_Unwind_Restore_WMMXC>
 8006244:	2000      	movs	r0, #0
 8006246:	e7d8      	b.n	80061fa <_Unwind_VRS_Pop+0x1e>
 8006248:	f003 01fb 	and.w	r1, r3, #251	; 0xfb
 800624c:	2901      	cmp	r1, #1
 800624e:	d1d3      	bne.n	80061f8 <_Unwind_VRS_Pop+0x1c>
 8006250:	0c15      	lsrs	r5, r2, #16
 8006252:	b296      	uxth	r6, r2
 8006254:	1972      	adds	r2, r6, r5
 8006256:	2b01      	cmp	r3, #1
 8006258:	bf14      	ite	ne
 800625a:	2120      	movne	r1, #32
 800625c:	2110      	moveq	r1, #16
 800625e:	4291      	cmp	r1, r2
 8006260:	d3ca      	bcc.n	80061f8 <_Unwind_VRS_Pop+0x1c>
 8006262:	f1b3 0c01 	subs.w	ip, r3, #1
 8006266:	f1dc 0700 	rsbs	r7, ip, #0
 800626a:	eb57 070c 	adcs.w	r7, r7, ip
 800626e:	2d0f      	cmp	r5, #15
 8006270:	bf94      	ite	ls
 8006272:	2100      	movls	r1, #0
 8006274:	2101      	movhi	r1, #1
 8006276:	420f      	tst	r7, r1
 8006278:	d1be      	bne.n	80061f8 <_Unwind_VRS_Pop+0x1c>
 800627a:	46b0      	mov	r8, r6
 800627c:	b921      	cbnz	r1, 8006288 <_Unwind_VRS_Pop+0xac>
 800627e:	2a10      	cmp	r2, #16
 8006280:	f240 80cb 	bls.w	800641a <_Unwind_VRS_Pop+0x23e>
 8006284:	f1a2 0810 	sub.w	r8, r2, #16
 8006288:	f1b8 0f00 	cmp.w	r8, #0
 800628c:	bf18      	it	ne
 800628e:	2b05      	cmpne	r3, #5
 8006290:	d1b2      	bne.n	80061f8 <_Unwind_VRS_Pop+0x1c>
 8006292:	2d0f      	cmp	r5, #15
 8006294:	d80f      	bhi.n	80062b6 <_Unwind_VRS_Pop+0xda>
 8006296:	6822      	ldr	r2, [r4, #0]
 8006298:	07d0      	lsls	r0, r2, #31
 800629a:	d50c      	bpl.n	80062b6 <_Unwind_VRS_Pop+0xda>
 800629c:	f022 0101 	bic.w	r1, r2, #1
 80062a0:	2b05      	cmp	r3, #5
 80062a2:	6021      	str	r1, [r4, #0]
 80062a4:	4620      	mov	r0, r4
 80062a6:	f000 80cd 	beq.w	8006444 <_Unwind_VRS_Pop+0x268>
 80062aa:	f022 0203 	bic.w	r2, r2, #3
 80062ae:	f840 2b48 	str.w	r2, [r0], #72
 80062b2:	f000 f8df 	bl	8006474 <__gnu_Unwind_Save_VFP>
 80062b6:	f1b8 0f00 	cmp.w	r8, #0
 80062ba:	d003      	beq.n	80062c4 <_Unwind_VRS_Pop+0xe8>
 80062bc:	6823      	ldr	r3, [r4, #0]
 80062be:	0759      	lsls	r1, r3, #29
 80062c0:	f100 809b 	bmi.w	80063fa <_Unwind_VRS_Pop+0x21e>
 80062c4:	2f00      	cmp	r7, #0
 80062c6:	f040 80b6 	bne.w	8006436 <_Unwind_VRS_Pop+0x25a>
 80062ca:	2d0f      	cmp	r5, #15
 80062cc:	f240 808d 	bls.w	80063ea <_Unwind_VRS_Pop+0x20e>
 80062d0:	f1b8 0f00 	cmp.w	r8, #0
 80062d4:	f040 80a9 	bne.w	800642a <_Unwind_VRS_Pop+0x24e>
 80062d8:	4633      	mov	r3, r6
 80062da:	6ba6      	ldr	r6, [r4, #56]	; 0x38
 80062dc:	2b00      	cmp	r3, #0
 80062de:	4631      	mov	r1, r6
 80062e0:	dd10      	ble.n	8006304 <_Unwind_VRS_Pop+0x128>
 80062e2:	ea4f 0c43 	mov.w	ip, r3, lsl #1
 80062e6:	ab22      	add	r3, sp, #136	; 0x88
 80062e8:	eb03 00c5 	add.w	r0, r3, r5, lsl #3
 80062ec:	1b80      	subs	r0, r0, r6
 80062ee:	f10c 31ff 	add.w	r1, ip, #4294967295	; 0xffffffff
 80062f2:	1f33      	subs	r3, r6, #4
 80062f4:	f853 2f04 	ldr.w	r2, [r3, #4]!
 80062f8:	3901      	subs	r1, #1
 80062fa:	50c2      	str	r2, [r0, r3]
 80062fc:	1c4a      	adds	r2, r1, #1
 80062fe:	d1f9      	bne.n	80062f4 <_Unwind_VRS_Pop+0x118>
 8006300:	eb06 018c 	add.w	r1, r6, ip, lsl #2
 8006304:	f1b8 0f00 	cmp.w	r8, #0
 8006308:	d016      	beq.n	8006338 <_Unwind_VRS_Pop+0x15c>
 800630a:	a844      	add	r0, sp, #272	; 0x110
 800630c:	2d10      	cmp	r5, #16
 800630e:	bf2c      	ite	cs
 8006310:	462e      	movcs	r6, r5
 8006312:	2610      	movcc	r6, #16
 8006314:	eb00 06c6 	add.w	r6, r0, r6, lsl #3
 8006318:	ea4f 0c48 	mov.w	ip, r8, lsl #1
 800631c:	f5a6 76c4 	sub.w	r6, r6, #392	; 0x188
 8006320:	f10c 33ff 	add.w	r3, ip, #4294967295	; 0xffffffff
 8006324:	4608      	mov	r0, r1
 8006326:	f850 2b04 	ldr.w	r2, [r0], #4
 800632a:	3b01      	subs	r3, #1
 800632c:	f846 2b04 	str.w	r2, [r6], #4
 8006330:	1c5a      	adds	r2, r3, #1
 8006332:	d1f8      	bne.n	8006326 <_Unwind_VRS_Pop+0x14a>
 8006334:	eb01 018c 	add.w	r1, r1, ip, lsl #2
 8006338:	2f00      	cmp	r7, #0
 800633a:	d170      	bne.n	800641e <_Unwind_VRS_Pop+0x242>
 800633c:	2d0f      	cmp	r5, #15
 800633e:	63a1      	str	r1, [r4, #56]	; 0x38
 8006340:	d957      	bls.n	80063f2 <_Unwind_VRS_Pop+0x216>
 8006342:	f1b8 0f00 	cmp.w	r8, #0
 8006346:	d002      	beq.n	800634e <_Unwind_VRS_Pop+0x172>
 8006348:	a802      	add	r0, sp, #8
 800634a:	f000 f89f 	bl	800648c <__gnu_Unwind_Restore_VFP_D_16_to_31>
 800634e:	2000      	movs	r0, #0
 8006350:	e753      	b.n	80061fa <_Unwind_VRS_Pop+0x1e>
 8006352:	2b00      	cmp	r3, #0
 8006354:	f47f af50 	bne.w	80061f8 <_Unwind_VRS_Pop+0x1c>
 8006358:	6ba5      	ldr	r5, [r4, #56]	; 0x38
 800635a:	b296      	uxth	r6, r2
 800635c:	2001      	movs	r0, #1
 800635e:	fa00 f103 	lsl.w	r1, r0, r3
 8006362:	4231      	tst	r1, r6
 8006364:	bf1c      	itt	ne
 8006366:	682f      	ldrne	r7, [r5, #0]
 8006368:	eb04 0183 	addne.w	r1, r4, r3, lsl #2
 800636c:	f103 0301 	add.w	r3, r3, #1
 8006370:	bf1c      	itt	ne
 8006372:	3504      	addne	r5, #4
 8006374:	604f      	strne	r7, [r1, #4]
 8006376:	2b10      	cmp	r3, #16
 8006378:	d1f1      	bne.n	800635e <_Unwind_VRS_Pop+0x182>
 800637a:	f412 5000 	ands.w	r0, r2, #8192	; 0x2000
 800637e:	bf08      	it	eq
 8006380:	63a5      	streq	r5, [r4, #56]	; 0x38
 8006382:	f43f af3a 	beq.w	80061fa <_Unwind_VRS_Pop+0x1e>
 8006386:	e7e2      	b.n	800634e <_Unwind_VRS_Pop+0x172>
 8006388:	0c15      	lsrs	r5, r2, #16
 800638a:	b297      	uxth	r7, r2
 800638c:	197b      	adds	r3, r7, r5
 800638e:	2b10      	cmp	r3, #16
 8006390:	f63f af32 	bhi.w	80061f8 <_Unwind_VRS_Pop+0x1c>
 8006394:	6823      	ldr	r3, [r4, #0]
 8006396:	071e      	lsls	r6, r3, #28
 8006398:	d437      	bmi.n	800640a <_Unwind_VRS_Pop+0x22e>
 800639a:	ae22      	add	r6, sp, #136	; 0x88
 800639c:	4630      	mov	r0, r6
 800639e:	f000 f89f 	bl	80064e0 <__gnu_Unwind_Save_WMMXD>
 80063a2:	f8d4 e038 	ldr.w	lr, [r4, #56]	; 0x38
 80063a6:	007f      	lsls	r7, r7, #1
 80063a8:	eb06 00c5 	add.w	r0, r6, r5, lsl #3
 80063ac:	1e7b      	subs	r3, r7, #1
 80063ae:	4672      	mov	r2, lr
 80063b0:	b15f      	cbz	r7, 80063ca <_Unwind_VRS_Pop+0x1ee>
 80063b2:	ebce 0000 	rsb	r0, lr, r0
 80063b6:	f1ae 0204 	sub.w	r2, lr, #4
 80063ba:	f852 1f04 	ldr.w	r1, [r2, #4]!
 80063be:	3b01      	subs	r3, #1
 80063c0:	1c5d      	adds	r5, r3, #1
 80063c2:	5081      	str	r1, [r0, r2]
 80063c4:	d1f9      	bne.n	80063ba <_Unwind_VRS_Pop+0x1de>
 80063c6:	eb0e 0287 	add.w	r2, lr, r7, lsl #2
 80063ca:	4630      	mov	r0, r6
 80063cc:	63a2      	str	r2, [r4, #56]	; 0x38
 80063ce:	f000 f865 	bl	800649c <__gnu_Unwind_Restore_WMMXD>
 80063d2:	2000      	movs	r0, #0
 80063d4:	e711      	b.n	80061fa <_Unwind_VRS_Pop+0x1e>
 80063d6:	f023 0310 	bic.w	r3, r3, #16
 80063da:	6023      	str	r3, [r4, #0]
 80063dc:	f504 70e8 	add.w	r0, r4, #464	; 0x1d0
 80063e0:	9201      	str	r2, [sp, #4]
 80063e2:	f000 f8a9 	bl	8006538 <__gnu_Unwind_Save_WMMXC>
 80063e6:	9a01      	ldr	r2, [sp, #4]
 80063e8:	e712      	b.n	8006210 <_Unwind_VRS_Pop+0x34>
 80063ea:	a822      	add	r0, sp, #136	; 0x88
 80063ec:	f000 f84a 	bl	8006484 <__gnu_Unwind_Save_VFP_D>
 80063f0:	e76e      	b.n	80062d0 <_Unwind_VRS_Pop+0xf4>
 80063f2:	a822      	add	r0, sp, #136	; 0x88
 80063f4:	f000 f842 	bl	800647c <__gnu_Unwind_Restore_VFP_D>
 80063f8:	e7a3      	b.n	8006342 <_Unwind_VRS_Pop+0x166>
 80063fa:	4620      	mov	r0, r4
 80063fc:	f023 0304 	bic.w	r3, r3, #4
 8006400:	f840 3bd0 	str.w	r3, [r0], #208
 8006404:	f000 f846 	bl	8006494 <__gnu_Unwind_Save_VFP_D_16_to_31>
 8006408:	e75c      	b.n	80062c4 <_Unwind_VRS_Pop+0xe8>
 800640a:	f023 0308 	bic.w	r3, r3, #8
 800640e:	6023      	str	r3, [r4, #0]
 8006410:	f504 70a8 	add.w	r0, r4, #336	; 0x150
 8006414:	f000 f864 	bl	80064e0 <__gnu_Unwind_Save_WMMXD>
 8006418:	e7bf      	b.n	800639a <_Unwind_VRS_Pop+0x1be>
 800641a:	4688      	mov	r8, r1
 800641c:	e739      	b.n	8006292 <_Unwind_VRS_Pop+0xb6>
 800641e:	3104      	adds	r1, #4
 8006420:	63a1      	str	r1, [r4, #56]	; 0x38
 8006422:	a822      	add	r0, sp, #136	; 0x88
 8006424:	f000 f822 	bl	800646c <__gnu_Unwind_Restore_VFP>
 8006428:	e791      	b.n	800634e <_Unwind_VRS_Pop+0x172>
 800642a:	a802      	add	r0, sp, #8
 800642c:	f000 f832 	bl	8006494 <__gnu_Unwind_Save_VFP_D_16_to_31>
 8006430:	f1c5 0310 	rsb	r3, r5, #16
 8006434:	e751      	b.n	80062da <_Unwind_VRS_Pop+0xfe>
 8006436:	a822      	add	r0, sp, #136	; 0x88
 8006438:	f000 f81c 	bl	8006474 <__gnu_Unwind_Save_VFP>
 800643c:	f1b8 0f00 	cmp.w	r8, #0
 8006440:	d1f6      	bne.n	8006430 <_Unwind_VRS_Pop+0x254>
 8006442:	e749      	b.n	80062d8 <_Unwind_VRS_Pop+0xfc>
 8006444:	f041 0102 	orr.w	r1, r1, #2
 8006448:	f840 1b48 	str.w	r1, [r0], #72
 800644c:	f000 f81a 	bl	8006484 <__gnu_Unwind_Save_VFP_D>
 8006450:	e731      	b.n	80062b6 <_Unwind_VRS_Pop+0xda>
 8006452:	bf00      	nop

08006454 <__restore_core_regs>:
 8006454:	f100 0134 	add.w	r1, r0, #52	; 0x34
 8006458:	e891 0038 	ldmia.w	r1, {r3, r4, r5}
 800645c:	469c      	mov	ip, r3
 800645e:	46a6      	mov	lr, r4
 8006460:	f84c 5d04 	str.w	r5, [ip, #-4]!
 8006464:	e890 0fff 	ldmia.w	r0, {r0, r1, r2, r3, r4, r5, r6, r7, r8, r9, sl, fp}
 8006468:	46e5      	mov	sp, ip
 800646a:	bd00      	pop	{pc}

0800646c <__gnu_Unwind_Restore_VFP>:
 800646c:	ec90 0b21 	fldmiax	r0, {d0-d15}	;@ Deprecated
 8006470:	4770      	bx	lr
 8006472:	bf00      	nop

08006474 <__gnu_Unwind_Save_VFP>:
 8006474:	ec80 0b21 	fstmiax	r0, {d0-d15}	;@ Deprecated
 8006478:	4770      	bx	lr
 800647a:	bf00      	nop

0800647c <__gnu_Unwind_Restore_VFP_D>:
 800647c:	ec90 0b20 	vldmia	r0, {d0-d15}
 8006480:	4770      	bx	lr
 8006482:	bf00      	nop

08006484 <__gnu_Unwind_Save_VFP_D>:
 8006484:	ec80 0b20 	vstmia	r0, {d0-d15}
 8006488:	4770      	bx	lr
 800648a:	bf00      	nop

0800648c <__gnu_Unwind_Restore_VFP_D_16_to_31>:
 800648c:	ecd0 0b20 	vldmia	r0, {d16-d31}
 8006490:	4770      	bx	lr
 8006492:	bf00      	nop

08006494 <__gnu_Unwind_Save_VFP_D_16_to_31>:
 8006494:	ecc0 0b20 	vstmia	r0, {d16-d31}
 8006498:	4770      	bx	lr
 800649a:	bf00      	nop

0800649c <__gnu_Unwind_Restore_WMMXD>:
 800649c:	ecf0 0102 	ldfe	f0, [r0], #8
 80064a0:	ecf0 1102 	ldfe	f1, [r0], #8
 80064a4:	ecf0 2102 	ldfe	f2, [r0], #8
 80064a8:	ecf0 3102 	ldfe	f3, [r0], #8
 80064ac:	ecf0 4102 	ldfe	f4, [r0], #8
 80064b0:	ecf0 5102 	ldfe	f5, [r0], #8
 80064b4:	ecf0 6102 	ldfe	f6, [r0], #8
 80064b8:	ecf0 7102 	ldfe	f7, [r0], #8
 80064bc:	ecf0 8102 	ldfp	f0, [r0], #8
 80064c0:	ecf0 9102 	ldfp	f1, [r0], #8
 80064c4:	ecf0 a102 	ldfp	f2, [r0], #8
 80064c8:	ecf0 b102 	ldfp	f3, [r0], #8
 80064cc:	ecf0 c102 	ldfp	f4, [r0], #8
 80064d0:	ecf0 d102 	ldfp	f5, [r0], #8
 80064d4:	ecf0 e102 	ldfp	f6, [r0], #8
 80064d8:	ecf0 f102 	ldfp	f7, [r0], #8
 80064dc:	4770      	bx	lr
 80064de:	bf00      	nop

080064e0 <__gnu_Unwind_Save_WMMXD>:
 80064e0:	ece0 0102 	stfe	f0, [r0], #8
 80064e4:	ece0 1102 	stfe	f1, [r0], #8
 80064e8:	ece0 2102 	stfe	f2, [r0], #8
 80064ec:	ece0 3102 	stfe	f3, [r0], #8
 80064f0:	ece0 4102 	stfe	f4, [r0], #8
 80064f4:	ece0 5102 	stfe	f5, [r0], #8
 80064f8:	ece0 6102 	stfe	f6, [r0], #8
 80064fc:	ece0 7102 	stfe	f7, [r0], #8
 8006500:	ece0 8102 	stfp	f0, [r0], #8
 8006504:	ece0 9102 	stfp	f1, [r0], #8
 8006508:	ece0 a102 	stfp	f2, [r0], #8
 800650c:	ece0 b102 	stfp	f3, [r0], #8
 8006510:	ece0 c102 	stfp	f4, [r0], #8
 8006514:	ece0 d102 	stfp	f5, [r0], #8
 8006518:	ece0 e102 	stfp	f6, [r0], #8
 800651c:	ece0 f102 	stfp	f7, [r0], #8
 8006520:	4770      	bx	lr
 8006522:	bf00      	nop

08006524 <__gnu_Unwind_Restore_WMMXC>:
 8006524:	fcb0 8101 	ldc2	1, cr8, [r0], #4
 8006528:	fcb0 9101 	ldc2	1, cr9, [r0], #4
 800652c:	fcb0 a101 	ldc2	1, cr10, [r0], #4
 8006530:	fcb0 b101 	ldc2	1, cr11, [r0], #4
 8006534:	4770      	bx	lr
 8006536:	bf00      	nop

08006538 <__gnu_Unwind_Save_WMMXC>:
 8006538:	fca0 8101 	stc2	1, cr8, [r0], #4
 800653c:	fca0 9101 	stc2	1, cr9, [r0], #4
 8006540:	fca0 a101 	stc2	1, cr10, [r0], #4
 8006544:	fca0 b101 	stc2	1, cr11, [r0], #4
 8006548:	4770      	bx	lr
 800654a:	bf00      	nop

0800654c <_Unwind_RaiseException>:
 800654c:	46ec      	mov	ip, sp
 800654e:	b500      	push	{lr}
 8006550:	e92d 5000 	stmdb	sp!, {ip, lr}
 8006554:	e92d 1fff 	stmdb	sp!, {r0, r1, r2, r3, r4, r5, r6, r7, r8, r9, sl, fp, ip}
 8006558:	f04f 0300 	mov.w	r3, #0
 800655c:	e92d 000c 	stmdb	sp!, {r2, r3}
 8006560:	a901      	add	r1, sp, #4
 8006562:	f7ff fbd9 	bl	8005d18 <__gnu_Unwind_RaiseException>
 8006566:	f8dd e040 	ldr.w	lr, [sp, #64]	; 0x40
 800656a:	b012      	add	sp, #72	; 0x48
 800656c:	4770      	bx	lr
 800656e:	bf00      	nop

08006570 <_Unwind_Resume>:
 8006570:	46ec      	mov	ip, sp
 8006572:	b500      	push	{lr}
 8006574:	e92d 5000 	stmdb	sp!, {ip, lr}
 8006578:	e92d 1fff 	stmdb	sp!, {r0, r1, r2, r3, r4, r5, r6, r7, r8, r9, sl, fp, ip}
 800657c:	f04f 0300 	mov.w	r3, #0
 8006580:	e92d 000c 	stmdb	sp!, {r2, r3}
 8006584:	a901      	add	r1, sp, #4
 8006586:	f7ff fc01 	bl	8005d8c <__gnu_Unwind_Resume>
 800658a:	f8dd e040 	ldr.w	lr, [sp, #64]	; 0x40
 800658e:	b012      	add	sp, #72	; 0x48
 8006590:	4770      	bx	lr
 8006592:	bf00      	nop

08006594 <_Unwind_Resume_or_Rethrow>:
 8006594:	46ec      	mov	ip, sp
 8006596:	b500      	push	{lr}
 8006598:	e92d 5000 	stmdb	sp!, {ip, lr}
 800659c:	e92d 1fff 	stmdb	sp!, {r0, r1, r2, r3, r4, r5, r6, r7, r8, r9, sl, fp, ip}
 80065a0:	f04f 0300 	mov.w	r3, #0
 80065a4:	e92d 000c 	stmdb	sp!, {r2, r3}
 80065a8:	a901      	add	r1, sp, #4
 80065aa:	f7ff fc11 	bl	8005dd0 <__gnu_Unwind_Resume_or_Rethrow>
 80065ae:	f8dd e040 	ldr.w	lr, [sp, #64]	; 0x40
 80065b2:	b012      	add	sp, #72	; 0x48
 80065b4:	4770      	bx	lr
 80065b6:	bf00      	nop

080065b8 <_Unwind_ForcedUnwind>:
 80065b8:	46ec      	mov	ip, sp
 80065ba:	b500      	push	{lr}
 80065bc:	e92d 5000 	stmdb	sp!, {ip, lr}
 80065c0:	e92d 1fff 	stmdb	sp!, {r0, r1, r2, r3, r4, r5, r6, r7, r8, r9, sl, fp, ip}
 80065c4:	f04f 0300 	mov.w	r3, #0
 80065c8:	e92d 000c 	stmdb	sp!, {r2, r3}
 80065cc:	ab01      	add	r3, sp, #4
 80065ce:	f7ff fbd3 	bl	8005d78 <__gnu_Unwind_ForcedUnwind>
 80065d2:	f8dd e040 	ldr.w	lr, [sp, #64]	; 0x40
 80065d6:	b012      	add	sp, #72	; 0x48
 80065d8:	4770      	bx	lr
 80065da:	bf00      	nop

080065dc <_Unwind_Backtrace>:
 80065dc:	46ec      	mov	ip, sp
 80065de:	b500      	push	{lr}
 80065e0:	e92d 5000 	stmdb	sp!, {ip, lr}
 80065e4:	e92d 1fff 	stmdb	sp!, {r0, r1, r2, r3, r4, r5, r6, r7, r8, r9, sl, fp, ip}
 80065e8:	f04f 0300 	mov.w	r3, #0
 80065ec:	e92d 000c 	stmdb	sp!, {r2, r3}
 80065f0:	aa01      	add	r2, sp, #4
 80065f2:	f7ff fc5f 	bl	8005eb4 <__gnu_Unwind_Backtrace>
 80065f6:	f8dd e040 	ldr.w	lr, [sp, #64]	; 0x40
 80065fa:	b012      	add	sp, #72	; 0x48
 80065fc:	4770      	bx	lr
 80065fe:	bf00      	nop

08006600 <next_unwind_byte>:
 8006600:	7a03      	ldrb	r3, [r0, #8]
 8006602:	b91b      	cbnz	r3, 800660c <next_unwind_byte+0xc>
 8006604:	7a43      	ldrb	r3, [r0, #9]
 8006606:	b943      	cbnz	r3, 800661a <next_unwind_byte+0x1a>
 8006608:	20b0      	movs	r0, #176	; 0xb0
 800660a:	4770      	bx	lr
 800660c:	6802      	ldr	r2, [r0, #0]
 800660e:	3b01      	subs	r3, #1
 8006610:	7203      	strb	r3, [r0, #8]
 8006612:	0213      	lsls	r3, r2, #8
 8006614:	6003      	str	r3, [r0, #0]
 8006616:	0e10      	lsrs	r0, r2, #24
 8006618:	4770      	bx	lr
 800661a:	6841      	ldr	r1, [r0, #4]
 800661c:	3b01      	subs	r3, #1
 800661e:	7243      	strb	r3, [r0, #9]
 8006620:	680a      	ldr	r2, [r1, #0]
 8006622:	2303      	movs	r3, #3
 8006624:	7203      	strb	r3, [r0, #8]
 8006626:	3104      	adds	r1, #4
 8006628:	0213      	lsls	r3, r2, #8
 800662a:	6041      	str	r1, [r0, #4]
 800662c:	6003      	str	r3, [r0, #0]
 800662e:	0e10      	lsrs	r0, r2, #24
 8006630:	4770      	bx	lr
 8006632:	bf00      	nop

08006634 <_Unwind_GetGR.constprop.0>:
 8006634:	b500      	push	{lr}
 8006636:	b085      	sub	sp, #20
 8006638:	ab03      	add	r3, sp, #12
 800663a:	2100      	movs	r1, #0
 800663c:	9300      	str	r3, [sp, #0]
 800663e:	220c      	movs	r2, #12
 8006640:	460b      	mov	r3, r1
 8006642:	f7ff fbdb 	bl	8005dfc <_Unwind_VRS_Get>
 8006646:	9803      	ldr	r0, [sp, #12]
 8006648:	b005      	add	sp, #20
 800664a:	f85d fb04 	ldr.w	pc, [sp], #4
 800664e:	bf00      	nop

08006650 <unwind_UCB_from_context>:
 8006650:	e7f0      	b.n	8006634 <_Unwind_GetGR.constprop.0>
 8006652:	bf00      	nop

08006654 <__gnu_unwind_execute>:
 8006654:	e92d 41f0 	stmdb	sp!, {r4, r5, r6, r7, r8, lr}
 8006658:	4606      	mov	r6, r0
 800665a:	b084      	sub	sp, #16
 800665c:	460d      	mov	r5, r1
 800665e:	2700      	movs	r7, #0
 8006660:	4628      	mov	r0, r5
 8006662:	f7ff ffcd 	bl	8006600 <next_unwind_byte>
 8006666:	28b0      	cmp	r0, #176	; 0xb0
 8006668:	4604      	mov	r4, r0
 800666a:	f000 80b1 	beq.w	80067d0 <__gnu_unwind_execute+0x17c>
 800666e:	f020 027f 	bic.w	r2, r0, #127	; 0x7f
 8006672:	f012 01ff 	ands.w	r1, r2, #255	; 0xff
 8006676:	d020      	beq.n	80066ba <__gnu_unwind_execute+0x66>
 8006678:	f000 02f0 	and.w	r2, r0, #240	; 0xf0
 800667c:	2a80      	cmp	r2, #128	; 0x80
 800667e:	d075      	beq.n	800676c <__gnu_unwind_execute+0x118>
 8006680:	2a90      	cmp	r2, #144	; 0x90
 8006682:	d037      	beq.n	80066f4 <__gnu_unwind_execute+0xa0>
 8006684:	2aa0      	cmp	r2, #160	; 0xa0
 8006686:	d043      	beq.n	8006710 <__gnu_unwind_execute+0xbc>
 8006688:	2ab0      	cmp	r2, #176	; 0xb0
 800668a:	d057      	beq.n	800673c <__gnu_unwind_execute+0xe8>
 800668c:	2ac0      	cmp	r2, #192	; 0xc0
 800668e:	f000 8085 	beq.w	800679c <__gnu_unwind_execute+0x148>
 8006692:	f000 03f8 	and.w	r3, r0, #248	; 0xf8
 8006696:	2bd0      	cmp	r3, #208	; 0xd0
 8006698:	d10b      	bne.n	80066b2 <__gnu_unwind_execute+0x5e>
 800669a:	f000 0407 	and.w	r4, r0, #7
 800669e:	1c62      	adds	r2, r4, #1
 80066a0:	f442 2200 	orr.w	r2, r2, #524288	; 0x80000
 80066a4:	4630      	mov	r0, r6
 80066a6:	2101      	movs	r1, #1
 80066a8:	2305      	movs	r3, #5
 80066aa:	f7ff fd97 	bl	80061dc <_Unwind_VRS_Pop>
 80066ae:	2800      	cmp	r0, #0
 80066b0:	d0d6      	beq.n	8006660 <__gnu_unwind_execute+0xc>
 80066b2:	2009      	movs	r0, #9
 80066b4:	b004      	add	sp, #16
 80066b6:	e8bd 81f0 	ldmia.w	sp!, {r4, r5, r6, r7, r8, pc}
 80066ba:	aa03      	add	r2, sp, #12
 80066bc:	ea4f 0880 	mov.w	r8, r0, lsl #2
 80066c0:	9200      	str	r2, [sp, #0]
 80066c2:	460b      	mov	r3, r1
 80066c4:	4630      	mov	r0, r6
 80066c6:	220d      	movs	r2, #13
 80066c8:	f7ff fb98 	bl	8005dfc <_Unwind_VRS_Get>
 80066cc:	fa5f f888 	uxtb.w	r8, r8
 80066d0:	9b03      	ldr	r3, [sp, #12]
 80066d2:	f108 0804 	add.w	r8, r8, #4
 80066d6:	0660      	lsls	r0, r4, #25
 80066d8:	bf4c      	ite	mi
 80066da:	ebc8 0303 	rsbmi	r3, r8, r3
 80066de:	4443      	addpl	r3, r8
 80066e0:	9303      	str	r3, [sp, #12]
 80066e2:	ab03      	add	r3, sp, #12
 80066e4:	2100      	movs	r1, #0
 80066e6:	9300      	str	r3, [sp, #0]
 80066e8:	4630      	mov	r0, r6
 80066ea:	460b      	mov	r3, r1
 80066ec:	220d      	movs	r2, #13
 80066ee:	f7ff fbb3 	bl	8005e58 <_Unwind_VRS_Set>
 80066f2:	e7b5      	b.n	8006660 <__gnu_unwind_execute+0xc>
 80066f4:	f000 030d 	and.w	r3, r0, #13
 80066f8:	2b0d      	cmp	r3, #13
 80066fa:	d0da      	beq.n	80066b2 <__gnu_unwind_execute+0x5e>
 80066fc:	aa03      	add	r2, sp, #12
 80066fe:	2100      	movs	r1, #0
 8006700:	9200      	str	r2, [sp, #0]
 8006702:	460b      	mov	r3, r1
 8006704:	f000 020f 	and.w	r2, r0, #15
 8006708:	4630      	mov	r0, r6
 800670a:	f7ff fb77 	bl	8005dfc <_Unwind_VRS_Get>
 800670e:	e7e8      	b.n	80066e2 <__gnu_unwind_execute+0x8e>
 8006710:	43c2      	mvns	r2, r0
 8006712:	f44f 637f 	mov.w	r3, #4080	; 0xff0
 8006716:	f002 0207 	and.w	r2, r2, #7
 800671a:	fa43 f202 	asr.w	r2, r3, r2
 800671e:	0701      	lsls	r1, r0, #28
 8006720:	ea02 0203 	and.w	r2, r2, r3
 8006724:	f04f 0100 	mov.w	r1, #0
 8006728:	bf48      	it	mi
 800672a:	f442 4280 	orrmi.w	r2, r2, #16384	; 0x4000
 800672e:	460b      	mov	r3, r1
 8006730:	4630      	mov	r0, r6
 8006732:	f7ff fd53 	bl	80061dc <_Unwind_VRS_Pop>
 8006736:	2800      	cmp	r0, #0
 8006738:	d1bb      	bne.n	80066b2 <__gnu_unwind_execute+0x5e>
 800673a:	e791      	b.n	8006660 <__gnu_unwind_execute+0xc>
 800673c:	28b1      	cmp	r0, #177	; 0xb1
 800673e:	d05c      	beq.n	80067fa <__gnu_unwind_execute+0x1a6>
 8006740:	28b2      	cmp	r0, #178	; 0xb2
 8006742:	d065      	beq.n	8006810 <__gnu_unwind_execute+0x1bc>
 8006744:	28b3      	cmp	r0, #179	; 0xb3
 8006746:	f000 8091 	beq.w	800686c <__gnu_unwind_execute+0x218>
 800674a:	f000 03fc 	and.w	r3, r0, #252	; 0xfc
 800674e:	2bb4      	cmp	r3, #180	; 0xb4
 8006750:	d0af      	beq.n	80066b2 <__gnu_unwind_execute+0x5e>
 8006752:	f000 0207 	and.w	r2, r0, #7
 8006756:	3201      	adds	r2, #1
 8006758:	2101      	movs	r1, #1
 800675a:	f442 2200 	orr.w	r2, r2, #524288	; 0x80000
 800675e:	460b      	mov	r3, r1
 8006760:	4630      	mov	r0, r6
 8006762:	f7ff fd3b 	bl	80061dc <_Unwind_VRS_Pop>
 8006766:	2800      	cmp	r0, #0
 8006768:	d1a3      	bne.n	80066b2 <__gnu_unwind_execute+0x5e>
 800676a:	e779      	b.n	8006660 <__gnu_unwind_execute+0xc>
 800676c:	4628      	mov	r0, r5
 800676e:	f7ff ff47 	bl	8006600 <next_unwind_byte>
 8006772:	0224      	lsls	r4, r4, #8
 8006774:	4320      	orrs	r0, r4
 8006776:	f5b0 4f00 	cmp.w	r0, #32768	; 0x8000
 800677a:	d09a      	beq.n	80066b2 <__gnu_unwind_execute+0x5e>
 800677c:	0104      	lsls	r4, r0, #4
 800677e:	f64f 72f0 	movw	r2, #65520	; 0xfff0
 8006782:	2100      	movs	r1, #0
 8006784:	4022      	ands	r2, r4
 8006786:	460b      	mov	r3, r1
 8006788:	4630      	mov	r0, r6
 800678a:	f7ff fd27 	bl	80061dc <_Unwind_VRS_Pop>
 800678e:	2800      	cmp	r0, #0
 8006790:	d18f      	bne.n	80066b2 <__gnu_unwind_execute+0x5e>
 8006792:	f414 4f00 	tst.w	r4, #32768	; 0x8000
 8006796:	bf18      	it	ne
 8006798:	2701      	movne	r7, #1
 800679a:	e761      	b.n	8006660 <__gnu_unwind_execute+0xc>
 800679c:	28c6      	cmp	r0, #198	; 0xc6
 800679e:	d071      	beq.n	8006884 <__gnu_unwind_execute+0x230>
 80067a0:	28c7      	cmp	r0, #199	; 0xc7
 80067a2:	d07b      	beq.n	800689c <__gnu_unwind_execute+0x248>
 80067a4:	f000 03f8 	and.w	r3, r0, #248	; 0xf8
 80067a8:	2bc0      	cmp	r3, #192	; 0xc0
 80067aa:	f000 808a 	beq.w	80068c2 <__gnu_unwind_execute+0x26e>
 80067ae:	28c8      	cmp	r0, #200	; 0xc8
 80067b0:	f000 808e 	beq.w	80068d0 <__gnu_unwind_execute+0x27c>
 80067b4:	28c9      	cmp	r0, #201	; 0xc9
 80067b6:	f47f af7c 	bne.w	80066b2 <__gnu_unwind_execute+0x5e>
 80067ba:	4628      	mov	r0, r5
 80067bc:	f7ff ff20 	bl	8006600 <next_unwind_byte>
 80067c0:	f000 030f 	and.w	r3, r0, #15
 80067c4:	3301      	adds	r3, #1
 80067c6:	f000 02f0 	and.w	r2, r0, #240	; 0xf0
 80067ca:	ea43 3202 	orr.w	r2, r3, r2, lsl #12
 80067ce:	e769      	b.n	80066a4 <__gnu_unwind_execute+0x50>
 80067d0:	2000      	movs	r0, #0
 80067d2:	2f00      	cmp	r7, #0
 80067d4:	f47f af6e 	bne.w	80066b4 <__gnu_unwind_execute+0x60>
 80067d8:	ac03      	add	r4, sp, #12
 80067da:	4639      	mov	r1, r7
 80067dc:	220e      	movs	r2, #14
 80067de:	463b      	mov	r3, r7
 80067e0:	9400      	str	r4, [sp, #0]
 80067e2:	4630      	mov	r0, r6
 80067e4:	f7ff fb0a 	bl	8005dfc <_Unwind_VRS_Get>
 80067e8:	9400      	str	r4, [sp, #0]
 80067ea:	4630      	mov	r0, r6
 80067ec:	4639      	mov	r1, r7
 80067ee:	220f      	movs	r2, #15
 80067f0:	463b      	mov	r3, r7
 80067f2:	f7ff fb31 	bl	8005e58 <_Unwind_VRS_Set>
 80067f6:	4638      	mov	r0, r7
 80067f8:	e75c      	b.n	80066b4 <__gnu_unwind_execute+0x60>
 80067fa:	4628      	mov	r0, r5
 80067fc:	f7ff ff00 	bl	8006600 <next_unwind_byte>
 8006800:	4602      	mov	r2, r0
 8006802:	2800      	cmp	r0, #0
 8006804:	f43f af55 	beq.w	80066b2 <__gnu_unwind_execute+0x5e>
 8006808:	f010 01f0 	ands.w	r1, r0, #240	; 0xf0
 800680c:	d0a7      	beq.n	800675e <__gnu_unwind_execute+0x10a>
 800680e:	e750      	b.n	80066b2 <__gnu_unwind_execute+0x5e>
 8006810:	2100      	movs	r1, #0
 8006812:	aa03      	add	r2, sp, #12
 8006814:	9200      	str	r2, [sp, #0]
 8006816:	460b      	mov	r3, r1
 8006818:	220d      	movs	r2, #13
 800681a:	4630      	mov	r0, r6
 800681c:	f7ff faee 	bl	8005dfc <_Unwind_VRS_Get>
 8006820:	4628      	mov	r0, r5
 8006822:	f7ff feed 	bl	8006600 <next_unwind_byte>
 8006826:	0602      	lsls	r2, r0, #24
 8006828:	f04f 0402 	mov.w	r4, #2
 800682c:	d50c      	bpl.n	8006848 <__gnu_unwind_execute+0x1f4>
 800682e:	9b03      	ldr	r3, [sp, #12]
 8006830:	f000 007f 	and.w	r0, r0, #127	; 0x7f
 8006834:	40a0      	lsls	r0, r4
 8006836:	4403      	add	r3, r0
 8006838:	4628      	mov	r0, r5
 800683a:	9303      	str	r3, [sp, #12]
 800683c:	f7ff fee0 	bl	8006600 <next_unwind_byte>
 8006840:	0603      	lsls	r3, r0, #24
 8006842:	f104 0407 	add.w	r4, r4, #7
 8006846:	d4f2      	bmi.n	800682e <__gnu_unwind_execute+0x1da>
 8006848:	9b03      	ldr	r3, [sp, #12]
 800684a:	f000 007f 	and.w	r0, r0, #127	; 0x7f
 800684e:	aa03      	add	r2, sp, #12
 8006850:	fa00 f404 	lsl.w	r4, r0, r4
 8006854:	f503 7301 	add.w	r3, r3, #516	; 0x204
 8006858:	2100      	movs	r1, #0
 800685a:	441c      	add	r4, r3
 800685c:	9200      	str	r2, [sp, #0]
 800685e:	460b      	mov	r3, r1
 8006860:	4630      	mov	r0, r6
 8006862:	220d      	movs	r2, #13
 8006864:	9403      	str	r4, [sp, #12]
 8006866:	f7ff faf7 	bl	8005e58 <_Unwind_VRS_Set>
 800686a:	e6f9      	b.n	8006660 <__gnu_unwind_execute+0xc>
 800686c:	4628      	mov	r0, r5
 800686e:	f7ff fec7 	bl	8006600 <next_unwind_byte>
 8006872:	f000 030f 	and.w	r3, r0, #15
 8006876:	3301      	adds	r3, #1
 8006878:	f000 02f0 	and.w	r2, r0, #240	; 0xf0
 800687c:	2101      	movs	r1, #1
 800687e:	ea43 3202 	orr.w	r2, r3, r2, lsl #12
 8006882:	e76c      	b.n	800675e <__gnu_unwind_execute+0x10a>
 8006884:	4628      	mov	r0, r5
 8006886:	f7ff febb 	bl	8006600 <next_unwind_byte>
 800688a:	f000 030f 	and.w	r3, r0, #15
 800688e:	3301      	adds	r3, #1
 8006890:	f000 02f0 	and.w	r2, r0, #240	; 0xf0
 8006894:	2103      	movs	r1, #3
 8006896:	ea43 3202 	orr.w	r2, r3, r2, lsl #12
 800689a:	e760      	b.n	800675e <__gnu_unwind_execute+0x10a>
 800689c:	4628      	mov	r0, r5
 800689e:	f7ff feaf 	bl	8006600 <next_unwind_byte>
 80068a2:	4602      	mov	r2, r0
 80068a4:	2800      	cmp	r0, #0
 80068a6:	f43f af04 	beq.w	80066b2 <__gnu_unwind_execute+0x5e>
 80068aa:	f010 03f0 	ands.w	r3, r0, #240	; 0xf0
 80068ae:	f47f af00 	bne.w	80066b2 <__gnu_unwind_execute+0x5e>
 80068b2:	4630      	mov	r0, r6
 80068b4:	2104      	movs	r1, #4
 80068b6:	f7ff fc91 	bl	80061dc <_Unwind_VRS_Pop>
 80068ba:	2800      	cmp	r0, #0
 80068bc:	f47f aef9 	bne.w	80066b2 <__gnu_unwind_execute+0x5e>
 80068c0:	e6ce      	b.n	8006660 <__gnu_unwind_execute+0xc>
 80068c2:	f000 020f 	and.w	r2, r0, #15
 80068c6:	3201      	adds	r2, #1
 80068c8:	2103      	movs	r1, #3
 80068ca:	f442 2220 	orr.w	r2, r2, #655360	; 0xa0000
 80068ce:	e746      	b.n	800675e <__gnu_unwind_execute+0x10a>
 80068d0:	4628      	mov	r0, r5
 80068d2:	f7ff fe95 	bl	8006600 <next_unwind_byte>
 80068d6:	f000 02f0 	and.w	r2, r0, #240	; 0xf0
 80068da:	f000 030f 	and.w	r3, r0, #15
 80068de:	3210      	adds	r2, #16
 80068e0:	3301      	adds	r3, #1
 80068e2:	ea43 3202 	orr.w	r2, r3, r2, lsl #12
 80068e6:	e6dd      	b.n	80066a4 <__gnu_unwind_execute+0x50>

080068e8 <__gnu_unwind_frame>:
 80068e8:	b510      	push	{r4, lr}
 80068ea:	6cc3      	ldr	r3, [r0, #76]	; 0x4c
 80068ec:	b084      	sub	sp, #16
 80068ee:	2203      	movs	r2, #3
 80068f0:	685c      	ldr	r4, [r3, #4]
 80068f2:	f88d 200c 	strb.w	r2, [sp, #12]
 80068f6:	79da      	ldrb	r2, [r3, #7]
 80068f8:	4608      	mov	r0, r1
 80068fa:	3308      	adds	r3, #8
 80068fc:	0224      	lsls	r4, r4, #8
 80068fe:	a901      	add	r1, sp, #4
 8006900:	9401      	str	r4, [sp, #4]
 8006902:	f88d 200d 	strb.w	r2, [sp, #13]
 8006906:	9302      	str	r3, [sp, #8]
 8006908:	f7ff fea4 	bl	8006654 <__gnu_unwind_execute>
 800690c:	b004      	add	sp, #16
 800690e:	bd10      	pop	{r4, pc}

08006910 <_Unwind_GetRegionStart>:
 8006910:	b508      	push	{r3, lr}
 8006912:	f7ff fe9d 	bl	8006650 <unwind_UCB_from_context>
 8006916:	6c80      	ldr	r0, [r0, #72]	; 0x48
 8006918:	bd08      	pop	{r3, pc}
 800691a:	bf00      	nop

0800691c <_Unwind_GetLanguageSpecificData>:
 800691c:	b508      	push	{r3, lr}
 800691e:	f7ff fe97 	bl	8006650 <unwind_UCB_from_context>
 8006922:	6cc3      	ldr	r3, [r0, #76]	; 0x4c
 8006924:	79da      	ldrb	r2, [r3, #7]
 8006926:	eb03 0082 	add.w	r0, r3, r2, lsl #2
 800692a:	3008      	adds	r0, #8
 800692c:	bd08      	pop	{r3, pc}
 800692e:	bf00      	nop

08006930 <_Unwind_GetDataRelBase>:
 8006930:	b508      	push	{r3, lr}
 8006932:	f000 f9dd 	bl	8006cf0 <abort>
 8006936:	bf00      	nop

08006938 <_Unwind_GetTextRelBase>:
 8006938:	b508      	push	{r3, lr}
 800693a:	f000 f9d9 	bl	8006cf0 <abort>
 800693e:	bf00      	nop

08006940 <memcpy>:
 8006940:	4684      	mov	ip, r0
 8006942:	ea41 0300 	orr.w	r3, r1, r0
 8006946:	f013 0303 	ands.w	r3, r3, #3
 800694a:	d16d      	bne.n	8006a28 <memcpy+0xe8>
 800694c:	3a40      	subs	r2, #64	; 0x40
 800694e:	d341      	bcc.n	80069d4 <memcpy+0x94>
 8006950:	f851 3b04 	ldr.w	r3, [r1], #4
 8006954:	f840 3b04 	str.w	r3, [r0], #4
 8006958:	f851 3b04 	ldr.w	r3, [r1], #4
 800695c:	f840 3b04 	str.w	r3, [r0], #4
 8006960:	f851 3b04 	ldr.w	r3, [r1], #4
 8006964:	f840 3b04 	str.w	r3, [r0], #4
 8006968:	f851 3b04 	ldr.w	r3, [r1], #4
 800696c:	f840 3b04 	str.w	r3, [r0], #4
 8006970:	f851 3b04 	ldr.w	r3, [r1], #4
 8006974:	f840 3b04 	str.w	r3, [r0], #4
 8006978:	f851 3b04 	ldr.w	r3, [r1], #4
 800697c:	f840 3b04 	str.w	r3, [r0], #4
 8006980:	f851 3b04 	ldr.w	r3, [r1], #4
 8006984:	f840 3b04 	str.w	r3, [r0], #4
 8006988:	f851 3b04 	ldr.w	r3, [r1], #4
 800698c:	f840 3b04 	str.w	r3, [r0], #4
 8006990:	f851 3b04 	ldr.w	r3, [r1], #4
 8006994:	f840 3b04 	str.w	r3, [r0], #4
 8006998:	f851 3b04 	ldr.w	r3, [r1], #4
 800699c:	f840 3b04 	str.w	r3, [r0], #4
 80069a0:	f851 3b04 	ldr.w	r3, [r1], #4
 80069a4:	f840 3b04 	str.w	r3, [r0], #4
 80069a8:	f851 3b04 	ldr.w	r3, [r1], #4
 80069ac:	f840 3b04 	str.w	r3, [r0], #4
 80069b0:	f851 3b04 	ldr.w	r3, [r1], #4
 80069b4:	f840 3b04 	str.w	r3, [r0], #4
 80069b8:	f851 3b04 	ldr.w	r3, [r1], #4
 80069bc:	f840 3b04 	str.w	r3, [r0], #4
 80069c0:	f851 3b04 	ldr.w	r3, [r1], #4
 80069c4:	f840 3b04 	str.w	r3, [r0], #4
 80069c8:	f851 3b04 	ldr.w	r3, [r1], #4
 80069cc:	f840 3b04 	str.w	r3, [r0], #4
 80069d0:	3a40      	subs	r2, #64	; 0x40
 80069d2:	d2bd      	bcs.n	8006950 <memcpy+0x10>
 80069d4:	3230      	adds	r2, #48	; 0x30
 80069d6:	d311      	bcc.n	80069fc <memcpy+0xbc>
 80069d8:	f851 3b04 	ldr.w	r3, [r1], #4
 80069dc:	f840 3b04 	str.w	r3, [r0], #4
 80069e0:	f851 3b04 	ldr.w	r3, [r1], #4
 80069e4:	f840 3b04 	str.w	r3, [r0], #4
 80069e8:	f851 3b04 	ldr.w	r3, [r1], #4
 80069ec:	f840 3b04 	str.w	r3, [r0], #4
 80069f0:	f851 3b04 	ldr.w	r3, [r1], #4
 80069f4:	f840 3b04 	str.w	r3, [r0], #4
 80069f8:	3a10      	subs	r2, #16
 80069fa:	d2ed      	bcs.n	80069d8 <memcpy+0x98>
 80069fc:	320c      	adds	r2, #12
 80069fe:	d305      	bcc.n	8006a0c <memcpy+0xcc>
 8006a00:	f851 3b04 	ldr.w	r3, [r1], #4
 8006a04:	f840 3b04 	str.w	r3, [r0], #4
 8006a08:	3a04      	subs	r2, #4
 8006a0a:	d2f9      	bcs.n	8006a00 <memcpy+0xc0>
 8006a0c:	3204      	adds	r2, #4
 8006a0e:	d008      	beq.n	8006a22 <memcpy+0xe2>
 8006a10:	07d2      	lsls	r2, r2, #31
 8006a12:	bf1c      	itt	ne
 8006a14:	f811 3b01 	ldrbne.w	r3, [r1], #1
 8006a18:	f800 3b01 	strbne.w	r3, [r0], #1
 8006a1c:	d301      	bcc.n	8006a22 <memcpy+0xe2>
 8006a1e:	880b      	ldrh	r3, [r1, #0]
 8006a20:	8003      	strh	r3, [r0, #0]
 8006a22:	4660      	mov	r0, ip
 8006a24:	4770      	bx	lr
 8006a26:	bf00      	nop
 8006a28:	2a08      	cmp	r2, #8
 8006a2a:	d313      	bcc.n	8006a54 <memcpy+0x114>
 8006a2c:	078b      	lsls	r3, r1, #30
 8006a2e:	d08d      	beq.n	800694c <memcpy+0xc>
 8006a30:	f010 0303 	ands.w	r3, r0, #3
 8006a34:	d08a      	beq.n	800694c <memcpy+0xc>
 8006a36:	f1c3 0304 	rsb	r3, r3, #4
 8006a3a:	1ad2      	subs	r2, r2, r3
 8006a3c:	07db      	lsls	r3, r3, #31
 8006a3e:	bf1c      	itt	ne
 8006a40:	f811 3b01 	ldrbne.w	r3, [r1], #1
 8006a44:	f800 3b01 	strbne.w	r3, [r0], #1
 8006a48:	d380      	bcc.n	800694c <memcpy+0xc>
 8006a4a:	f831 3b02 	ldrh.w	r3, [r1], #2
 8006a4e:	f820 3b02 	strh.w	r3, [r0], #2
 8006a52:	e77b      	b.n	800694c <memcpy+0xc>
 8006a54:	3a04      	subs	r2, #4
 8006a56:	d3d9      	bcc.n	8006a0c <memcpy+0xcc>
 8006a58:	3a01      	subs	r2, #1
 8006a5a:	f811 3b01 	ldrb.w	r3, [r1], #1
 8006a5e:	f800 3b01 	strb.w	r3, [r0], #1
 8006a62:	d2f9      	bcs.n	8006a58 <memcpy+0x118>
 8006a64:	780b      	ldrb	r3, [r1, #0]
 8006a66:	7003      	strb	r3, [r0, #0]
 8006a68:	784b      	ldrb	r3, [r1, #1]
 8006a6a:	7043      	strb	r3, [r0, #1]
 8006a6c:	788b      	ldrb	r3, [r1, #2]
 8006a6e:	7083      	strb	r3, [r0, #2]
 8006a70:	4660      	mov	r0, ip
 8006a72:	4770      	bx	lr

08006a74 <main>:
 8006a74:	b510      	push	{r4, lr}
 8006a76:	b094      	sub	sp, #80	; 0x50
 8006a78:	f7f9 fc26 	bl	80002c8 <HAL_Init>
 8006a7c:	2001      	movs	r0, #1
 8006a7e:	f7fe fe03 	bl	8005688 <BSP_LED_Init>
 8006a82:	2000      	movs	r0, #0
 8006a84:	f7fe fe00 	bl	8005688 <BSP_LED_Init>
 8006a88:	2002      	movs	r0, #2
 8006a8a:	f7fe fdfd 	bl	8005688 <BSP_LED_Init>
 8006a8e:	2003      	movs	r0, #3
 8006a90:	f7fe fdfa 	bl	8005688 <BSP_LED_Init>
 8006a94:	4b34      	ldr	r3, [pc, #208]	; (8006b68 <main+0xf4>)
 8006a96:	6c1a      	ldr	r2, [r3, #64]	; 0x40
 8006a98:	f042 5280 	orr.w	r2, r2, #268435456	; 0x10000000
 8006a9c:	641a      	str	r2, [r3, #64]	; 0x40
 8006a9e:	6c1b      	ldr	r3, [r3, #64]	; 0x40
 8006aa0:	f003 5380 	and.w	r3, r3, #268435456	; 0x10000000
 8006aa4:	9301      	str	r3, [sp, #4]
 8006aa6:	9b01      	ldr	r3, [sp, #4]
 8006aa8:	4b30      	ldr	r3, [pc, #192]	; (8006b6c <main+0xf8>)
 8006aaa:	681a      	ldr	r2, [r3, #0]
 8006aac:	f442 4280 	orr.w	r2, r2, #16384	; 0x4000
 8006ab0:	601a      	str	r2, [r3, #0]
 8006ab2:	681b      	ldr	r3, [r3, #0]
 8006ab4:	f403 4380 	and.w	r3, r3, #16384	; 0x4000
 8006ab8:	9302      	str	r3, [sp, #8]
 8006aba:	9b02      	ldr	r3, [sp, #8]
 8006abc:	2301      	movs	r3, #1
 8006abe:	9308      	str	r3, [sp, #32]
 8006ac0:	9309      	str	r3, [sp, #36]	; 0x24
 8006ac2:	f44f 0380 	mov.w	r3, #4194304	; 0x400000
 8006ac6:	930f      	str	r3, [sp, #60]	; 0x3c
 8006ac8:	2308      	movs	r3, #8
 8006aca:	9310      	str	r3, [sp, #64]	; 0x40
 8006acc:	f44f 73a8 	mov.w	r3, #336	; 0x150
 8006ad0:	2402      	movs	r4, #2
 8006ad2:	9311      	str	r3, [sp, #68]	; 0x44
 8006ad4:	a808      	add	r0, sp, #32
 8006ad6:	2307      	movs	r3, #7
 8006ad8:	940e      	str	r4, [sp, #56]	; 0x38
 8006ada:	9412      	str	r4, [sp, #72]	; 0x48
 8006adc:	9313      	str	r3, [sp, #76]	; 0x4c
 8006ade:	f7fd f871 	bl	8003bc4 <HAL_RCC_OscConfig>
 8006ae2:	b118      	cbz	r0, 8006aec <main+0x78>
 8006ae4:	4620      	mov	r0, r4
 8006ae6:	f7fe fe21 	bl	800572c <BSP_LED_On>
 8006aea:	e7fe      	b.n	8006aea <main+0x76>
 8006aec:	230f      	movs	r3, #15
 8006aee:	9303      	str	r3, [sp, #12]
 8006af0:	f44f 53a0 	mov.w	r3, #5120	; 0x1400
 8006af4:	9005      	str	r0, [sp, #20]
 8006af6:	9306      	str	r3, [sp, #24]
 8006af8:	a803      	add	r0, sp, #12
 8006afa:	f44f 5380 	mov.w	r3, #4096	; 0x1000
 8006afe:	2105      	movs	r1, #5
 8006b00:	9404      	str	r4, [sp, #16]
 8006b02:	9307      	str	r3, [sp, #28]
 8006b04:	f7fd f9f6 	bl	8003ef4 <HAL_RCC_ClockConfig>
 8006b08:	b118      	cbz	r0, 8006b12 <main+0x9e>
 8006b0a:	4620      	mov	r0, r4
 8006b0c:	f7fe fe0e 	bl	800572c <BSP_LED_On>
 8006b10:	e7fe      	b.n	8006b10 <main+0x9c>
 8006b12:	f7f9 fc1f 	bl	8000354 <HAL_GetREVID>
 8006b16:	f241 0301 	movw	r3, #4097	; 0x1001
 8006b1a:	4298      	cmp	r0, r3
 8006b1c:	d104      	bne.n	8006b28 <main+0xb4>
 8006b1e:	4b14      	ldr	r3, [pc, #80]	; (8006b70 <main+0xfc>)
 8006b20:	681a      	ldr	r2, [r3, #0]
 8006b22:	f442 7280 	orr.w	r2, r2, #256	; 0x100
 8006b26:	601a      	str	r2, [r3, #0]
 8006b28:	4b0f      	ldr	r3, [pc, #60]	; (8006b68 <main+0xf4>)
 8006b2a:	4812      	ldr	r0, [pc, #72]	; (8006b74 <main+0x100>)
 8006b2c:	6b1a      	ldr	r2, [r3, #48]	; 0x30
 8006b2e:	f042 0201 	orr.w	r2, r2, #1
 8006b32:	631a      	str	r2, [r3, #48]	; 0x30
 8006b34:	6b1b      	ldr	r3, [r3, #48]	; 0x30
 8006b36:	f003 0301 	and.w	r3, r3, #1
 8006b3a:	9303      	str	r3, [sp, #12]
 8006b3c:	9b03      	ldr	r3, [sp, #12]
 8006b3e:	4b0e      	ldr	r3, [pc, #56]	; (8006b78 <main+0x104>)
 8006b40:	2400      	movs	r4, #0
 8006b42:	9309      	str	r3, [sp, #36]	; 0x24
 8006b44:	a908      	add	r1, sp, #32
 8006b46:	2301      	movs	r3, #1
 8006b48:	9308      	str	r3, [sp, #32]
 8006b4a:	940a      	str	r4, [sp, #40]	; 0x28
 8006b4c:	f7fb f954 	bl	8001df8 <HAL_GPIO_Init>
 8006b50:	2006      	movs	r0, #6
 8006b52:	2102      	movs	r1, #2
 8006b54:	4622      	mov	r2, r4
 8006b56:	f7f9 fc69 	bl	800042c <HAL_NVIC_SetPriority>
 8006b5a:	2006      	movs	r0, #6
 8006b5c:	f7f9 fc98 	bl	8000490 <HAL_NVIC_EnableIRQ>
 8006b60:	2002      	movs	r0, #2
 8006b62:	f7fe fde3 	bl	800572c <BSP_LED_On>
 8006b66:	e7fb      	b.n	8006b60 <main+0xec>
 8006b68:	40023800 	.word	0x40023800
 8006b6c:	40007000 	.word	0x40007000
 8006b70:	40023c00 	.word	0x40023c00
 8006b74:	40020000 	.word	0x40020000
 8006b78:	10210000 	.word	0x10210000
 8006b7c:	00000000 	.word	0x00000000

08006b80 <_GLOBAL__sub_I_HighResolutionTimerFrequency>:
 8006b80:	e59fc038 	ldr	ip, [pc, #56]	; 8006bc0 <_GLOBAL__sub_I_HighResolutionTimerFrequency+0x40>
 8006b84:	e52d4004 	push	{r4}		; (str r4, [sp, #-4]!)
 8006b88:	e28f3028 	add	r3, pc, #40	; 0x28
 8006b8c:	e893000c 	ldm	r3, {r2, r3}
 8006b90:	e59f402c 	ldr	r4, [pc, #44]	; 8006bc4 <_GLOBAL__sub_I_HighResolutionTimerFrequency+0x44>
 8006b94:	e59f002c 	ldr	r0, [pc, #44]	; 8006bc8 <_GLOBAL__sub_I_HighResolutionTimerFrequency+0x48>
 8006b98:	e3a01000 	mov	r1, #0
 8006b9c:	e58c4000 	str	r4, [ip]
 8006ba0:	e58c0008 	str	r0, [ip, #8]
 8006ba4:	e58c100c 	str	r1, [ip, #12]
 8006ba8:	e58c2010 	str	r2, [ip, #16]
 8006bac:	e58c3014 	str	r3, [ip, #20]
 8006bb0:	e49d4004 	pop	{r4}		; (ldr r4, [sp], #4)
 8006bb4:	e12fff1e 	bx	lr
 8006bb8:	e2308c3a 	.word	0xe2308c3a
 8006bbc:	3e45798e 	.word	0x3e45798e
 8006bc0:	200004f8 	.word	0x200004f8
 8006bc4:	000186a0 	.word	0x000186a0
 8006bc8:	05f5e100 	.word	0x05f5e100
 8006bcc:	e1a00000 	nop			; (mov r0, r0)

08006bd0 <_GLOBAL__sub_I__ZN13ProcessorType11defaultCPUsE>:
 8006bd0:	e59f3008 	ldr	r3, [pc, #8]	; 8006be0 <_GLOBAL__sub_I__ZN13ProcessorType11defaultCPUsE+0x10>
 8006bd4:	e3a02000 	mov	r2, #0
 8006bd8:	e5832004 	str	r2, [r3, #4]
 8006bdc:	e12fff1e 	bx	lr
 8006be0:	20000510 	.word	0x20000510

08006be4 <_GLOBAL__sub_I__Z17ConvertToPriorityj>:
 8006be4:	e59f3024 	ldr	r3, [pc, #36]	; 8006c10 <_GLOBAL__sub_I__Z17ConvertToPriorityj+0x2c>
 8006be8:	e3a02000 	mov	r2, #0
 8006bec:	e3e0c000 	mvn	ip, #0
 8006bf0:	e3e00002 	mvn	r0, #2
 8006bf4:	e3e01001 	mvn	r1, #1
 8006bf8:	e583c000 	str	ip, [r3]
 8006bfc:	e583000c 	str	r0, [r3, #12]
 8006c00:	e5831010 	str	r1, [r3, #16]
 8006c04:	e5832008 	str	r2, [r3, #8]
 8006c08:	e5832004 	str	r2, [r3, #4]
 8006c0c:	e12fff1e 	bx	lr
 8006c10:	20000518 	.word	0x20000518

08006c14 <_GLOBAL__sub_I__ZN15ThreadsDatabase9atomicSemE>:
 8006c14:	e59f3024 	ldr	r3, [pc, #36]	; 8006c40 <_GLOBAL__sub_I__ZN15ThreadsDatabase9atomicSemE+0x2c>
 8006c18:	e3a02000 	mov	r2, #0
 8006c1c:	e3e0c000 	mvn	ip, #0
 8006c20:	e3e00002 	mvn	r0, #2
 8006c24:	e3e01001 	mvn	r1, #1
 8006c28:	e583c014 	str	ip, [r3, #20]
 8006c2c:	e5830018 	str	r0, [r3, #24]
 8006c30:	e583101c 	str	r1, [r3, #28]
 8006c34:	e5832010 	str	r2, [r3, #16]
 8006c38:	e5832020 	str	r2, [r3, #32]
 8006c3c:	e12fff1e 	bx	lr
 8006c40:	2000052c 	.word	0x2000052c

08006c44 <_GLOBAL__sub_I__Z26TimerOSTimerServiceRoutinePKv>:
 8006c44:	e59f3024 	ldr	r3, [pc, #36]	; 8006c70 <_GLOBAL__sub_I__Z26TimerOSTimerServiceRoutinePKv+0x2c>
 8006c48:	e3a02000 	mov	r2, #0
 8006c4c:	e3e0c000 	mvn	ip, #0
 8006c50:	e3e00002 	mvn	r0, #2
 8006c54:	e3e01001 	mvn	r1, #1
 8006c58:	e583c010 	str	ip, [r3, #16]
 8006c5c:	e5830014 	str	r0, [r3, #20]
 8006c60:	e5831018 	str	r1, [r3, #24]
 8006c64:	e583200c 	str	r2, [r3, #12]
 8006c68:	e583201c 	str	r2, [r3, #28]
 8006c6c:	e12fff1e 	bx	lr
 8006c70:	20000550 	.word	0x20000550

08006c74 <_GLOBAL__sub_I_HAL_UART_MspInit>:
 8006c74:	e59f3020 	ldr	r3, [pc, #32]	; 8006c9c <_GLOBAL__sub_I_HAL_UART_MspInit+0x28>
 8006c78:	e3a0c000 	mov	ip, #0
 8006c7c:	e3e00000 	mvn	r0, #0
 8006c80:	e3e01002 	mvn	r1, #2
 8006c84:	e3e02001 	mvn	r2, #1
 8006c88:	e583c040 	str	ip, [r3, #64]	; 0x40
 8006c8c:	e5830044 	str	r0, [r3, #68]	; 0x44
 8006c90:	e5831048 	str	r1, [r3, #72]	; 0x48
 8006c94:	e583204c 	str	r2, [r3, #76]	; 0x4c
 8006c98:	e12fff1e 	bx	lr
 8006c9c:	20000570 	.word	0x20000570

08006ca0 <Reset_Handler>:
 8006ca0:	f8df d030 	ldr.w	sp, [pc, #48]	; 8006cd4 <LoopFillZerobss+0x10>
 8006ca4:	2100      	movs	r1, #0
 8006ca6:	e003      	b.n	8006cb0 <LoopCopyDataInit>

08006ca8 <CopyDataInit>:
 8006ca8:	4b0b      	ldr	r3, [pc, #44]	; (8006cd8 <LoopFillZerobss+0x14>)
 8006caa:	585b      	ldr	r3, [r3, r1]
 8006cac:	5043      	str	r3, [r0, r1]
 8006cae:	3104      	adds	r1, #4

08006cb0 <LoopCopyDataInit>:
 8006cb0:	480a      	ldr	r0, [pc, #40]	; (8006cdc <LoopFillZerobss+0x18>)
 8006cb2:	4b0b      	ldr	r3, [pc, #44]	; (8006ce0 <LoopFillZerobss+0x1c>)
 8006cb4:	1842      	adds	r2, r0, r1
 8006cb6:	429a      	cmp	r2, r3
 8006cb8:	d3f6      	bcc.n	8006ca8 <CopyDataInit>
 8006cba:	4a0a      	ldr	r2, [pc, #40]	; (8006ce4 <LoopFillZerobss+0x20>)
 8006cbc:	e002      	b.n	8006cc4 <LoopFillZerobss>

08006cbe <FillZerobss>:
 8006cbe:	2300      	movs	r3, #0
 8006cc0:	f842 3b04 	str.w	r3, [r2], #4

08006cc4 <LoopFillZerobss>:
 8006cc4:	4b08      	ldr	r3, [pc, #32]	; (8006ce8 <LoopFillZerobss+0x24>)
 8006cc6:	429a      	cmp	r2, r3
 8006cc8:	d3f9      	bcc.n	8006cbe <FillZerobss>
 8006cca:	f7f9 fa7b 	bl	80001c4 <SystemInit>
 8006cce:	f7ff fed1 	bl	8006a74 <main>
 8006cd2:	4770      	bx	lr
 8006cd4:	2001ffff 	.word	0x2001ffff
 8006cd8:	0800729c 	.word	0x0800729c
 8006cdc:	20000000 	.word	0x20000000
 8006ce0:	2000045c 	.word	0x2000045c
 8006ce4:	20000460 	.word	0x20000460
 8006ce8:	200005c4 	.word	0x200005c4

08006cec <ADC_IRQHandler>:
 8006cec:	e7fe      	b.n	8006cec <ADC_IRQHandler>
	...

08006cf0 <abort>:
 8006cf0:	b508      	push	{r3, lr}
 8006cf2:	2006      	movs	r0, #6
 8006cf4:	f000 f830 	bl	8006d58 <raise>
 8006cf8:	2001      	movs	r0, #1
 8006cfa:	f000 f84d 	bl	8006d98 <_exit>
 8006cfe:	bf00      	nop

08006d00 <_raise_r>:
 8006d00:	291f      	cmp	r1, #31
 8006d02:	b538      	push	{r3, r4, r5, lr}
 8006d04:	460c      	mov	r4, r1
 8006d06:	4605      	mov	r5, r0
 8006d08:	d820      	bhi.n	8006d4c <_raise_r+0x4c>
 8006d0a:	f8d0 22dc 	ldr.w	r2, [r0, #732]	; 0x2dc
 8006d0e:	b19a      	cbz	r2, 8006d38 <_raise_r+0x38>
 8006d10:	f852 3021 	ldr.w	r3, [r2, r1, lsl #2]
 8006d14:	b183      	cbz	r3, 8006d38 <_raise_r+0x38>
 8006d16:	2b01      	cmp	r3, #1
 8006d18:	d00c      	beq.n	8006d34 <_raise_r+0x34>
 8006d1a:	1c59      	adds	r1, r3, #1
 8006d1c:	d006      	beq.n	8006d2c <_raise_r+0x2c>
 8006d1e:	2500      	movs	r5, #0
 8006d20:	4620      	mov	r0, r4
 8006d22:	f842 5024 	str.w	r5, [r2, r4, lsl #2]
 8006d26:	4798      	blx	r3
 8006d28:	4628      	mov	r0, r5
 8006d2a:	bd38      	pop	{r3, r4, r5, pc}
 8006d2c:	2316      	movs	r3, #22
 8006d2e:	6003      	str	r3, [r0, #0]
 8006d30:	2001      	movs	r0, #1
 8006d32:	bd38      	pop	{r3, r4, r5, pc}
 8006d34:	2000      	movs	r0, #0
 8006d36:	bd38      	pop	{r3, r4, r5, pc}
 8006d38:	4628      	mov	r0, r5
 8006d3a:	f000 f829 	bl	8006d90 <_getpid_r>
 8006d3e:	4622      	mov	r2, r4
 8006d40:	4601      	mov	r1, r0
 8006d42:	4628      	mov	r0, r5
 8006d44:	e8bd 4038 	ldmia.w	sp!, {r3, r4, r5, lr}
 8006d48:	f000 b80e 	b.w	8006d68 <_kill_r>
 8006d4c:	2316      	movs	r3, #22
 8006d4e:	6003      	str	r3, [r0, #0]
 8006d50:	f04f 30ff 	mov.w	r0, #4294967295	; 0xffffffff
 8006d54:	bd38      	pop	{r3, r4, r5, pc}
 8006d56:	bf00      	nop

08006d58 <raise>:
 8006d58:	f240 4358 	movw	r3, #1112	; 0x458
 8006d5c:	f2c2 0300 	movt	r3, #8192	; 0x2000
 8006d60:	4601      	mov	r1, r0
 8006d62:	6818      	ldr	r0, [r3, #0]
 8006d64:	f7ff bfcc 	b.w	8006d00 <_raise_r>

08006d68 <_kill_r>:
 8006d68:	b538      	push	{r3, r4, r5, lr}
 8006d6a:	f240 54c0 	movw	r4, #1472	; 0x5c0
 8006d6e:	f2c2 0400 	movt	r4, #8192	; 0x2000
 8006d72:	2300      	movs	r3, #0
 8006d74:	4605      	mov	r5, r0
 8006d76:	4608      	mov	r0, r1
 8006d78:	4611      	mov	r1, r2
 8006d7a:	6023      	str	r3, [r4, #0]
 8006d7c:	f000 f810 	bl	8006da0 <_kill>
 8006d80:	1c43      	adds	r3, r0, #1
 8006d82:	d000      	beq.n	8006d86 <_kill_r+0x1e>
 8006d84:	bd38      	pop	{r3, r4, r5, pc}
 8006d86:	6823      	ldr	r3, [r4, #0]
 8006d88:	2b00      	cmp	r3, #0
 8006d8a:	d0fb      	beq.n	8006d84 <_kill_r+0x1c>
 8006d8c:	602b      	str	r3, [r5, #0]
 8006d8e:	bd38      	pop	{r3, r4, r5, pc}

08006d90 <_getpid_r>:
 8006d90:	f000 b800 	b.w	8006d94 <_getpid>

08006d94 <_getpid>:
 8006d94:	2001      	movs	r0, #1
 8006d96:	4770      	bx	lr

08006d98 <_exit>:
 8006d98:	f04f 31ff 	mov.w	r1, #4294967295	; 0xffffffff
 8006d9c:	f000 b800 	b.w	8006da0 <_kill>

08006da0 <_kill>:
 8006da0:	2906      	cmp	r1, #6
 8006da2:	b530      	push	{r4, r5, lr}
 8006da4:	bf0c      	ite	eq
 8006da6:	2423      	moveq	r4, #35	; 0x23
 8006da8:	2426      	movne	r4, #38	; 0x26
 8006daa:	f2c0 0402 	movt	r4, #2
 8006dae:	2518      	movs	r5, #24
 8006db0:	4628      	mov	r0, r5
 8006db2:	4621      	mov	r1, r4
 8006db4:	beab      	bkpt	0x00ab
 8006db6:	4604      	mov	r4, r0
 8006db8:	4620      	mov	r0, r4
 8006dba:	bd30      	pop	{r4, r5, pc}
